
C:/Users/pete/Documents/pico/PiTest/build/blink.elf:     file format elf32-littlearm

Sections:
Idx Name          Size      VMA       LMA       File off  Algn
  0 .text         0000c110  10000000  10000000  00001000  2**3
                  CONTENTS, ALLOC, LOAD, READONLY, CODE
  1 .rodata       00007594  1000c110  1000c110  0000d110  2**3
                  CONTENTS, ALLOC, LOAD, READONLY, DATA
  2 .ARM.exidx    00000008  100136a4  100136a4  000146a4  2**2
                  CONTENTS, ALLOC, LOAD, READONLY, DATA
  3 .binary_info  00000030  100136ac  100136ac  000146ac  2**2
                  CONTENTS, ALLOC, LOAD, READONLY, DATA
  4 .ram_vector_table 00000110  20000000  20000000  00017000  2**2
                  ALLOC
  5 .uninitialized_data 00000000  20000110  20000110  000163b0  2**0
                  CONTENTS
  6 .data         00000cc0  20000110  100136dc  00015110  2**3
                  CONTENTS, ALLOC, LOAD, READONLY, CODE
  7 .tdata        00000000  20000dd0  20000dd0  000163b0  2**0
                  CONTENTS, ALLOC, LOAD, DATA, THREAD_LOCAL
  8 .tbss         00000000  20000dd0  20000dd0  00000000  2**0
                  ALLOC, THREAD_LOCAL
  9 .bss          000005c8  20000dd0  1001439c  00016dd0  2**3
                  ALLOC
 10 .heap         00000800  20001398  20001398  000163b0  2**2
                  CONTENTS, READONLY
 11 .scratch_x    00000000  20080000  20080000  00016bb0  2**0
                  CONTENTS
 12 .scratch_y    00000000  20081000  20081000  00016bb0  2**0
                  CONTENTS
 13 .stack_dummy  00000800  20081000  20081000  00016bc0  2**5
                  CONTENTS, READONLY
 14 .flash_end    00000014  1001439c  1001439c  0001639c  2**2
                  CONTENTS, ALLOC, LOAD, READONLY, DATA
 15 .ARM.attributes 00000034  00000000  00000000  000173c0  2**0
                  CONTENTS, READONLY
 16 .comment      00000045  00000000  00000000  000173f4  2**0
                  CONTENTS, READONLY
 17 .debug_info   0004088d  00000000  00000000  00017439  2**0
                  CONTENTS, READONLY, DEBUGGING, OCTETS
 18 .debug_abbrev 00007ec1  00000000  00000000  00057cc6  2**0
                  CONTENTS, READONLY, DEBUGGING, OCTETS
 19 .debug_loclists 0001ccee  00000000  00000000  0005fb87  2**0
                  CONTENTS, READONLY, DEBUGGING, OCTETS
 20 .debug_aranges 000011f8  00000000  00000000  0007c878  2**3
                  CONTENTS, READONLY, DEBUGGING, OCTETS
 21 .debug_rnglists 000059fc  00000000  00000000  0007da70  2**0
                  CONTENTS, READONLY, DEBUGGING, OCTETS
 22 .debug_line   0002389b  00000000  00000000  0008346c  2**0
                  CONTENTS, READONLY, DEBUGGING, OCTETS
 23 .debug_str    0000919a  00000000  00000000  000a6d07  2**0
                  CONTENTS, READONLY, DEBUGGING, OCTETS
 24 .debug_frame  00004944  00000000  00000000  000afea4  2**2
                  CONTENTS, READONLY, DEBUGGING, OCTETS
 25 .debug_line_str 000002a2  00000000  00000000  000b47e8  2**0
                  CONTENTS, READONLY, DEBUGGING, OCTETS

C:/Users/pete/Documents/pico/PiTest/build/blink.elf:     file format elf32-littlearm


Disassembly of section .text:

10000000 <__VECTOR_TABLE>:
10000000:	20082000 	.word	0x20082000
10000004:	1000015d 	.word	0x1000015d
10000008:	10000113 	.word	0x10000113
1000000c:	10000115 	.word	0x10000115
10000010:	10000111 	.word	0x10000111
10000014:	10000111 	.word	0x10000111
10000018:	10000111 	.word	0x10000111
1000001c:	10000111 	.word	0x10000111
10000020:	10000111 	.word	0x10000111
10000024:	10000111 	.word	0x10000111
10000028:	10000111 	.word	0x10000111
1000002c:	10000117 	.word	0x10000117
10000030:	10000111 	.word	0x10000111
10000034:	10000111 	.word	0x10000111
10000038:	10000119 	.word	0x10000119
1000003c:	1000011b 	.word	0x1000011b
10000040:	1000011d 	.word	0x1000011d
10000044:	1000011d 	.word	0x1000011d
10000048:	1000011d 	.word	0x1000011d
1000004c:	1000011d 	.word	0x1000011d
10000050:	1000011d 	.word	0x1000011d
10000054:	1000011d 	.word	0x1000011d
10000058:	1000011d 	.word	0x1000011d
1000005c:	1000011d 	.word	0x1000011d
10000060:	1000011d 	.word	0x1000011d
10000064:	1000011d 	.word	0x1000011d
10000068:	1000011d 	.word	0x1000011d
1000006c:	1000011d 	.word	0x1000011d
10000070:	1000011d 	.word	0x1000011d
10000074:	1000011d 	.word	0x1000011d
10000078:	1000011d 	.word	0x1000011d
1000007c:	1000011d 	.word	0x1000011d
10000080:	1000011d 	.word	0x1000011d
10000084:	1000011d 	.word	0x1000011d
10000088:	1000011d 	.word	0x1000011d
1000008c:	1000011d 	.word	0x1000011d
10000090:	1000011d 	.word	0x1000011d
10000094:	1000011d 	.word	0x1000011d
10000098:	1000011d 	.word	0x1000011d
1000009c:	1000011d 	.word	0x1000011d
100000a0:	1000011d 	.word	0x1000011d
100000a4:	1000011d 	.word	0x1000011d
100000a8:	1000011d 	.word	0x1000011d
100000ac:	1000011d 	.word	0x1000011d
100000b0:	1000011d 	.word	0x1000011d
100000b4:	1000011d 	.word	0x1000011d
100000b8:	1000011d 	.word	0x1000011d
100000bc:	1000011d 	.word	0x1000011d
100000c0:	1000011d 	.word	0x1000011d
100000c4:	1000011d 	.word	0x1000011d
100000c8:	1000011d 	.word	0x1000011d
100000cc:	1000011d 	.word	0x1000011d
100000d0:	1000011d 	.word	0x1000011d
100000d4:	1000011d 	.word	0x1000011d
100000d8:	1000011d 	.word	0x1000011d
100000dc:	1000011d 	.word	0x1000011d
100000e0:	1000011d 	.word	0x1000011d
100000e4:	1000011d 	.word	0x1000011d
100000e8:	1000011d 	.word	0x1000011d
100000ec:	1000011d 	.word	0x1000011d
100000f0:	1000011d 	.word	0x1000011d
100000f4:	1000011d 	.word	0x1000011d
100000f8:	1000011d 	.word	0x1000011d
100000fc:	1000011d 	.word	0x1000011d
10000100:	1000011d 	.word	0x1000011d
10000104:	1000011d 	.word	0x1000011d
10000108:	1000011d 	.word	0x1000011d
1000010c:	1000011d 	.word	0x1000011d

10000110 <isr_invalid>:
10000110:	be00      	bkpt	0x0000

10000112 <isr_nmi>:
10000112:	be00      	bkpt	0x0000

10000114 <isr_hardfault>:
10000114:	be00      	bkpt	0x0000

10000116 <isr_svcall>:
10000116:	be00      	bkpt	0x0000

10000118 <isr_pendsv>:
10000118:	be00      	bkpt	0x0000

1000011a <isr_systick>:
1000011a:	be00      	bkpt	0x0000

1000011c <__unhandled_user_irq>:
1000011c:	f3ef 8005 	mrs	r0, IPSR
10000120:	3810      	subs	r0, #16

10000122 <unhandled_user_irq_num_in_r0>:
10000122:	be00      	bkpt	0x0000

10000124 <binary_info_header>:
10000124:	7188ebf2 	.word	0x7188ebf2
10000128:	100136ac 	.word	0x100136ac
1000012c:	100136dc 	.word	0x100136dc
10000130:	100001a8 	.word	0x100001a8
10000134:	e71aa390 	.word	0xe71aa390

10000138 <__binary_info_header_end>:
10000138:	ffffded3 	.word	0xffffded3
1000013c:	10210142 	.word	0x10210142
10000140:	000001ff 	.word	0x000001ff
10000144:	00014264 	.word	0x00014264
10000148:	ab123579 	.word	0xab123579

1000014c <_entry_point>:
1000014c:	f04f 0000 	mov.w	r0, #0

10000150 <_enter_vtable_in_r0>:
10000150:	4920      	ldr	r1, [pc, #128]	@ (100001d4 <data_cpy_table+0x2c>)
10000152:	6008      	str	r0, [r1, #0]
10000154:	c806      	ldmia	r0!, {r1, r2}
10000156:	f381 8808 	msr	MSP, r1
1000015a:	4710      	bx	r2

1000015c <_reset_handler>:
1000015c:	f04f 4050 	mov.w	r0, #3489660928	@ 0xd0000000
10000160:	6800      	ldr	r0, [r0, #0]
10000162:	b110      	cbz	r0, 1000016a <hold_non_core0_in_bootrom+0x6>

10000164 <hold_non_core0_in_bootrom>:
10000164:	f04f 0000 	mov.w	r0, #0
10000168:	e7f2      	b.n	10000150 <_enter_vtable_in_r0>
1000016a:	a40f      	add	r4, pc, #60	@ (adr r4, 100001a8 <data_cpy_table>)
1000016c:	cc0e      	ldmia	r4!, {r1, r2, r3}
1000016e:	2900      	cmp	r1, #0
10000170:	d002      	beq.n	10000178 <hold_non_core0_in_bootrom+0x14>
10000172:	f000 f815 	bl	100001a0 <data_cpy>
10000176:	e7f9      	b.n	1000016c <hold_non_core0_in_bootrom+0x8>
10000178:	4917      	ldr	r1, [pc, #92]	@ (100001d8 <data_cpy_table+0x30>)
1000017a:	4a18      	ldr	r2, [pc, #96]	@ (100001dc <data_cpy_table+0x34>)
1000017c:	2000      	movs	r0, #0
1000017e:	e000      	b.n	10000182 <bss_fill_test>

10000180 <bss_fill_loop>:
10000180:	c101      	stmia	r1!, {r0}

10000182 <bss_fill_test>:
10000182:	4291      	cmp	r1, r2
10000184:	d1fc      	bne.n	10000180 <bss_fill_loop>

10000186 <platform_entry>:
10000186:	2000      	movs	r0, #0
10000188:	f380 880a 	msr	MSPLIM, r0
1000018c:	4914      	ldr	r1, [pc, #80]	@ (100001e0 <data_cpy_table+0x38>)
1000018e:	4788      	blx	r1
10000190:	4914      	ldr	r1, [pc, #80]	@ (100001e4 <data_cpy_table+0x3c>)
10000192:	4788      	blx	r1
10000194:	4914      	ldr	r1, [pc, #80]	@ (100001e8 <data_cpy_table+0x40>)
10000196:	4788      	blx	r1
10000198:	be00      	bkpt	0x0000
1000019a:	e7fd      	b.n	10000198 <platform_entry+0x12>

1000019c <data_cpy_loop>:
1000019c:	c901      	ldmia	r1!, {r0}
1000019e:	c201      	stmia	r2!, {r0}

100001a0 <data_cpy>:
100001a0:	429a      	cmp	r2, r3
100001a2:	d3fb      	bcc.n	1000019c <data_cpy_loop>
100001a4:	4770      	bx	lr
100001a6:	bf00      	nop

100001a8 <data_cpy_table>:
100001a8:	100136dc 	.word	0x100136dc
100001ac:	20000110 	.word	0x20000110
100001b0:	20000dd0 	.word	0x20000dd0
100001b4:	1001439c 	.word	0x1001439c
100001b8:	20080000 	.word	0x20080000
100001bc:	20080000 	.word	0x20080000
100001c0:	1001439c 	.word	0x1001439c
100001c4:	20081000 	.word	0x20081000
100001c8:	20081000 	.word	0x20081000
100001cc:	00000000 	.word	0x00000000
100001d0:	4770      	bx	lr
100001d2:	0000      	.short	0x0000
100001d4:	e000ed08 	.word	0xe000ed08
100001d8:	20000dd0 	.word	0x20000dd0
100001dc:	20001398 	.word	0x20001398
100001e0:	100053dd 	.word	0x100053dd
100001e4:	10000279 	.word	0x10000279
100001e8:	100053a1 	.word	0x100053a1

100001ec <_init>:
100001ec:	b5f8      	push	{r3, r4, r5, r6, r7, lr}
100001ee:	bf00      	nop

100001f0 <register_tm_clones>:
100001f0:	4b06      	ldr	r3, [pc, #24]	@ (1000020c <register_tm_clones+0x1c>)
100001f2:	4907      	ldr	r1, [pc, #28]	@ (10000210 <register_tm_clones+0x20>)
100001f4:	1ac9      	subs	r1, r1, r3
100001f6:	1089      	asrs	r1, r1, #2
100001f8:	bf48      	it	mi
100001fa:	3101      	addmi	r1, #1
100001fc:	1049      	asrs	r1, r1, #1
100001fe:	d003      	beq.n	10000208 <register_tm_clones+0x18>
10000200:	4b04      	ldr	r3, [pc, #16]	@ (10000214 <register_tm_clones+0x24>)
10000202:	b10b      	cbz	r3, 10000208 <register_tm_clones+0x18>
10000204:	4801      	ldr	r0, [pc, #4]	@ (1000020c <register_tm_clones+0x1c>)
10000206:	4718      	bx	r3
10000208:	4770      	bx	lr
1000020a:	bf00      	nop
1000020c:	20000dd0 	.word	0x20000dd0
10000210:	20000dd0 	.word	0x20000dd0
10000214:	00000000 	.word	0x00000000

10000218 <frame_dummy>:
10000218:	b508      	push	{r3, lr}
1000021a:	4b05      	ldr	r3, [pc, #20]	@ (10000230 <frame_dummy+0x18>)
1000021c:	b11b      	cbz	r3, 10000226 <frame_dummy+0xe>
1000021e:	4905      	ldr	r1, [pc, #20]	@ (10000234 <frame_dummy+0x1c>)
10000220:	4805      	ldr	r0, [pc, #20]	@ (10000238 <frame_dummy+0x20>)
10000222:	f3af 8000 	nop.w
10000226:	e8bd 4008 	ldmia.w	sp!, {r3, lr}
1000022a:	f7ff bfe1 	b.w	100001f0 <register_tm_clones>
1000022e:	bf00      	nop
10000230:	00000000 	.word	0x00000000
10000234:	20001308 	.word	0x20001308
10000238:	1000c110 	.word	0x1000c110

1000023c <pico_I2C_init>:
1000023c:	b508      	push	{r3, lr}
1000023e:	490c      	ldr	r1, [pc, #48]	@ (10000270 <pico_I2C_init+0x34>)
10000240:	480c      	ldr	r0, [pc, #48]	@ (10000274 <pico_I2C_init+0x38>)
10000242:	f005 fcf7 	bl	10005c34 <i2c_init>
10000246:	2103      	movs	r1, #3
10000248:	2004      	movs	r0, #4
1000024a:	f002 f8b5 	bl	100023b8 <gpio_set_function>
1000024e:	2103      	movs	r1, #3
10000250:	2005      	movs	r0, #5
10000252:	f002 f8b1 	bl	100023b8 <gpio_set_function>
10000256:	2200      	movs	r2, #0
10000258:	2101      	movs	r1, #1
1000025a:	2004      	movs	r0, #4
1000025c:	f002 f8ca 	bl	100023f4 <gpio_set_pulls>
10000260:	2200      	movs	r2, #0
10000262:	2101      	movs	r1, #1
10000264:	2005      	movs	r0, #5
10000266:	f002 f8c5 	bl	100023f4 <gpio_set_pulls>
1000026a:	2000      	movs	r0, #0
1000026c:	bd08      	pop	{r3, pc}
1000026e:	bf00      	nop
10000270:	000186a0 	.word	0x000186a0
10000274:	200006ec 	.word	0x200006ec

10000278 <main>:
10000278:	e92d 4ff0 	stmdb	sp!, {r4, r5, r6, r7, r8, r9, sl, fp, lr}
1000027c:	f2ad 5d2c 	subw	sp, sp, #1324	@ 0x52c
10000280:	2250      	movs	r2, #80	@ 0x50
10000282:	2100      	movs	r1, #0
10000284:	a8f6      	add	r0, sp, #984	@ 0x3d8
10000286:	f006 fb23 	bl	100068d0 <memset>
1000028a:	2300      	movs	r3, #0
1000028c:	2019      	movs	r0, #25
1000028e:	9320      	str	r3, [sp, #128]	@ 0x80
10000290:	f002 f8c4 	bl	1000241c <gpio_init>
10000294:	2319      	movs	r3, #25
10000296:	f04f 0201 	mov.w	r2, #1
1000029a:	ec42 3044 	gpioc_bit_oe_put r3, r2
1000029e:	f7ff ffcd 	bl	1000023c <pico_I2C_init>
100002a2:	2800      	cmp	r0, #0
100002a4:	f040 838c 	bne.w	100009c0 <main+0x748>
100002a8:	f005 fa02 	bl	100056b0 <stdio_init_all>
100002ac:	2465      	movs	r4, #101	@ 0x65
100002ae:	e004      	b.n	100002ba <main+0x42>
100002b0:	3c01      	subs	r4, #1
100002b2:	d007      	beq.n	100002c4 <main+0x4c>
100002b4:	2064      	movs	r0, #100	@ 0x64
100002b6:	f002 fe51 	bl	10002f5c <sleep_ms>
100002ba:	2000      	movs	r0, #0
100002bc:	f005 fd88 	bl	10005dd0 <tud_cdc_n_connected>
100002c0:	2800      	cmp	r0, #0
100002c2:	d0f5      	beq.n	100002b0 <main+0x38>
100002c4:	48b7      	ldr	r0, [pc, #732]	@ (100005a4 <main+0x32c>)
100002c6:	f005 fa81 	bl	100057cc <__wrap_puts>
100002ca:	f002 feeb 	bl	100030a4 <time_us_64>
100002ce:	460b      	mov	r3, r1
100002d0:	223c      	movs	r2, #60	@ 0x3c
100002d2:	2100      	movs	r1, #0
100002d4:	900a      	str	r0, [sp, #40]	@ 0x28
100002d6:	a824      	add	r0, sp, #144	@ 0x90
100002d8:	930b      	str	r3, [sp, #44]	@ 0x2c
100002da:	f006 faf9 	bl	100068d0 <memset>
100002de:	f002 fee1 	bl	100030a4 <time_us_64>
100002e2:	460b      	mov	r3, r1
100002e4:	223c      	movs	r2, #60	@ 0x3c
100002e6:	2100      	movs	r1, #0
100002e8:	9006      	str	r0, [sp, #24]
100002ea:	a833      	add	r0, sp, #204	@ 0xcc
100002ec:	9307      	str	r3, [sp, #28]
100002ee:	f006 faef 	bl	100068d0 <memset>
100002f2:	f002 fed7 	bl	100030a4 <time_us_64>
100002f6:	460b      	mov	r3, r1
100002f8:	223c      	movs	r2, #60	@ 0x3c
100002fa:	2100      	movs	r1, #0
100002fc:	901c      	str	r0, [sp, #112]	@ 0x70
100002fe:	a842      	add	r0, sp, #264	@ 0x108
10000300:	931d      	str	r3, [sp, #116]	@ 0x74
10000302:	f006 fae5 	bl	100068d0 <memset>
10000306:	f002 fecd 	bl	100030a4 <time_us_64>
1000030a:	460b      	mov	r3, r1
1000030c:	223c      	movs	r2, #60	@ 0x3c
1000030e:	2100      	movs	r1, #0
10000310:	900c      	str	r0, [sp, #48]	@ 0x30
10000312:	a851      	add	r0, sp, #324	@ 0x144
10000314:	930d      	str	r3, [sp, #52]	@ 0x34
10000316:	f006 fadb 	bl	100068d0 <memset>
1000031a:	f002 fec3 	bl	100030a4 <time_us_64>
1000031e:	460b      	mov	r3, r1
10000320:	223c      	movs	r2, #60	@ 0x3c
10000322:	2100      	movs	r1, #0
10000324:	901a      	str	r0, [sp, #104]	@ 0x68
10000326:	a860      	add	r0, sp, #384	@ 0x180
10000328:	931b      	str	r3, [sp, #108]	@ 0x6c
1000032a:	f006 fad1 	bl	100068d0 <memset>
1000032e:	f002 feb9 	bl	100030a4 <time_us_64>
10000332:	223c      	movs	r2, #60	@ 0x3c
10000334:	2100      	movs	r1, #0
10000336:	a86f      	add	r0, sp, #444	@ 0x1bc
10000338:	f006 faca 	bl	100068d0 <memset>
1000033c:	f002 feb2 	bl	100030a4 <time_us_64>
10000340:	460b      	mov	r3, r1
10000342:	223c      	movs	r2, #60	@ 0x3c
10000344:	2100      	movs	r1, #0
10000346:	900e      	str	r0, [sp, #56]	@ 0x38
10000348:	a87e      	add	r0, sp, #504	@ 0x1f8
1000034a:	930f      	str	r3, [sp, #60]	@ 0x3c
1000034c:	f006 fac0 	bl	100068d0 <memset>
10000350:	f002 fea8 	bl	100030a4 <time_us_64>
10000354:	460b      	mov	r3, r1
10000356:	223c      	movs	r2, #60	@ 0x3c
10000358:	2100      	movs	r1, #0
1000035a:	9010      	str	r0, [sp, #64]	@ 0x40
1000035c:	a88d      	add	r0, sp, #564	@ 0x234
1000035e:	9311      	str	r3, [sp, #68]	@ 0x44
10000360:	f006 fab6 	bl	100068d0 <memset>
10000364:	f002 fe9e 	bl	100030a4 <time_us_64>
10000368:	460b      	mov	r3, r1
1000036a:	223c      	movs	r2, #60	@ 0x3c
1000036c:	2100      	movs	r1, #0
1000036e:	9012      	str	r0, [sp, #72]	@ 0x48
10000370:	a89c      	add	r0, sp, #624	@ 0x270
10000372:	9313      	str	r3, [sp, #76]	@ 0x4c
10000374:	f006 faac 	bl	100068d0 <memset>
10000378:	f002 fe94 	bl	100030a4 <time_us_64>
1000037c:	460b      	mov	r3, r1
1000037e:	223c      	movs	r2, #60	@ 0x3c
10000380:	2100      	movs	r1, #0
10000382:	9014      	str	r0, [sp, #80]	@ 0x50
10000384:	a8ab      	add	r0, sp, #684	@ 0x2ac
10000386:	9315      	str	r3, [sp, #84]	@ 0x54
10000388:	f006 faa2 	bl	100068d0 <memset>
1000038c:	f002 fe8a 	bl	100030a4 <time_us_64>
10000390:	460b      	mov	r3, r1
10000392:	223c      	movs	r2, #60	@ 0x3c
10000394:	2100      	movs	r1, #0
10000396:	9016      	str	r0, [sp, #88]	@ 0x58
10000398:	a8ba      	add	r0, sp, #744	@ 0x2e8
1000039a:	9317      	str	r3, [sp, #92]	@ 0x5c
1000039c:	f006 fa98 	bl	100068d0 <memset>
100003a0:	f002 fe80 	bl	100030a4 <time_us_64>
100003a4:	460b      	mov	r3, r1
100003a6:	223c      	movs	r2, #60	@ 0x3c
100003a8:	2100      	movs	r1, #0
100003aa:	901e      	str	r0, [sp, #120]	@ 0x78
100003ac:	a8c9      	add	r0, sp, #804	@ 0x324
100003ae:	931f      	str	r3, [sp, #124]	@ 0x7c
100003b0:	f006 fa8e 	bl	100068d0 <memset>
100003b4:	f002 fe76 	bl	100030a4 <time_us_64>
100003b8:	460b      	mov	r3, r1
100003ba:	223c      	movs	r2, #60	@ 0x3c
100003bc:	2100      	movs	r1, #0
100003be:	9018      	str	r0, [sp, #96]	@ 0x60
100003c0:	a8d8      	add	r0, sp, #864	@ 0x360
100003c2:	9319      	str	r3, [sp, #100]	@ 0x64
100003c4:	f006 fa84 	bl	100068d0 <memset>
100003c8:	f002 fe6c 	bl	100030a4 <time_us_64>
100003cc:	460b      	mov	r3, r1
100003ce:	9008      	str	r0, [sp, #32]
100003d0:	223c      	movs	r2, #60	@ 0x3c
100003d2:	2100      	movs	r1, #0
100003d4:	a8e7      	add	r0, sp, #924	@ 0x39c
100003d6:	9309      	str	r3, [sp, #36]	@ 0x24
100003d8:	f006 fa7a 	bl	100068d0 <memset>
100003dc:	2300      	movs	r3, #0
100003de:	461f      	mov	r7, r3
100003e0:	f8df 91e4 	ldr.w	r9, [pc, #484]	@ 100005c8 <main+0x350>
100003e4:	f8df 81e4 	ldr.w	r8, [pc, #484]	@ 100005cc <main+0x354>
100003e8:	9305      	str	r3, [sp, #20]
100003ea:	f20d 4524 	addw	r5, sp, #1060	@ 0x424
100003ee:	f002 fe59 	bl	100030a4 <time_us_64>
100003f2:	9a0a      	ldr	r2, [sp, #40]	@ 0x28
100003f4:	4b6c      	ldr	r3, [pc, #432]	@ (100005a8 <main+0x330>)
100003f6:	1a80      	subs	r0, r0, r2
100003f8:	9a0b      	ldr	r2, [sp, #44]	@ 0x2c
100003fa:	eb61 0102 	sbc.w	r1, r1, r2
100003fe:	4298      	cmp	r0, r3
10000400:	f171 0100 	sbcs.w	r1, r1, #0
10000404:	f280 80b4 	bge.w	10000570 <main+0x2f8>
10000408:	f002 fe4c 	bl	100030a4 <time_us_64>
1000040c:	9a06      	ldr	r2, [sp, #24]
1000040e:	4b67      	ldr	r3, [pc, #412]	@ (100005ac <main+0x334>)
10000410:	1a80      	subs	r0, r0, r2
10000412:	9a07      	ldr	r2, [sp, #28]
10000414:	eb61 0102 	sbc.w	r1, r1, r2
10000418:	4283      	cmp	r3, r0
1000041a:	eb77 0101 	sbcs.w	r1, r7, r1
1000041e:	f2c0 815c 	blt.w	100006da <main+0x462>
10000422:	f002 fe3f 	bl	100030a4 <time_us_64>
10000426:	9b1c      	ldr	r3, [sp, #112]	@ 0x70
10000428:	1ac0      	subs	r0, r0, r3
1000042a:	9b1d      	ldr	r3, [sp, #116]	@ 0x74
1000042c:	eb61 0103 	sbc.w	r1, r1, r3
10000430:	4580      	cmp	r8, r0
10000432:	eb77 0101 	sbcs.w	r1, r7, r1
10000436:	f2c0 81e3 	blt.w	10000800 <main+0x588>
1000043a:	f002 fe33 	bl	100030a4 <time_us_64>
1000043e:	9b0c      	ldr	r3, [sp, #48]	@ 0x30
10000440:	1ac0      	subs	r0, r0, r3
10000442:	9b0d      	ldr	r3, [sp, #52]	@ 0x34
10000444:	eb61 0103 	sbc.w	r1, r1, r3
10000448:	4580      	cmp	r8, r0
1000044a:	eb77 0101 	sbcs.w	r1, r7, r1
1000044e:	f2c0 8110 	blt.w	10000672 <main+0x3fa>
10000452:	4a57      	ldr	r2, [pc, #348]	@ (100005b0 <main+0x338>)
10000454:	ab6f      	add	r3, sp, #444	@ 0x1bc
10000456:	ca07      	ldmia	r2, {r0, r1, r2}
10000458:	c303      	stmia	r3!, {r0, r1}
1000045a:	801a      	strh	r2, [r3, #0]
1000045c:	9b05      	ldr	r3, [sp, #20]
1000045e:	2b00      	cmp	r3, #0
10000460:	f040 8145 	bne.w	100006ee <main+0x476>
10000464:	f002 fe1e 	bl	100030a4 <time_us_64>
10000468:	9b1a      	ldr	r3, [sp, #104]	@ 0x68
1000046a:	1ac0      	subs	r0, r0, r3
1000046c:	9b1b      	ldr	r3, [sp, #108]	@ 0x6c
1000046e:	eb61 0103 	sbc.w	r1, r1, r3
10000472:	9b05      	ldr	r3, [sp, #20]
10000474:	4580      	cmp	r8, r0
10000476:	eb73 0101 	sbcs.w	r1, r3, r1
1000047a:	f2c0 8263 	blt.w	10000944 <main+0x6cc>
1000047e:	f002 fe11 	bl	100030a4 <time_us_64>
10000482:	9b0e      	ldr	r3, [sp, #56]	@ 0x38
10000484:	1ac0      	subs	r0, r0, r3
10000486:	9b0f      	ldr	r3, [sp, #60]	@ 0x3c
10000488:	eb61 0103 	sbc.w	r1, r1, r3
1000048c:	4580      	cmp	r8, r0
1000048e:	eb77 0101 	sbcs.w	r1, r7, r1
10000492:	f2c0 80e3 	blt.w	1000065c <main+0x3e4>
10000496:	f002 fe05 	bl	100030a4 <time_us_64>
1000049a:	9b10      	ldr	r3, [sp, #64]	@ 0x40
1000049c:	1ac0      	subs	r0, r0, r3
1000049e:	9b11      	ldr	r3, [sp, #68]	@ 0x44
100004a0:	eb61 0103 	sbc.w	r1, r1, r3
100004a4:	4580      	cmp	r8, r0
100004a6:	eb77 0101 	sbcs.w	r1, r7, r1
100004aa:	f2c0 80c9 	blt.w	10000640 <main+0x3c8>
100004ae:	f002 fdf9 	bl	100030a4 <time_us_64>
100004b2:	9b12      	ldr	r3, [sp, #72]	@ 0x48
100004b4:	1ac0      	subs	r0, r0, r3
100004b6:	9b13      	ldr	r3, [sp, #76]	@ 0x4c
100004b8:	eb61 0103 	sbc.w	r1, r1, r3
100004bc:	4580      	cmp	r8, r0
100004be:	eb77 0101 	sbcs.w	r1, r7, r1
100004c2:	f2c0 80af 	blt.w	10000624 <main+0x3ac>
100004c6:	f002 fded 	bl	100030a4 <time_us_64>
100004ca:	9b14      	ldr	r3, [sp, #80]	@ 0x50
100004cc:	1ac0      	subs	r0, r0, r3
100004ce:	9b15      	ldr	r3, [sp, #84]	@ 0x54
100004d0:	eb61 0103 	sbc.w	r1, r1, r3
100004d4:	4580      	cmp	r8, r0
100004d6:	eb77 0101 	sbcs.w	r1, r7, r1
100004da:	f2c0 8095 	blt.w	10000608 <main+0x390>
100004de:	f002 fde1 	bl	100030a4 <time_us_64>
100004e2:	9b16      	ldr	r3, [sp, #88]	@ 0x58
100004e4:	1ac0      	subs	r0, r0, r3
100004e6:	9b17      	ldr	r3, [sp, #92]	@ 0x5c
100004e8:	eb61 0103 	sbc.w	r1, r1, r3
100004ec:	4580      	cmp	r8, r0
100004ee:	eb77 0101 	sbcs.w	r1, r7, r1
100004f2:	db7b      	blt.n	100005ec <main+0x374>
100004f4:	f002 fdd6 	bl	100030a4 <time_us_64>
100004f8:	9b1e      	ldr	r3, [sp, #120]	@ 0x78
100004fa:	1ac0      	subs	r0, r0, r3
100004fc:	9b1f      	ldr	r3, [sp, #124]	@ 0x7c
100004fe:	eb61 0103 	sbc.w	r1, r1, r3
10000502:	4580      	cmp	r8, r0
10000504:	eb77 0101 	sbcs.w	r1, r7, r1
10000508:	db62      	blt.n	100005d0 <main+0x358>
1000050a:	f002 fdcb 	bl	100030a4 <time_us_64>
1000050e:	9b18      	ldr	r3, [sp, #96]	@ 0x60
10000510:	1ac0      	subs	r0, r0, r3
10000512:	9b19      	ldr	r3, [sp, #100]	@ 0x64
10000514:	eb61 0103 	sbc.w	r1, r1, r3
10000518:	4580      	cmp	r8, r0
1000051a:	eb77 0101 	sbcs.w	r1, r7, r1
1000051e:	db35      	blt.n	1000058c <main+0x314>
10000520:	f002 fdc0 	bl	100030a4 <time_us_64>
10000524:	9b08      	ldr	r3, [sp, #32]
10000526:	1ac0      	subs	r0, r0, r3
10000528:	9b09      	ldr	r3, [sp, #36]	@ 0x24
1000052a:	eb61 0103 	sbc.w	r1, r1, r3
1000052e:	4580      	cmp	r8, r0
10000530:	eb77 0101 	sbcs.w	r1, r7, r1
10000534:	f6bf af5b 	bge.w	100003ee <main+0x176>
10000538:	f002 fdb4 	bl	100030a4 <time_us_64>
1000053c:	4603      	mov	r3, r0
1000053e:	2000      	movs	r0, #0
10000540:	e9cd 3108 	strd	r3, r1, [sp, #32]
10000544:	f005 f8ba 	bl	100056bc <stdio_getchar_timeout_us>
10000548:	4b1a      	ldr	r3, [pc, #104]	@ (100005b4 <main+0x33c>)
1000054a:	681b      	ldr	r3, [r3, #0]
1000054c:	2b00      	cmp	r3, #0
1000054e:	f340 8153 	ble.w	100007f8 <main+0x580>
10000552:	1c81      	adds	r1, r0, #2
10000554:	f000 8207 	beq.w	10000966 <main+0x6ee>
10000558:	4a17      	ldr	r2, [pc, #92]	@ (100005b8 <main+0x340>)
1000055a:	54d0      	strb	r0, [r2, r3]
1000055c:	4a15      	ldr	r2, [pc, #84]	@ (100005b4 <main+0x33c>)
1000055e:	3301      	adds	r3, #1
10000560:	6013      	str	r3, [r2, #0]
10000562:	4b16      	ldr	r3, [pc, #88]	@ (100005bc <main+0x344>)
10000564:	4a14      	ldr	r2, [pc, #80]	@ (100005b8 <main+0x340>)
10000566:	4916      	ldr	r1, [pc, #88]	@ (100005c0 <main+0x348>)
10000568:	a8e7      	add	r0, sp, #924	@ 0x39c
1000056a:	f004 fe6b 	bl	10005244 <__wrap_sprintf>
1000056e:	e73e      	b.n	100003ee <main+0x176>
10000570:	f002 fd98 	bl	100030a4 <time_us_64>
10000574:	2319      	movs	r3, #25
10000576:	f04f 0201 	mov.w	r2, #1
1000057a:	e9cd 010a 	strd	r0, r1, [sp, #40]	@ 0x28
1000057e:	ec42 3040 	gpioc_bit_out_put r3, r2
10000582:	f002 fd8f 	bl	100030a4 <time_us_64>
10000586:	e9cd 0106 	strd	r0, r1, [sp, #24]
1000058a:	e73d      	b.n	10000408 <main+0x190>
1000058c:	f002 fd8a 	bl	100030a4 <time_us_64>
10000590:	4b0c      	ldr	r3, [pc, #48]	@ (100005c4 <main+0x34c>)
10000592:	e9cd 0118 	strd	r0, r1, [sp, #96]	@ 0x60
10000596:	e893 0003 	ldmia.w	r3, {r0, r1}
1000059a:	90d8      	str	r0, [sp, #864]	@ 0x360
1000059c:	f88d 1364 	strb.w	r1, [sp, #868]	@ 0x364
100005a0:	e7be      	b.n	10000520 <main+0x2a8>
100005a2:	bf00      	nop
100005a4:	1000c11c 	.word	0x1000c11c
100005a8:	006acfc0 	.word	0x006acfc0
100005ac:	0007a11f 	.word	0x0007a11f
100005b0:	1000c190 	.word	0x1000c190
100005b4:	20001320 	.word	0x20001320
100005b8:	20001290 	.word	0x20001290
100005bc:	20001344 	.word	0x20001344
100005c0:	1000c250 	.word	0x1000c250
100005c4:	1000c210 	.word	0x1000c210
100005c8:	1000c1dc 	.word	0x1000c1dc
100005cc:	000f423f 	.word	0x000f423f
100005d0:	2306      	movs	r3, #6
100005d2:	f04f 0200 	mov.w	r2, #0
100005d6:	ec42 3040 	gpioc_bit_out_put r3, r2
100005da:	4bb2      	ldr	r3, [pc, #712]	@ (100008a4 <main+0x62c>)
100005dc:	acc9      	add	r4, sp, #804	@ 0x324
100005de:	cb0f      	ldmia	r3, {r0, r1, r2, r3}
100005e0:	c407      	stmia	r4!, {r0, r1, r2}
100005e2:	f824 3b02 	strh.w	r3, [r4], #2
100005e6:	0c1b      	lsrs	r3, r3, #16
100005e8:	7023      	strb	r3, [r4, #0]
100005ea:	e78e      	b.n	1000050a <main+0x292>
100005ec:	f002 fd5a 	bl	100030a4 <time_us_64>
100005f0:	4bad      	ldr	r3, [pc, #692]	@ (100008a8 <main+0x630>)
100005f2:	e9cd 0116 	strd	r0, r1, [sp, #88]	@ 0x58
100005f6:	e893 0003 	ldmia.w	r3, {r0, r1}
100005fa:	f8ad 12ec 	strh.w	r1, [sp, #748]	@ 0x2ec
100005fe:	0c09      	lsrs	r1, r1, #16
10000600:	90ba      	str	r0, [sp, #744]	@ 0x2e8
10000602:	f88d 12ee 	strb.w	r1, [sp, #750]	@ 0x2ee
10000606:	e775      	b.n	100004f4 <main+0x27c>
10000608:	f002 fd4c 	bl	100030a4 <time_us_64>
1000060c:	4ba7      	ldr	r3, [pc, #668]	@ (100008ac <main+0x634>)
1000060e:	e9cd 0114 	strd	r0, r1, [sp, #80]	@ 0x50
10000612:	e893 0003 	ldmia.w	r3, {r0, r1}
10000616:	f8ad 12b0 	strh.w	r1, [sp, #688]	@ 0x2b0
1000061a:	0c09      	lsrs	r1, r1, #16
1000061c:	90ab      	str	r0, [sp, #684]	@ 0x2ac
1000061e:	f88d 12b2 	strb.w	r1, [sp, #690]	@ 0x2b2
10000622:	e75c      	b.n	100004de <main+0x266>
10000624:	f002 fd3e 	bl	100030a4 <time_us_64>
10000628:	4ba1      	ldr	r3, [pc, #644]	@ (100008b0 <main+0x638>)
1000062a:	e9cd 0112 	strd	r0, r1, [sp, #72]	@ 0x48
1000062e:	e893 0003 	ldmia.w	r3, {r0, r1}
10000632:	f8ad 1274 	strh.w	r1, [sp, #628]	@ 0x274
10000636:	0c09      	lsrs	r1, r1, #16
10000638:	909c      	str	r0, [sp, #624]	@ 0x270
1000063a:	f88d 1276 	strb.w	r1, [sp, #630]	@ 0x276
1000063e:	e742      	b.n	100004c6 <main+0x24e>
10000640:	f002 fd30 	bl	100030a4 <time_us_64>
10000644:	4b9b      	ldr	r3, [pc, #620]	@ (100008b4 <main+0x63c>)
10000646:	e9cd 0110 	strd	r0, r1, [sp, #64]	@ 0x40
1000064a:	e893 0003 	ldmia.w	r3, {r0, r1}
1000064e:	f8ad 1238 	strh.w	r1, [sp, #568]	@ 0x238
10000652:	0c09      	lsrs	r1, r1, #16
10000654:	908d      	str	r0, [sp, #564]	@ 0x234
10000656:	f88d 123a 	strb.w	r1, [sp, #570]	@ 0x23a
1000065a:	e728      	b.n	100004ae <main+0x236>
1000065c:	f002 fd22 	bl	100030a4 <time_us_64>
10000660:	4b95      	ldr	r3, [pc, #596]	@ (100008b8 <main+0x640>)
10000662:	e9cd 010e 	strd	r0, r1, [sp, #56]	@ 0x38
10000666:	e893 0003 	ldmia.w	r3, {r0, r1}
1000066a:	907e      	str	r0, [sp, #504]	@ 0x1f8
1000066c:	f8ad 11fc 	strh.w	r1, [sp, #508]	@ 0x1fc
10000670:	e711      	b.n	10000496 <main+0x21e>
10000672:	f002 fd17 	bl	100030a4 <time_us_64>
10000676:	4a91      	ldr	r2, [pc, #580]	@ (100008bc <main+0x644>)
10000678:	ab51      	add	r3, sp, #324	@ 0x144
1000067a:	900c      	str	r0, [sp, #48]	@ 0x30
1000067c:	910d      	str	r1, [sp, #52]	@ 0x34
1000067e:	ca07      	ldmia	r2, {r0, r1, r2}
10000680:	c303      	stmia	r3!, {r0, r1}
10000682:	a8c9      	add	r0, sp, #804	@ 0x324
10000684:	701a      	strb	r2, [r3, #0]
10000686:	f005 f923 	bl	100058d0 <__wrap_printf>
1000068a:	a8e7      	add	r0, sp, #924	@ 0x39c
1000068c:	f005 f920 	bl	100058d0 <__wrap_printf>
10000690:	a851      	add	r0, sp, #324	@ 0x144
10000692:	f005 f91d 	bl	100058d0 <__wrap_printf>
10000696:	a842      	add	r0, sp, #264	@ 0x108
10000698:	f005 f91a 	bl	100058d0 <__wrap_printf>
1000069c:	a833      	add	r0, sp, #204	@ 0xcc
1000069e:	f005 f917 	bl	100058d0 <__wrap_printf>
100006a2:	a824      	add	r0, sp, #144	@ 0x90
100006a4:	f005 f914 	bl	100058d0 <__wrap_printf>
100006a8:	a89c      	add	r0, sp, #624	@ 0x270
100006aa:	f005 f911 	bl	100058d0 <__wrap_printf>
100006ae:	a8ab      	add	r0, sp, #684	@ 0x2ac
100006b0:	f005 f90e 	bl	100058d0 <__wrap_printf>
100006b4:	a8ba      	add	r0, sp, #744	@ 0x2e8
100006b6:	f005 f90b 	bl	100058d0 <__wrap_printf>
100006ba:	a86f      	add	r0, sp, #444	@ 0x1bc
100006bc:	f005 f908 	bl	100058d0 <__wrap_printf>
100006c0:	a860      	add	r0, sp, #384	@ 0x180
100006c2:	f005 f905 	bl	100058d0 <__wrap_printf>
100006c6:	a87e      	add	r0, sp, #504	@ 0x1f8
100006c8:	f005 f902 	bl	100058d0 <__wrap_printf>
100006cc:	a88d      	add	r0, sp, #564	@ 0x234
100006ce:	f005 f8ff 	bl	100058d0 <__wrap_printf>
100006d2:	a8d8      	add	r0, sp, #864	@ 0x360
100006d4:	f005 f8fc 	bl	100058d0 <__wrap_printf>
100006d8:	e6bb      	b.n	10000452 <main+0x1da>
100006da:	f002 fce3 	bl	100030a4 <time_us_64>
100006de:	2319      	movs	r3, #25
100006e0:	f04f 0200 	mov.w	r2, #0
100006e4:	e9cd 0106 	strd	r0, r1, [sp, #24]
100006e8:	ec42 3040 	gpioc_bit_out_put r3, r2
100006ec:	e699      	b.n	10000422 <main+0x1aa>
100006ee:	4e74      	ldr	r6, [pc, #464]	@ (100008c0 <main+0x648>)
100006f0:	4c74      	ldr	r4, [pc, #464]	@ (100008c4 <main+0x64c>)
100006f2:	f001 fb47 	bl	10001d84 <rfm96_rx_done>
100006f6:	b360      	cbz	r0, 10000752 <main+0x4da>
100006f8:	f50d 6085 	add.w	r0, sp, #1064	@ 0x428
100006fc:	f001 fc90 	bl	10002020 <rfm96_packet_from_fifo>
10000700:	f50d 6385 	add.w	r3, sp, #1064	@ 0x428
10000704:	541f      	strb	r7, [r3, r0]
10000706:	4631      	mov	r1, r6
10000708:	4618      	mov	r0, r3
1000070a:	aa20      	add	r2, sp, #128	@ 0x80
1000070c:	f006 f84c 	bl	100067a8 <scanf>
10000710:	9a20      	ldr	r2, [sp, #128]	@ 0x80
10000712:	abf6      	add	r3, sp, #984	@ 0x3d8
10000714:	f853 3022 	ldr.w	r3, [r3, r2, lsl #2]
10000718:	a9f6      	add	r1, sp, #984	@ 0x3d8
1000071a:	3301      	adds	r3, #1
1000071c:	f50d 7a75 	add.w	sl, sp, #980	@ 0x3d4
10000720:	f841 3022 	str.w	r3, [r1, r2, lsl #2]
10000724:	f85a 2f04 	ldr.w	r2, [sl, #4]!
10000728:	4621      	mov	r1, r4
1000072a:	a821      	add	r0, sp, #132	@ 0x84
1000072c:	f004 fd8a 	bl	10005244 <__wrap_sprintf>
10000730:	a86f      	add	r0, sp, #444	@ 0x1bc
10000732:	f006 fac5 	bl	10006cc0 <strlen>
10000736:	ab6f      	add	r3, sp, #444	@ 0x1bc
10000738:	a921      	add	r1, sp, #132	@ 0x84
1000073a:	4418      	add	r0, r3
1000073c:	f006 f91a 	bl	10006974 <stpcpy>
10000740:	45aa      	cmp	sl, r5
10000742:	d1ef      	bne.n	10000724 <main+0x4ac>
10000744:	f8b9 3000 	ldrh.w	r3, [r9]
10000748:	8003      	strh	r3, [r0, #0]
1000074a:	f001 fb1b 	bl	10001d84 <rfm96_rx_done>
1000074e:	2800      	cmp	r0, #0
10000750:	d1d2      	bne.n	100006f8 <main+0x480>
10000752:	4682      	mov	sl, r0
10000754:	f002 fca6 	bl	100030a4 <time_us_64>
10000758:	9b1a      	ldr	r3, [sp, #104]	@ 0x68
1000075a:	1ac0      	subs	r0, r0, r3
1000075c:	9b1b      	ldr	r3, [sp, #108]	@ 0x6c
1000075e:	eb61 0103 	sbc.w	r1, r1, r3
10000762:	4580      	cmp	r8, r0
10000764:	eb7a 0101 	sbcs.w	r1, sl, r1
10000768:	f6bf ae89 	bge.w	1000047e <main+0x206>
1000076c:	f002 fc9a 	bl	100030a4 <time_us_64>
10000770:	4a55      	ldr	r2, [pc, #340]	@ (100008c8 <main+0x650>)
10000772:	ab60      	add	r3, sp, #384	@ 0x180
10000774:	901a      	str	r0, [sp, #104]	@ 0x68
10000776:	911b      	str	r1, [sp, #108]	@ 0x6c
10000778:	ca07      	ldmia	r2, {r0, r1, r2}
1000077a:	c303      	stmia	r3!, {r0, r1}
1000077c:	801a      	strh	r2, [r3, #0]
1000077e:	2614      	movs	r6, #20
10000780:	f8df a13c 	ldr.w	sl, [pc, #316]	@ 100008c0 <main+0x648>
10000784:	f8df b160 	ldr.w	fp, [pc, #352]	@ 100008e8 <main+0x670>
10000788:	b270      	sxtb	r0, r6
1000078a:	f000 fabd 	bl	10000d08 <rfm96_set_tx_power>
1000078e:	4632      	mov	r2, r6
10000790:	4651      	mov	r1, sl
10000792:	a860      	add	r0, sp, #384	@ 0x180
10000794:	f004 fd56 	bl	10005244 <__wrap_sprintf>
10000798:	a860      	add	r0, sp, #384	@ 0x180
1000079a:	f006 fa91 	bl	10006cc0 <strlen>
1000079e:	b2c1      	uxtb	r1, r0
100007a0:	a860      	add	r0, sp, #384	@ 0x180
100007a2:	f001 faf5 	bl	10001d90 <rfm96_packet_to_fifo>
100007a6:	2003      	movs	r0, #3
100007a8:	f000 f926 	bl	100009f8 <rfm96_set_mode>
100007ac:	2005      	movs	r0, #5
100007ae:	f002 fbd5 	bl	10002f5c <sleep_ms>
100007b2:	240b      	movs	r4, #11
100007b4:	e002      	b.n	100007bc <main+0x544>
100007b6:	2064      	movs	r0, #100	@ 0x64
100007b8:	f002 fbd0 	bl	10002f5c <sleep_ms>
100007bc:	f001 fadc 	bl	10001d78 <rfm96_tx_done>
100007c0:	b108      	cbz	r0, 100007c6 <main+0x54e>
100007c2:	3c01      	subs	r4, #1
100007c4:	d1f7      	bne.n	100007b6 <main+0x53e>
100007c6:	f001 fad7 	bl	10001d78 <rfm96_tx_done>
100007ca:	b988      	cbnz	r0, 100007f0 <main+0x578>
100007cc:	3e01      	subs	r6, #1
100007ce:	d1db      	bne.n	10000788 <main+0x510>
100007d0:	4e3e      	ldr	r6, [pc, #248]	@ (100008cc <main+0x654>)
100007d2:	2005      	movs	r0, #5
100007d4:	ac60      	add	r4, sp, #384	@ 0x180
100007d6:	f000 f90f 	bl	100009f8 <rfm96_set_mode>
100007da:	ce0f      	ldmia	r6!, {r0, r1, r2, r3}
100007dc:	c40f      	stmia	r4!, {r0, r1, r2, r3}
100007de:	e896 0003 	ldmia.w	r6, {r0, r1}
100007e2:	f844 0b04 	str.w	r0, [r4], #4
100007e6:	f824 1b02 	strh.w	r1, [r4], #2
100007ea:	0c09      	lsrs	r1, r1, #16
100007ec:	7021      	strb	r1, [r4, #0]
100007ee:	e646      	b.n	1000047e <main+0x206>
100007f0:	4658      	mov	r0, fp
100007f2:	f004 ffeb 	bl	100057cc <__wrap_puts>
100007f6:	e7e9      	b.n	100007cc <main+0x554>
100007f8:	1c82      	adds	r2, r0, #2
100007fa:	f47f aead 	bne.w	10000558 <main+0x2e0>
100007fe:	e6b0      	b.n	10000562 <main+0x2ea>
10000800:	f002 fc50 	bl	100030a4 <time_us_64>
10000804:	4603      	mov	r3, r0
10000806:	f04f 0b01 	mov.w	fp, #1
1000080a:	4831      	ldr	r0, [pc, #196]	@ (100008d0 <main+0x658>)
1000080c:	e9cd 311c 	strd	r3, r1, [sp, #112]	@ 0x70
10000810:	f004 ffdc 	bl	100057cc <__wrap_puts>
10000814:	482f      	ldr	r0, [pc, #188]	@ (100008d4 <main+0x65c>)
10000816:	f004 ffd9 	bl	100057cc <__wrap_puts>
1000081a:	2100      	movs	r1, #0
1000081c:	482e      	ldr	r0, [pc, #184]	@ (100008d8 <main+0x660>)
1000081e:	f005 f857 	bl	100058d0 <__wrap_printf>
10000822:	202e      	movs	r0, #46	@ 0x2e
10000824:	f004 ff90 	bl	10005748 <__wrap_putchar>
10000828:	482c      	ldr	r0, [pc, #176]	@ (100008dc <main+0x664>)
1000082a:	f005 f851 	bl	100058d0 <__wrap_printf>
1000082e:	465e      	mov	r6, fp
10000830:	465c      	mov	r4, fp
10000832:	f8df a0b8 	ldr.w	sl, [pc, #184]	@ 100008ec <main+0x674>
10000836:	e02f      	b.n	10000898 <main+0x620>
10000838:	2b78      	cmp	r3, #120	@ 0x78
1000083a:	d030      	beq.n	1000089e <main+0x626>
1000083c:	f002 fc32 	bl	100030a4 <time_us_64>
10000840:	f242 7310 	movw	r3, #10000	@ 0x2710
10000844:	18c0      	adds	r0, r0, r3
10000846:	f141 0300 	adc.w	r3, r1, #0
1000084a:	f04f 31ff 	mov.w	r1, #4294967295
1000084e:	f06f 4200 	mvn.w	r2, #2147483648	@ 0x80000000
10000852:	4281      	cmp	r1, r0
10000854:	eb72 0c03 	sbcs.w	ip, r2, r3
10000858:	bf3c      	itt	cc
1000085a:	4608      	movcc	r0, r1
1000085c:	4613      	movcc	r3, r2
1000085e:	4659      	mov	r1, fp
10000860:	e9cd 0302 	strd	r0, r3, [sp, #8]
10000864:	9700      	str	r7, [sp, #0]
10000866:	2301      	movs	r3, #1
10000868:	481d      	ldr	r0, [pc, #116]	@ (100008e0 <main+0x668>)
1000086a:	f50d 6285 	add.w	r2, sp, #1064	@ 0x428
1000086e:	f005 fa07 	bl	10005c80 <i2c_read_blocking_until>
10000872:	2800      	cmp	r0, #0
10000874:	db13      	blt.n	1000089e <main+0x626>
10000876:	481b      	ldr	r0, [pc, #108]	@ (100008e4 <main+0x66c>)
10000878:	f005 f82a 	bl	100058d0 <__wrap_printf>
1000087c:	2e0f      	cmp	r6, #15
1000087e:	d15b      	bne.n	10000938 <main+0x6c0>
10000880:	4648      	mov	r0, r9
10000882:	3401      	adds	r4, #1
10000884:	f005 f824 	bl	100058d0 <__wrap_printf>
10000888:	2c80      	cmp	r4, #128	@ 0x80
1000088a:	f43f add6 	beq.w	1000043a <main+0x1c2>
1000088e:	f014 060f 	ands.w	r6, r4, #15
10000892:	fa5f fb84 	uxtb.w	fp, r4
10000896:	d02b      	beq.n	100008f0 <main+0x678>
10000898:	f01b 0378 	ands.w	r3, fp, #120	@ 0x78
1000089c:	d1cc      	bne.n	10000838 <main+0x5c0>
1000089e:	4650      	mov	r0, sl
100008a0:	e7ea      	b.n	10000878 <main+0x600>
100008a2:	bf00      	nop
100008a4:	1000c200 	.word	0x1000c200
100008a8:	1000c1f8 	.word	0x1000c1f8
100008ac:	1000c1f0 	.word	0x1000c1f0
100008b0:	1000c1e8 	.word	0x1000c1e8
100008b4:	1000c1e0 	.word	0x1000c1e0
100008b8:	1000c1d8 	.word	0x1000c1d8
100008bc:	1000c184 	.word	0x1000c184
100008c0:	1000c19c 	.word	0x1000c19c
100008c4:	1000c1a0 	.word	0x1000c1a0
100008c8:	1000c1a4 	.word	0x1000c1a4
100008cc:	1000c1c0 	.word	0x1000c1c0
100008d0:	1000c138 	.word	0x1000c138
100008d4:	1000c148 	.word	0x1000c148
100008d8:	1000c17c 	.word	0x1000c17c
100008dc:	1000c118 	.word	0x1000c118
100008e0:	200006ec 	.word	0x200006ec
100008e4:	1000c114 	.word	0x1000c114
100008e8:	1000c1b0 	.word	0x1000c1b0
100008ec:	1000c110 	.word	0x1000c110
100008f0:	4621      	mov	r1, r4
100008f2:	4835      	ldr	r0, [pc, #212]	@ (100009c8 <main+0x750>)
100008f4:	f004 ffec 	bl	100058d0 <__wrap_printf>
100008f8:	f002 fbd4 	bl	100030a4 <time_us_64>
100008fc:	f242 7310 	movw	r3, #10000	@ 0x2710
10000900:	f04f 32ff 	mov.w	r2, #4294967295
10000904:	18c0      	adds	r0, r0, r3
10000906:	f06f 4300 	mvn.w	r3, #2147483648	@ 0x80000000
1000090a:	f141 0100 	adc.w	r1, r1, #0
1000090e:	4282      	cmp	r2, r0
10000910:	eb73 0601 	sbcs.w	r6, r3, r1
10000914:	bf3c      	itt	cc
10000916:	4610      	movcc	r0, r2
10000918:	4619      	movcc	r1, r3
1000091a:	9700      	str	r7, [sp, #0]
1000091c:	e9cd 0102 	strd	r0, r1, [sp, #8]
10000920:	2301      	movs	r3, #1
10000922:	4659      	mov	r1, fp
10000924:	4829      	ldr	r0, [pc, #164]	@ (100009cc <main+0x754>)
10000926:	f50d 6285 	add.w	r2, sp, #1064	@ 0x428
1000092a:	f005 f9a9 	bl	10005c80 <i2c_read_blocking_until>
1000092e:	2800      	cmp	r0, #0
10000930:	db04      	blt.n	1000093c <main+0x6c4>
10000932:	2040      	movs	r0, #64	@ 0x40
10000934:	f004 ff08 	bl	10005748 <__wrap_putchar>
10000938:	4825      	ldr	r0, [pc, #148]	@ (100009d0 <main+0x758>)
1000093a:	e7a2      	b.n	10000882 <main+0x60a>
1000093c:	202e      	movs	r0, #46	@ 0x2e
1000093e:	f004 ff03 	bl	10005748 <__wrap_putchar>
10000942:	e7f9      	b.n	10000938 <main+0x6c0>
10000944:	f002 fbae 	bl	100030a4 <time_us_64>
10000948:	4a22      	ldr	r2, [pc, #136]	@ (100009d4 <main+0x75c>)
1000094a:	ab60      	add	r3, sp, #384	@ 0x180
1000094c:	901a      	str	r0, [sp, #104]	@ 0x68
1000094e:	911b      	str	r1, [sp, #108]	@ 0x6c
10000950:	ca07      	ldmia	r2, {r0, r1, r2}
10000952:	c303      	stmia	r3!, {r0, r1}
10000954:	4820      	ldr	r0, [pc, #128]	@ (100009d8 <main+0x760>)
10000956:	801a      	strh	r2, [r3, #0]
10000958:	f000 fada 	bl	10000f10 <rfm96_init>
1000095c:	9005      	str	r0, [sp, #20]
1000095e:	2800      	cmp	r0, #0
10000960:	f43f ad8d 	beq.w	1000047e <main+0x206>
10000964:	e70b      	b.n	1000077e <main+0x506>
10000966:	4a1d      	ldr	r2, [pc, #116]	@ (100009dc <main+0x764>)
10000968:	54d7      	strb	r7, [r2, r3]
1000096a:	4b1d      	ldr	r3, [pc, #116]	@ (100009e0 <main+0x768>)
1000096c:	601f      	str	r7, [r3, #0]
1000096e:	6813      	ldr	r3, [r2, #0]
10000970:	4a1c      	ldr	r2, [pc, #112]	@ (100009e4 <main+0x76c>)
10000972:	4293      	cmp	r3, r2
10000974:	d00c      	beq.n	10000990 <main+0x718>
10000976:	491c      	ldr	r1, [pc, #112]	@ (100009e8 <main+0x770>)
10000978:	4818      	ldr	r0, [pc, #96]	@ (100009dc <main+0x764>)
1000097a:	f006 f84d 	bl	10006a18 <strcmp>
1000097e:	4601      	mov	r1, r0
10000980:	2800      	cmp	r0, #0
10000982:	f47f adee 	bne.w	10000562 <main+0x2ea>
10000986:	2250      	movs	r2, #80	@ 0x50
10000988:	a8f6      	add	r0, sp, #984	@ 0x3d8
1000098a:	f005 ffa1 	bl	100068d0 <memset>
1000098e:	e5e8      	b.n	10000562 <main+0x2ea>
10000990:	4b12      	ldr	r3, [pc, #72]	@ (100009dc <main+0x764>)
10000992:	4a16      	ldr	r2, [pc, #88]	@ (100009ec <main+0x774>)
10000994:	685b      	ldr	r3, [r3, #4]
10000996:	4293      	cmp	r3, r2
10000998:	d1ed      	bne.n	10000976 <main+0x6fe>
1000099a:	4c15      	ldr	r4, [pc, #84]	@ (100009f0 <main+0x778>)
1000099c:	4e15      	ldr	r6, [pc, #84]	@ (100009f4 <main+0x77c>)
1000099e:	f04f 0c06 	mov.w	ip, #6
100009a2:	ce0f      	ldmia	r6!, {r0, r1, r2, r3}
100009a4:	c40f      	stmia	r4!, {r0, r1, r2, r3}
100009a6:	e896 0007 	ldmia.w	r6, {r0, r1, r2}
100009aa:	c403      	stmia	r4!, {r0, r1}
100009ac:	f04f 0e01 	mov.w	lr, #1
100009b0:	7022      	strb	r2, [r4, #0]
100009b2:	ec4e c040 	gpioc_bit_out_put ip, lr
100009b6:	f002 fb75 	bl	100030a4 <time_us_64>
100009ba:	e9cd 011e 	strd	r0, r1, [sp, #120]	@ 0x78
100009be:	e7da      	b.n	10000976 <main+0x6fe>
100009c0:	f002 fd80 	bl	100034c4 <hard_assertion_failure>
100009c4:	e470      	b.n	100002a8 <main+0x30>
100009c6:	bf00      	nop
100009c8:	1000c17c 	.word	0x1000c17c
100009cc:	200006ec 	.word	0x200006ec
100009d0:	1000c118 	.word	0x1000c118
100009d4:	1000c1a4 	.word	0x1000c1a4
100009d8:	20000660 	.word	0x20000660
100009dc:	20001290 	.word	0x20001290
100009e0:	20001320 	.word	0x20001320
100009e4:	4e525542 	.word	0x4e525542
100009e8:	1000c23c 	.word	0x1000c23c
100009ec:	004e4f5f 	.word	0x004e4f5f
100009f0:	20001344 	.word	0x20001344
100009f4:	1000c220 	.word	0x1000c220

100009f8 <rfm96_set_mode>:
100009f8:	e92d 47f0 	stmdb	sp!, {r4, r5, r6, r7, r8, r9, sl, lr}
100009fc:	f04f 0a00 	mov.w	sl, #0
10000a00:	b082      	sub	sp, #8
10000a02:	4681      	mov	r9, r0
10000a04:	2100      	movs	r1, #0
10000a06:	2005      	movs	r0, #5
10000a08:	f88d a006 	strb.w	sl, [sp, #6]
10000a0c:	250d      	movs	r5, #13
10000a0e:	f002 fb53 	bl	100030b8 <busy_wait_us>
10000a12:	ec4a 5040 	gpioc_bit_out_put r5, sl
10000a16:	2401      	movs	r4, #1
10000a18:	4e25      	ldr	r6, [pc, #148]	@ (10000ab0 <rfm96_set_mode+0xb8>)
10000a1a:	2005      	movs	r0, #5
10000a1c:	2100      	movs	r1, #0
10000a1e:	f002 fb4b 	bl	100030b8 <busy_wait_us>
10000a22:	4622      	mov	r2, r4
10000a24:	f10d 0107 	add.w	r1, sp, #7
10000a28:	6830      	ldr	r0, [r6, #0]
10000a2a:	f88d 4007 	strb.w	r4, [sp, #7]
10000a2e:	f00b fb47 	bl	1000c0c0 <__spi_write_blocking_veneer>
10000a32:	4651      	mov	r1, sl
10000a34:	4623      	mov	r3, r4
10000a36:	f10d 0206 	add.w	r2, sp, #6
10000a3a:	6830      	ldr	r0, [r6, #0]
10000a3c:	f00b fb3c 	bl	1000c0b8 <__spi_read_blocking_veneer>
10000a40:	2005      	movs	r0, #5
10000a42:	2100      	movs	r1, #0
10000a44:	f002 fb38 	bl	100030b8 <busy_wait_us>
10000a48:	ec44 5040 	gpioc_bit_out_put r5, r4
10000a4c:	2005      	movs	r0, #5
10000a4e:	2100      	movs	r1, #0
10000a50:	f002 fb32 	bl	100030b8 <busy_wait_us>
10000a54:	f89d 3006 	ldrb.w	r3, [sp, #6]
10000a58:	2005      	movs	r0, #5
10000a5a:	f023 0307 	bic.w	r3, r3, #7
10000a5e:	ea43 0309 	orr.w	r3, r3, r9
10000a62:	2100      	movs	r1, #0
10000a64:	f88d 3006 	strb.w	r3, [sp, #6]
10000a68:	f002 fb26 	bl	100030b8 <busy_wait_us>
10000a6c:	ec4a 5040 	gpioc_bit_out_put r5, sl
10000a70:	2005      	movs	r0, #5
10000a72:	2100      	movs	r1, #0
10000a74:	f002 fb20 	bl	100030b8 <busy_wait_us>
10000a78:	2381      	movs	r3, #129	@ 0x81
10000a7a:	4622      	mov	r2, r4
10000a7c:	f10d 0107 	add.w	r1, sp, #7
10000a80:	6830      	ldr	r0, [r6, #0]
10000a82:	f88d 3007 	strb.w	r3, [sp, #7]
10000a86:	f00b fb1b 	bl	1000c0c0 <__spi_write_blocking_veneer>
10000a8a:	4622      	mov	r2, r4
10000a8c:	f10d 0106 	add.w	r1, sp, #6
10000a90:	6830      	ldr	r0, [r6, #0]
10000a92:	f00b fb15 	bl	1000c0c0 <__spi_write_blocking_veneer>
10000a96:	2005      	movs	r0, #5
10000a98:	2100      	movs	r1, #0
10000a9a:	f002 fb0d 	bl	100030b8 <busy_wait_us>
10000a9e:	ec44 5040 	gpioc_bit_out_put r5, r4
10000aa2:	2005      	movs	r0, #5
10000aa4:	2100      	movs	r1, #0
10000aa6:	f002 fb07 	bl	100030b8 <busy_wait_us>
10000aaa:	b002      	add	sp, #8
10000aac:	e8bd 87f0 	ldmia.w	sp!, {r4, r5, r6, r7, r8, r9, sl, pc}
10000ab0:	2000066c 	.word	0x2000066c

10000ab4 <rfm96_set_bandwidth>:
10000ab4:	e92d 43f0 	stmdb	sp!, {r4, r5, r6, r7, r8, r9, lr}
10000ab8:	f641 6178 	movw	r1, #7800	@ 0x1e78
10000abc:	2400      	movs	r4, #0
10000abe:	4605      	mov	r5, r0
10000ac0:	4a8d      	ldr	r2, [pc, #564]	@ (10000cf8 <rfm96_set_bandwidth+0x244>)
10000ac2:	b083      	sub	sp, #12
10000ac4:	e005      	b.n	10000ad2 <rfm96_set_bandwidth+0x1e>
10000ac6:	b2dc      	uxtb	r4, r3
10000ac8:	f852 1024 	ldr.w	r1, [r2, r4, lsl #2]
10000acc:	2900      	cmp	r1, #0
10000ace:	f000 80bf 	beq.w	10000c50 <rfm96_set_bandwidth+0x19c>
10000ad2:	428d      	cmp	r5, r1
10000ad4:	f104 0301 	add.w	r3, r4, #1
10000ad8:	d8f5      	bhi.n	10000ac6 <rfm96_set_bandwidth+0x12>
10000ada:	4888      	ldr	r0, [pc, #544]	@ (10000cfc <rfm96_set_bandwidth+0x248>)
10000adc:	f004 fef8 	bl	100058d0 <__wrap_printf>
10000ae0:	0124      	lsls	r4, r4, #4
10000ae2:	f04f 0800 	mov.w	r8, #0
10000ae6:	2005      	movs	r0, #5
10000ae8:	2100      	movs	r1, #0
10000aea:	f88d 8006 	strb.w	r8, [sp, #6]
10000aee:	46c1      	mov	r9, r8
10000af0:	f002 fae2 	bl	100030b8 <busy_wait_us>
10000af4:	270d      	movs	r7, #13
10000af6:	ec48 7040 	gpioc_bit_out_put r7, r8
10000afa:	2005      	movs	r0, #5
10000afc:	2100      	movs	r1, #0
10000afe:	f002 fadb 	bl	100030b8 <busy_wait_us>
10000b02:	231d      	movs	r3, #29
10000b04:	4e7e      	ldr	r6, [pc, #504]	@ (10000d00 <rfm96_set_bandwidth+0x24c>)
10000b06:	f10d 0107 	add.w	r1, sp, #7
10000b0a:	2201      	movs	r2, #1
10000b0c:	6830      	ldr	r0, [r6, #0]
10000b0e:	f88d 3007 	strb.w	r3, [sp, #7]
10000b12:	f00b fad5 	bl	1000c0c0 <__spi_write_blocking_veneer>
10000b16:	2301      	movs	r3, #1
10000b18:	4641      	mov	r1, r8
10000b1a:	f10d 0206 	add.w	r2, sp, #6
10000b1e:	6830      	ldr	r0, [r6, #0]
10000b20:	f00b faca 	bl	1000c0b8 <__spi_read_blocking_veneer>
10000b24:	2005      	movs	r0, #5
10000b26:	2100      	movs	r1, #0
10000b28:	f002 fac6 	bl	100030b8 <busy_wait_us>
10000b2c:	f04f 0801 	mov.w	r8, #1
10000b30:	ec48 7040 	gpioc_bit_out_put r7, r8
10000b34:	2005      	movs	r0, #5
10000b36:	2100      	movs	r1, #0
10000b38:	f002 fabe 	bl	100030b8 <busy_wait_us>
10000b3c:	f89d 3006 	ldrb.w	r3, [sp, #6]
10000b40:	2005      	movs	r0, #5
10000b42:	f023 03f0 	bic.w	r3, r3, #240	@ 0xf0
10000b46:	4323      	orrs	r3, r4
10000b48:	2100      	movs	r1, #0
10000b4a:	f88d 3006 	strb.w	r3, [sp, #6]
10000b4e:	f002 fab3 	bl	100030b8 <busy_wait_us>
10000b52:	ec49 7040 	gpioc_bit_out_put r7, r9
10000b56:	2005      	movs	r0, #5
10000b58:	2100      	movs	r1, #0
10000b5a:	f002 faad 	bl	100030b8 <busy_wait_us>
10000b5e:	239d      	movs	r3, #157	@ 0x9d
10000b60:	f10d 0107 	add.w	r1, sp, #7
10000b64:	2201      	movs	r2, #1
10000b66:	6830      	ldr	r0, [r6, #0]
10000b68:	f88d 3007 	strb.w	r3, [sp, #7]
10000b6c:	f00b faa8 	bl	1000c0c0 <__spi_write_blocking_veneer>
10000b70:	2201      	movs	r2, #1
10000b72:	f10d 0106 	add.w	r1, sp, #6
10000b76:	6830      	ldr	r0, [r6, #0]
10000b78:	f00b faa2 	bl	1000c0c0 <__spi_write_blocking_veneer>
10000b7c:	2005      	movs	r0, #5
10000b7e:	2100      	movs	r1, #0
10000b80:	f002 fa9a 	bl	100030b8 <busy_wait_us>
10000b84:	ec48 7040 	gpioc_bit_out_put r7, r8
10000b88:	2005      	movs	r0, #5
10000b8a:	2100      	movs	r1, #0
10000b8c:	f002 fa94 	bl	100030b8 <busy_wait_us>
10000b90:	4b5c      	ldr	r3, [pc, #368]	@ (10000d04 <rfm96_set_bandwidth+0x250>)
10000b92:	429d      	cmp	r5, r3
10000b94:	d85e      	bhi.n	10000c54 <rfm96_set_bandwidth+0x1a0>
10000b96:	f641 6378 	movw	r3, #7800	@ 0x1e78
10000b9a:	429d      	cmp	r5, r3
10000b9c:	f000 80a9 	beq.w	10000cf2 <rfm96_set_bandwidth+0x23e>
10000ba0:	f24f 4323 	movw	r3, #62499	@ 0xf423
10000ba4:	429d      	cmp	r5, r3
10000ba6:	bf8c      	ite	hi
10000ba8:	2340      	movhi	r3, #64	@ 0x40
10000baa:	2344      	movls	r3, #68	@ 0x44
10000bac:	2005      	movs	r0, #5
10000bae:	2100      	movs	r1, #0
10000bb0:	f88d 3006 	strb.w	r3, [sp, #6]
10000bb4:	f002 fa80 	bl	100030b8 <busy_wait_us>
10000bb8:	ec49 7040 	gpioc_bit_out_put r7, r9
10000bbc:	2005      	movs	r0, #5
10000bbe:	2100      	movs	r1, #0
10000bc0:	f002 fa7a 	bl	100030b8 <busy_wait_us>
10000bc4:	23af      	movs	r3, #175	@ 0xaf
10000bc6:	f10d 0107 	add.w	r1, sp, #7
10000bca:	2201      	movs	r2, #1
10000bcc:	6830      	ldr	r0, [r6, #0]
10000bce:	f88d 3007 	strb.w	r3, [sp, #7]
10000bd2:	f00b fa75 	bl	1000c0c0 <__spi_write_blocking_veneer>
10000bd6:	2201      	movs	r2, #1
10000bd8:	f10d 0106 	add.w	r1, sp, #6
10000bdc:	6830      	ldr	r0, [r6, #0]
10000bde:	f00b fa6f 	bl	1000c0c0 <__spi_write_blocking_veneer>
10000be2:	2005      	movs	r0, #5
10000be4:	2100      	movs	r1, #0
10000be6:	f002 fa67 	bl	100030b8 <busy_wait_us>
10000bea:	ec48 7040 	gpioc_bit_out_put r7, r8
10000bee:	2005      	movs	r0, #5
10000bf0:	2100      	movs	r1, #0
10000bf2:	f002 fa61 	bl	100030b8 <busy_wait_us>
10000bf6:	2300      	movs	r3, #0
10000bf8:	2005      	movs	r0, #5
10000bfa:	2100      	movs	r1, #0
10000bfc:	461d      	mov	r5, r3
10000bfe:	f88d 3006 	strb.w	r3, [sp, #6]
10000c02:	240d      	movs	r4, #13
10000c04:	f002 fa58 	bl	100030b8 <busy_wait_us>
10000c08:	ec45 4040 	gpioc_bit_out_put r4, r5
10000c0c:	2005      	movs	r0, #5
10000c0e:	2100      	movs	r1, #0
10000c10:	f002 fa52 	bl	100030b8 <busy_wait_us>
10000c14:	23b0      	movs	r3, #176	@ 0xb0
10000c16:	f10d 0107 	add.w	r1, sp, #7
10000c1a:	2201      	movs	r2, #1
10000c1c:	6830      	ldr	r0, [r6, #0]
10000c1e:	f88d 3007 	strb.w	r3, [sp, #7]
10000c22:	f00b fa4d 	bl	1000c0c0 <__spi_write_blocking_veneer>
10000c26:	2201      	movs	r2, #1
10000c28:	f10d 0106 	add.w	r1, sp, #6
10000c2c:	6830      	ldr	r0, [r6, #0]
10000c2e:	f00b fa47 	bl	1000c0c0 <__spi_write_blocking_veneer>
10000c32:	2005      	movs	r0, #5
10000c34:	2100      	movs	r1, #0
10000c36:	f002 fa3f 	bl	100030b8 <busy_wait_us>
10000c3a:	f04f 0301 	mov.w	r3, #1
10000c3e:	ec43 4040 	gpioc_bit_out_put r4, r3
10000c42:	2005      	movs	r0, #5
10000c44:	2100      	movs	r1, #0
10000c46:	f002 fa37 	bl	100030b8 <busy_wait_us>
10000c4a:	b003      	add	sp, #12
10000c4c:	e8bd 83f0 	ldmia.w	sp!, {r4, r5, r6, r7, r8, r9, pc}
10000c50:	2490      	movs	r4, #144	@ 0x90
10000c52:	e746      	b.n	10000ae2 <rfm96_set_bandwidth+0x2e>
10000c54:	2302      	movs	r3, #2
10000c56:	2005      	movs	r0, #5
10000c58:	2100      	movs	r1, #0
10000c5a:	f88d 3006 	strb.w	r3, [sp, #6]
10000c5e:	f002 fa2b 	bl	100030b8 <busy_wait_us>
10000c62:	ec49 7040 	gpioc_bit_out_put r7, r9
10000c66:	2005      	movs	r0, #5
10000c68:	2100      	movs	r1, #0
10000c6a:	f002 fa25 	bl	100030b8 <busy_wait_us>
10000c6e:	23b6      	movs	r3, #182	@ 0xb6
10000c70:	f10d 0107 	add.w	r1, sp, #7
10000c74:	2201      	movs	r2, #1
10000c76:	6830      	ldr	r0, [r6, #0]
10000c78:	f88d 3007 	strb.w	r3, [sp, #7]
10000c7c:	f00b fa20 	bl	1000c0c0 <__spi_write_blocking_veneer>
10000c80:	2201      	movs	r2, #1
10000c82:	f10d 0106 	add.w	r1, sp, #6
10000c86:	6830      	ldr	r0, [r6, #0]
10000c88:	f00b fa1a 	bl	1000c0c0 <__spi_write_blocking_veneer>
10000c8c:	2005      	movs	r0, #5
10000c8e:	2100      	movs	r1, #0
10000c90:	f002 fa12 	bl	100030b8 <busy_wait_us>
10000c94:	ec48 7040 	gpioc_bit_out_put r7, r8
10000c98:	2005      	movs	r0, #5
10000c9a:	2100      	movs	r1, #0
10000c9c:	f002 fa0c 	bl	100030b8 <busy_wait_us>
10000ca0:	2364      	movs	r3, #100	@ 0x64
10000ca2:	2005      	movs	r0, #5
10000ca4:	2100      	movs	r1, #0
10000ca6:	f88d 3006 	strb.w	r3, [sp, #6]
10000caa:	f002 fa05 	bl	100030b8 <busy_wait_us>
10000cae:	ec49 7040 	gpioc_bit_out_put r7, r9
10000cb2:	2005      	movs	r0, #5
10000cb4:	2100      	movs	r1, #0
10000cb6:	f002 f9ff 	bl	100030b8 <busy_wait_us>
10000cba:	23ba      	movs	r3, #186	@ 0xba
10000cbc:	f10d 0107 	add.w	r1, sp, #7
10000cc0:	2201      	movs	r2, #1
10000cc2:	6830      	ldr	r0, [r6, #0]
10000cc4:	f88d 3007 	strb.w	r3, [sp, #7]
10000cc8:	f00b f9fa 	bl	1000c0c0 <__spi_write_blocking_veneer>
10000ccc:	2201      	movs	r2, #1
10000cce:	f10d 0106 	add.w	r1, sp, #6
10000cd2:	6830      	ldr	r0, [r6, #0]
10000cd4:	f00b f9f4 	bl	1000c0c0 <__spi_write_blocking_veneer>
10000cd8:	2005      	movs	r0, #5
10000cda:	2100      	movs	r1, #0
10000cdc:	f002 f9ec 	bl	100030b8 <busy_wait_us>
10000ce0:	ec48 7040 	gpioc_bit_out_put r7, r8
10000ce4:	2005      	movs	r0, #5
10000ce6:	2100      	movs	r1, #0
10000ce8:	f002 f9e6 	bl	100030b8 <busy_wait_us>
10000cec:	b003      	add	sp, #12
10000cee:	e8bd 83f0 	ldmia.w	sp!, {r4, r5, r6, r7, r8, r9, pc}
10000cf2:	2348      	movs	r3, #72	@ 0x48
10000cf4:	e75a      	b.n	10000bac <rfm96_set_bandwidth+0xf8>
10000cf6:	bf00      	nop
10000cf8:	1000c76c 	.word	0x1000c76c
10000cfc:	1000c2b8 	.word	0x1000c2b8
10000d00:	2000066c 	.word	0x2000066c
10000d04:	0007a11f 	.word	0x0007a11f

10000d08 <rfm96_set_tx_power>:
10000d08:	e92d 4ff0 	stmdb	sp!, {r4, r5, r6, r7, r8, r9, sl, fp, lr}
10000d0c:	4603      	mov	r3, r0
10000d0e:	2700      	movs	r7, #0
10000d10:	b085      	sub	sp, #20
10000d12:	2005      	movs	r0, #5
10000d14:	2100      	movs	r1, #0
10000d16:	9301      	str	r3, [sp, #4]
10000d18:	f88d 700e 	strb.w	r7, [sp, #14]
10000d1c:	240d      	movs	r4, #13
10000d1e:	f002 f9cb 	bl	100030b8 <busy_wait_us>
10000d22:	ec47 4040 	gpioc_bit_out_put r4, r7
10000d26:	f04f 0b09 	mov.w	fp, #9
10000d2a:	4d78      	ldr	r5, [pc, #480]	@ (10000f0c <rfm96_set_tx_power+0x204>)
10000d2c:	2005      	movs	r0, #5
10000d2e:	2100      	movs	r1, #0
10000d30:	f002 f9c2 	bl	100030b8 <busy_wait_us>
10000d34:	f10d 010f 	add.w	r1, sp, #15
10000d38:	2201      	movs	r2, #1
10000d3a:	6828      	ldr	r0, [r5, #0]
10000d3c:	f88d b00f 	strb.w	fp, [sp, #15]
10000d40:	f00b f9be 	bl	1000c0c0 <__spi_write_blocking_veneer>
10000d44:	2301      	movs	r3, #1
10000d46:	4639      	mov	r1, r7
10000d48:	f10d 020e 	add.w	r2, sp, #14
10000d4c:	6828      	ldr	r0, [r5, #0]
10000d4e:	f00b f9b3 	bl	1000c0b8 <__spi_read_blocking_veneer>
10000d52:	2005      	movs	r0, #5
10000d54:	2100      	movs	r1, #0
10000d56:	f002 f9af 	bl	100030b8 <busy_wait_us>
10000d5a:	2601      	movs	r6, #1
10000d5c:	ec46 4040 	gpioc_bit_out_put r4, r6
10000d60:	2005      	movs	r0, #5
10000d62:	2100      	movs	r1, #0
10000d64:	f002 f9a8 	bl	100030b8 <busy_wait_us>
10000d68:	f89d 300e 	ldrb.w	r3, [sp, #14]
10000d6c:	2005      	movs	r0, #5
10000d6e:	f063 037f 	orn	r3, r3, #127	@ 0x7f
10000d72:	2100      	movs	r1, #0
10000d74:	f88d 300e 	strb.w	r3, [sp, #14]
10000d78:	f002 f99e 	bl	100030b8 <busy_wait_us>
10000d7c:	ec47 4040 	gpioc_bit_out_put r4, r7
10000d80:	f04f 0a89 	mov.w	sl, #137	@ 0x89
10000d84:	2005      	movs	r0, #5
10000d86:	2100      	movs	r1, #0
10000d88:	f002 f996 	bl	100030b8 <busy_wait_us>
10000d8c:	4632      	mov	r2, r6
10000d8e:	f10d 010f 	add.w	r1, sp, #15
10000d92:	6828      	ldr	r0, [r5, #0]
10000d94:	f88d a00f 	strb.w	sl, [sp, #15]
10000d98:	f00b f992 	bl	1000c0c0 <__spi_write_blocking_veneer>
10000d9c:	4632      	mov	r2, r6
10000d9e:	f10d 010e 	add.w	r1, sp, #14
10000da2:	6828      	ldr	r0, [r5, #0]
10000da4:	f00b f98c 	bl	1000c0c0 <__spi_write_blocking_veneer>
10000da8:	2005      	movs	r0, #5
10000daa:	2100      	movs	r1, #0
10000dac:	f002 f984 	bl	100030b8 <busy_wait_us>
10000db0:	ec46 4040 	gpioc_bit_out_put r4, r6
10000db4:	2005      	movs	r0, #5
10000db6:	2100      	movs	r1, #0
10000db8:	f002 f97e 	bl	100030b8 <busy_wait_us>
10000dbc:	2005      	movs	r0, #5
10000dbe:	2100      	movs	r1, #0
10000dc0:	f88d 700e 	strb.w	r7, [sp, #14]
10000dc4:	f002 f978 	bl	100030b8 <busy_wait_us>
10000dc8:	ec47 4040 	gpioc_bit_out_put r4, r7
10000dcc:	2005      	movs	r0, #5
10000dce:	2100      	movs	r1, #0
10000dd0:	f002 f972 	bl	100030b8 <busy_wait_us>
10000dd4:	4632      	mov	r2, r6
10000dd6:	f10d 010f 	add.w	r1, sp, #15
10000dda:	6828      	ldr	r0, [r5, #0]
10000ddc:	f88d b00f 	strb.w	fp, [sp, #15]
10000de0:	f00b f96e 	bl	1000c0c0 <__spi_write_blocking_veneer>
10000de4:	4633      	mov	r3, r6
10000de6:	4639      	mov	r1, r7
10000de8:	f10d 020e 	add.w	r2, sp, #14
10000dec:	6828      	ldr	r0, [r5, #0]
10000dee:	f00b f963 	bl	1000c0b8 <__spi_read_blocking_veneer>
10000df2:	2005      	movs	r0, #5
10000df4:	2100      	movs	r1, #0
10000df6:	f002 f95f 	bl	100030b8 <busy_wait_us>
10000dfa:	ec46 4040 	gpioc_bit_out_put r4, r6
10000dfe:	2005      	movs	r0, #5
10000e00:	2100      	movs	r1, #0
10000e02:	f002 f959 	bl	100030b8 <busy_wait_us>
10000e06:	f89d 300e 	ldrb.w	r3, [sp, #14]
10000e0a:	2005      	movs	r0, #5
10000e0c:	f023 0370 	bic.w	r3, r3, #112	@ 0x70
10000e10:	f043 0370 	orr.w	r3, r3, #112	@ 0x70
10000e14:	2100      	movs	r1, #0
10000e16:	f88d 300e 	strb.w	r3, [sp, #14]
10000e1a:	f002 f94d 	bl	100030b8 <busy_wait_us>
10000e1e:	ec47 4040 	gpioc_bit_out_put r4, r7
10000e22:	2005      	movs	r0, #5
10000e24:	2100      	movs	r1, #0
10000e26:	f002 f947 	bl	100030b8 <busy_wait_us>
10000e2a:	4632      	mov	r2, r6
10000e2c:	f10d 010f 	add.w	r1, sp, #15
10000e30:	6828      	ldr	r0, [r5, #0]
10000e32:	f88d a00f 	strb.w	sl, [sp, #15]
10000e36:	f00b f943 	bl	1000c0c0 <__spi_write_blocking_veneer>
10000e3a:	4632      	mov	r2, r6
10000e3c:	f10d 010e 	add.w	r1, sp, #14
10000e40:	6828      	ldr	r0, [r5, #0]
10000e42:	f00b f93d 	bl	1000c0c0 <__spi_write_blocking_veneer>
10000e46:	2005      	movs	r0, #5
10000e48:	2100      	movs	r1, #0
10000e4a:	f002 f935 	bl	100030b8 <busy_wait_us>
10000e4e:	ec46 4040 	gpioc_bit_out_put r4, r6
10000e52:	2005      	movs	r0, #5
10000e54:	2100      	movs	r1, #0
10000e56:	f002 f92f 	bl	100030b8 <busy_wait_us>
10000e5a:	2005      	movs	r0, #5
10000e5c:	2100      	movs	r1, #0
10000e5e:	f88d 700e 	strb.w	r7, [sp, #14]
10000e62:	f002 f929 	bl	100030b8 <busy_wait_us>
10000e66:	ec47 4040 	gpioc_bit_out_put r4, r7
10000e6a:	2005      	movs	r0, #5
10000e6c:	2100      	movs	r1, #0
10000e6e:	f002 f923 	bl	100030b8 <busy_wait_us>
10000e72:	4632      	mov	r2, r6
10000e74:	f10d 010f 	add.w	r1, sp, #15
10000e78:	6828      	ldr	r0, [r5, #0]
10000e7a:	f88d b00f 	strb.w	fp, [sp, #15]
10000e7e:	f00b f91f 	bl	1000c0c0 <__spi_write_blocking_veneer>
10000e82:	4633      	mov	r3, r6
10000e84:	4639      	mov	r1, r7
10000e86:	f10d 020e 	add.w	r2, sp, #14
10000e8a:	6828      	ldr	r0, [r5, #0]
10000e8c:	f00b f914 	bl	1000c0b8 <__spi_read_blocking_veneer>
10000e90:	2005      	movs	r0, #5
10000e92:	2100      	movs	r1, #0
10000e94:	f002 f910 	bl	100030b8 <busy_wait_us>
10000e98:	ec46 4040 	gpioc_bit_out_put r4, r6
10000e9c:	2005      	movs	r0, #5
10000e9e:	2100      	movs	r1, #0
10000ea0:	f002 f90a 	bl	100030b8 <busy_wait_us>
10000ea4:	9b01      	ldr	r3, [sp, #4]
10000ea6:	f89d 200e 	ldrb.w	r2, [sp, #14]
10000eaa:	ea43 73e3 	orr.w	r3, r3, r3, asr #31
10000eae:	2b0e      	cmp	r3, #14
10000eb0:	bfa8      	it	ge
10000eb2:	230e      	movge	r3, #14
10000eb4:	f022 020f 	bic.w	r2, r2, #15
10000eb8:	4433      	add	r3, r6
10000eba:	4313      	orrs	r3, r2
10000ebc:	2005      	movs	r0, #5
10000ebe:	2100      	movs	r1, #0
10000ec0:	f88d 300e 	strb.w	r3, [sp, #14]
10000ec4:	f002 f8f8 	bl	100030b8 <busy_wait_us>
10000ec8:	ec47 4040 	gpioc_bit_out_put r4, r7
10000ecc:	2005      	movs	r0, #5
10000ece:	2100      	movs	r1, #0
10000ed0:	f002 f8f2 	bl	100030b8 <busy_wait_us>
10000ed4:	4632      	mov	r2, r6
10000ed6:	f10d 010f 	add.w	r1, sp, #15
10000eda:	6828      	ldr	r0, [r5, #0]
10000edc:	f88d a00f 	strb.w	sl, [sp, #15]
10000ee0:	f00b f8ee 	bl	1000c0c0 <__spi_write_blocking_veneer>
10000ee4:	4632      	mov	r2, r6
10000ee6:	f10d 010e 	add.w	r1, sp, #14
10000eea:	6828      	ldr	r0, [r5, #0]
10000eec:	f00b f8e8 	bl	1000c0c0 <__spi_write_blocking_veneer>
10000ef0:	2005      	movs	r0, #5
10000ef2:	2100      	movs	r1, #0
10000ef4:	f002 f8e0 	bl	100030b8 <busy_wait_us>
10000ef8:	ec46 4040 	gpioc_bit_out_put r4, r6
10000efc:	2005      	movs	r0, #5
10000efe:	2100      	movs	r1, #0
10000f00:	f002 f8da 	bl	100030b8 <busy_wait_us>
10000f04:	b005      	add	sp, #20
10000f06:	e8bd 8ff0 	ldmia.w	sp!, {r4, r5, r6, r7, r8, r9, sl, fp, pc}
10000f0a:	bf00      	nop
10000f0c:	2000066c 	.word	0x2000066c

10000f10 <rfm96_init>:
10000f10:	e92d 4ff0 	stmdb	sp!, {r4, r5, r6, r7, r8, r9, sl, fp, lr}
10000f14:	4606      	mov	r6, r0
10000f16:	b083      	sub	sp, #12
10000f18:	2015      	movs	r0, #21
10000f1a:	f001 fa7f 	bl	1000241c <gpio_init>
10000f1e:	f04f 0701 	mov.w	r7, #1
10000f22:	2315      	movs	r3, #21
10000f24:	ec47 3044 	gpioc_bit_oe_put r3, r7
10000f28:	ec47 3040 	gpioc_bit_out_put r3, r7
10000f2c:	200b      	movs	r0, #11
10000f2e:	f001 fa75 	bl	1000241c <gpio_init>
10000f32:	f04f 0800 	mov.w	r8, #0
10000f36:	240b      	movs	r4, #11
10000f38:	ec48 4044 	gpioc_bit_oe_put r4, r8
10000f3c:	4642      	mov	r2, r8
10000f3e:	4641      	mov	r1, r8
10000f40:	4620      	mov	r0, r4
10000f42:	f001 fa57 	bl	100023f4 <gpio_set_pulls>
10000f46:	ec47 4040 	gpioc_bit_out_put r4, r7
10000f4a:	200d      	movs	r0, #13
10000f4c:	f001 fa66 	bl	1000241c <gpio_init>
10000f50:	250d      	movs	r5, #13
10000f52:	ec47 5044 	gpioc_bit_oe_put r5, r7
10000f56:	4642      	mov	r2, r8
10000f58:	4641      	mov	r1, r8
10000f5a:	4628      	mov	r0, r5
10000f5c:	f001 fa4a 	bl	100023f4 <gpio_set_pulls>
10000f60:	ec47 5040 	gpioc_bit_out_put r5, r7
10000f64:	2101      	movs	r1, #1
10000f66:	200e      	movs	r0, #14
10000f68:	f001 fa26 	bl	100023b8 <gpio_set_function>
10000f6c:	2101      	movs	r1, #1
10000f6e:	200f      	movs	r0, #15
10000f70:	f001 fa22 	bl	100023b8 <gpio_set_function>
10000f74:	2101      	movs	r1, #1
10000f76:	200c      	movs	r0, #12
10000f78:	f001 fa1e 	bl	100023b8 <gpio_set_function>
10000f7c:	ec47 4044 	gpioc_bit_oe_put r4, r7
10000f80:	ec48 4040 	gpioc_bit_out_put r4, r8
10000f84:	2064      	movs	r0, #100	@ 0x64
10000f86:	2100      	movs	r1, #0
10000f88:	f001 ffd0 	bl	10002f2c <sleep_us>
10000f8c:	ec48 4044 	gpioc_bit_oe_put r4, r8
10000f90:	4cd8      	ldr	r4, [pc, #864]	@ (100012f4 <rfm96_init+0x3e4>)
10000f92:	2005      	movs	r0, #5
10000f94:	f001 ffe2 	bl	10002f5c <sleep_ms>
10000f98:	200a      	movs	r0, #10
10000f9a:	f002 f8bf 	bl	1000311c <busy_wait_ms>
10000f9e:	6820      	ldr	r0, [r4, #0]
10000fa0:	49d5      	ldr	r1, [pc, #852]	@ (100012f8 <rfm96_init+0x3e8>)
10000fa2:	60b0      	str	r0, [r6, #8]
10000fa4:	f004 fe8a 	bl	10005cbc <spi_init>
10000fa8:	6820      	ldr	r0, [r4, #0]
10000faa:	f04f 0e02 	mov.w	lr, #2
10000fae:	4603      	mov	r3, r0
10000fb0:	26c2      	movs	r6, #194	@ 0xc2
10000fb2:	f853 1f04 	ldr.w	r1, [r3, #4]!
10000fb6:	f500 5c80 	add.w	ip, r0, #4096	@ 0x1000
10000fba:	f503 5240 	add.w	r2, r3, #12288	@ 0x3000
10000fbe:	f8c2 e000 	str.w	lr, [r2]
10000fc2:	6802      	ldr	r2, [r0, #0]
10000fc4:	ea01 010e 	and.w	r1, r1, lr
10000fc8:	f082 0207 	eor.w	r2, r2, #7
10000fcc:	f503 5300 	add.w	r3, r3, #8192	@ 0x2000
10000fd0:	f002 02cf 	and.w	r2, r2, #207	@ 0xcf
10000fd4:	f8cc 2000 	str.w	r2, [ip]
10000fd8:	f88d 8005 	strb.w	r8, [sp, #5]
10000fdc:	6019      	str	r1, [r3, #0]
10000fde:	f88d 6007 	strb.w	r6, [sp, #7]
10000fe2:	ec48 5040 	gpioc_bit_out_put r5, r8
10000fe6:	2201      	movs	r2, #1
10000fe8:	f10d 0107 	add.w	r1, sp, #7
10000fec:	f00b f868 	bl	1000c0c0 <__spi_write_blocking_veneer>
10000ff0:	2301      	movs	r3, #1
10000ff2:	4641      	mov	r1, r8
10000ff4:	6820      	ldr	r0, [r4, #0]
10000ff6:	f10d 0205 	add.w	r2, sp, #5
10000ffa:	f00b f85d 	bl	1000c0b8 <__spi_read_blocking_veneer>
10000ffe:	ec47 5040 	gpioc_bit_out_put r5, r7
10001002:	4abe      	ldr	r2, [pc, #760]	@ (100012fc <rfm96_init+0x3ec>)
10001004:	4bbe      	ldr	r3, [pc, #760]	@ (10001300 <rfm96_init+0x3f0>)
10001006:	2801      	cmp	r0, #1
10001008:	bf14      	ite	ne
1000100a:	4610      	movne	r0, r2
1000100c:	4618      	moveq	r0, r3
1000100e:	f004 fc5f 	bl	100058d0 <__wrap_printf>
10001012:	4bbc      	ldr	r3, [pc, #752]	@ (10001304 <rfm96_init+0x3f4>)
10001014:	f89d 1005 	ldrb.w	r1, [sp, #5]
10001018:	48bb      	ldr	r0, [pc, #748]	@ (10001308 <rfm96_init+0x3f8>)
1000101a:	2911      	cmp	r1, #17
1000101c:	bf18      	it	ne
1000101e:	4618      	movne	r0, r3
10001020:	f004 fc56 	bl	100058d0 <__wrap_printf>
10001024:	2014      	movs	r0, #20
10001026:	f001 f9f9 	bl	1000241c <gpio_init>
1000102a:	2014      	movs	r0, #20
1000102c:	ec48 0044 	gpioc_bit_oe_put r0, r8
10001030:	2201      	movs	r2, #1
10001032:	4641      	mov	r1, r8
10001034:	f001 f9de 	bl	100023f4 <gpio_set_pulls>
10001038:	2005      	movs	r0, #5
1000103a:	2100      	movs	r1, #0
1000103c:	f88d 8006 	strb.w	r8, [sp, #6]
10001040:	f002 f83a 	bl	100030b8 <busy_wait_us>
10001044:	ec48 5040 	gpioc_bit_out_put r5, r8
10001048:	2005      	movs	r0, #5
1000104a:	2100      	movs	r1, #0
1000104c:	f002 f834 	bl	100030b8 <busy_wait_us>
10001050:	23c0      	movs	r3, #192	@ 0xc0
10001052:	f10d 0107 	add.w	r1, sp, #7
10001056:	2201      	movs	r2, #1
10001058:	6820      	ldr	r0, [r4, #0]
1000105a:	f88d 3007 	strb.w	r3, [sp, #7]
1000105e:	f00b f82f 	bl	1000c0c0 <__spi_write_blocking_veneer>
10001062:	2201      	movs	r2, #1
10001064:	f10d 0106 	add.w	r1, sp, #6
10001068:	6820      	ldr	r0, [r4, #0]
1000106a:	f00b f829 	bl	1000c0c0 <__spi_write_blocking_veneer>
1000106e:	2005      	movs	r0, #5
10001070:	2100      	movs	r1, #0
10001072:	f002 f821 	bl	100030b8 <busy_wait_us>
10001076:	2601      	movs	r6, #1
10001078:	ec47 5040 	gpioc_bit_out_put r5, r7
1000107c:	2100      	movs	r1, #0
1000107e:	2005      	movs	r0, #5
10001080:	f002 f81a 	bl	100030b8 <busy_wait_us>
10001084:	4630      	mov	r0, r6
10001086:	f7ff fcb7 	bl	100009f8 <rfm96_set_mode>
1000108a:	200a      	movs	r0, #10
1000108c:	f001 ff66 	bl	10002f5c <sleep_ms>
10001090:	2005      	movs	r0, #5
10001092:	2100      	movs	r1, #0
10001094:	f88d 8006 	strb.w	r8, [sp, #6]
10001098:	f002 f80e 	bl	100030b8 <busy_wait_us>
1000109c:	ec48 5040 	gpioc_bit_out_put r5, r8
100010a0:	2005      	movs	r0, #5
100010a2:	2100      	movs	r1, #0
100010a4:	f002 f808 	bl	100030b8 <busy_wait_us>
100010a8:	2324      	movs	r3, #36	@ 0x24
100010aa:	4632      	mov	r2, r6
100010ac:	f10d 0107 	add.w	r1, sp, #7
100010b0:	6820      	ldr	r0, [r4, #0]
100010b2:	f88d 3007 	strb.w	r3, [sp, #7]
100010b6:	f00b f803 	bl	1000c0c0 <__spi_write_blocking_veneer>
100010ba:	4633      	mov	r3, r6
100010bc:	4641      	mov	r1, r8
100010be:	f10d 0206 	add.w	r2, sp, #6
100010c2:	6820      	ldr	r0, [r4, #0]
100010c4:	f00a fff8 	bl	1000c0b8 <__spi_read_blocking_veneer>
100010c8:	2005      	movs	r0, #5
100010ca:	2100      	movs	r1, #0
100010cc:	f001 fff4 	bl	100030b8 <busy_wait_us>
100010d0:	ec47 5040 	gpioc_bit_out_put r5, r7
100010d4:	2005      	movs	r0, #5
100010d6:	2100      	movs	r1, #0
100010d8:	f001 ffee 	bl	100030b8 <busy_wait_us>
100010dc:	f89d 3006 	ldrb.w	r3, [sp, #6]
100010e0:	2005      	movs	r0, #5
100010e2:	f043 0308 	orr.w	r3, r3, #8
100010e6:	2100      	movs	r1, #0
100010e8:	f88d 3006 	strb.w	r3, [sp, #6]
100010ec:	f001 ffe4 	bl	100030b8 <busy_wait_us>
100010f0:	ec48 5040 	gpioc_bit_out_put r5, r8
100010f4:	f04f 0aa4 	mov.w	sl, #164	@ 0xa4
100010f8:	2005      	movs	r0, #5
100010fa:	2100      	movs	r1, #0
100010fc:	f001 ffdc 	bl	100030b8 <busy_wait_us>
10001100:	4632      	mov	r2, r6
10001102:	f10d 0107 	add.w	r1, sp, #7
10001106:	6820      	ldr	r0, [r4, #0]
10001108:	f88d a007 	strb.w	sl, [sp, #7]
1000110c:	f00a ffd8 	bl	1000c0c0 <__spi_write_blocking_veneer>
10001110:	4632      	mov	r2, r6
10001112:	f10d 0106 	add.w	r1, sp, #6
10001116:	6820      	ldr	r0, [r4, #0]
10001118:	f00a ffd2 	bl	1000c0c0 <__spi_write_blocking_veneer>
1000111c:	2005      	movs	r0, #5
1000111e:	2100      	movs	r1, #0
10001120:	f001 ffca 	bl	100030b8 <busy_wait_us>
10001124:	ec47 5040 	gpioc_bit_out_put r5, r7
10001128:	2100      	movs	r1, #0
1000112a:	2005      	movs	r0, #5
1000112c:	f001 ffc4 	bl	100030b8 <busy_wait_us>
10001130:	f44f 707a 	mov.w	r0, #1000	@ 0x3e8
10001134:	f001 ff12 	bl	10002f5c <sleep_ms>
10001138:	4640      	mov	r0, r8
1000113a:	f7ff fc5d 	bl	100009f8 <rfm96_set_mode>
1000113e:	200a      	movs	r0, #10
10001140:	f001 ff0c 	bl	10002f5c <sleep_ms>
10001144:	2005      	movs	r0, #5
10001146:	2100      	movs	r1, #0
10001148:	f88d 8006 	strb.w	r8, [sp, #6]
1000114c:	f001 ffb4 	bl	100030b8 <busy_wait_us>
10001150:	ec48 5040 	gpioc_bit_out_put r5, r8
10001154:	2005      	movs	r0, #5
10001156:	2100      	movs	r1, #0
10001158:	f001 ffae 	bl	100030b8 <busy_wait_us>
1000115c:	4632      	mov	r2, r6
1000115e:	f10d 0107 	add.w	r1, sp, #7
10001162:	6820      	ldr	r0, [r4, #0]
10001164:	f88d 6007 	strb.w	r6, [sp, #7]
10001168:	f00a ffaa 	bl	1000c0c0 <__spi_write_blocking_veneer>
1000116c:	4633      	mov	r3, r6
1000116e:	4641      	mov	r1, r8
10001170:	f10d 0206 	add.w	r2, sp, #6
10001174:	6820      	ldr	r0, [r4, #0]
10001176:	f00a ff9f 	bl	1000c0b8 <__spi_read_blocking_veneer>
1000117a:	2005      	movs	r0, #5
1000117c:	2100      	movs	r1, #0
1000117e:	f001 ff9b 	bl	100030b8 <busy_wait_us>
10001182:	ec47 5040 	gpioc_bit_out_put r5, r7
10001186:	2005      	movs	r0, #5
10001188:	2100      	movs	r1, #0
1000118a:	f001 ff95 	bl	100030b8 <busy_wait_us>
1000118e:	f89d 3006 	ldrb.w	r3, [sp, #6]
10001192:	2005      	movs	r0, #5
10001194:	f063 037f 	orn	r3, r3, #127	@ 0x7f
10001198:	2100      	movs	r1, #0
1000119a:	f88d 3006 	strb.w	r3, [sp, #6]
1000119e:	f001 ff8b 	bl	100030b8 <busy_wait_us>
100011a2:	ec48 5040 	gpioc_bit_out_put r5, r8
100011a6:	2005      	movs	r0, #5
100011a8:	2100      	movs	r1, #0
100011aa:	f001 ff85 	bl	100030b8 <busy_wait_us>
100011ae:	2381      	movs	r3, #129	@ 0x81
100011b0:	4632      	mov	r2, r6
100011b2:	f10d 0107 	add.w	r1, sp, #7
100011b6:	6820      	ldr	r0, [r4, #0]
100011b8:	f88d 3007 	strb.w	r3, [sp, #7]
100011bc:	f00a ff80 	bl	1000c0c0 <__spi_write_blocking_veneer>
100011c0:	4632      	mov	r2, r6
100011c2:	f10d 0106 	add.w	r1, sp, #6
100011c6:	6820      	ldr	r0, [r4, #0]
100011c8:	f00a ff7a 	bl	1000c0c0 <__spi_write_blocking_veneer>
100011cc:	2005      	movs	r0, #5
100011ce:	2100      	movs	r1, #0
100011d0:	f001 ff72 	bl	100030b8 <busy_wait_us>
100011d4:	ec47 5040 	gpioc_bit_out_put r5, r7
100011d8:	2005      	movs	r0, #5
100011da:	2100      	movs	r1, #0
100011dc:	f001 ff6c 	bl	100030b8 <busy_wait_us>
100011e0:	2005      	movs	r0, #5
100011e2:	2100      	movs	r1, #0
100011e4:	f88d 8006 	strb.w	r8, [sp, #6]
100011e8:	f001 ff66 	bl	100030b8 <busy_wait_us>
100011ec:	ec48 5040 	gpioc_bit_out_put r5, r8
100011f0:	2005      	movs	r0, #5
100011f2:	2100      	movs	r1, #0
100011f4:	f001 ff60 	bl	100030b8 <busy_wait_us>
100011f8:	238e      	movs	r3, #142	@ 0x8e
100011fa:	4632      	mov	r2, r6
100011fc:	f10d 0107 	add.w	r1, sp, #7
10001200:	6820      	ldr	r0, [r4, #0]
10001202:	f88d 3007 	strb.w	r3, [sp, #7]
10001206:	f00a ff5b 	bl	1000c0c0 <__spi_write_blocking_veneer>
1000120a:	4632      	mov	r2, r6
1000120c:	f10d 0106 	add.w	r1, sp, #6
10001210:	6820      	ldr	r0, [r4, #0]
10001212:	f00a ff55 	bl	1000c0c0 <__spi_write_blocking_veneer>
10001216:	2005      	movs	r0, #5
10001218:	2100      	movs	r1, #0
1000121a:	f001 ff4d 	bl	100030b8 <busy_wait_us>
1000121e:	ec47 5040 	gpioc_bit_out_put r5, r7
10001222:	2005      	movs	r0, #5
10001224:	2100      	movs	r1, #0
10001226:	f001 ff47 	bl	100030b8 <busy_wait_us>
1000122a:	2005      	movs	r0, #5
1000122c:	2100      	movs	r1, #0
1000122e:	f88d 8006 	strb.w	r8, [sp, #6]
10001232:	f001 ff41 	bl	100030b8 <busy_wait_us>
10001236:	ec48 5040 	gpioc_bit_out_put r5, r8
1000123a:	f04f 0b8f 	mov.w	fp, #143	@ 0x8f
1000123e:	2005      	movs	r0, #5
10001240:	2100      	movs	r1, #0
10001242:	f001 ff39 	bl	100030b8 <busy_wait_us>
10001246:	4632      	mov	r2, r6
10001248:	f10d 0107 	add.w	r1, sp, #7
1000124c:	6820      	ldr	r0, [r4, #0]
1000124e:	f88d b007 	strb.w	fp, [sp, #7]
10001252:	f00a ff35 	bl	1000c0c0 <__spi_write_blocking_veneer>
10001256:	4632      	mov	r2, r6
10001258:	f10d 0106 	add.w	r1, sp, #6
1000125c:	6820      	ldr	r0, [r4, #0]
1000125e:	f00a ff2f 	bl	1000c0c0 <__spi_write_blocking_veneer>
10001262:	2005      	movs	r0, #5
10001264:	2100      	movs	r1, #0
10001266:	f001 ff27 	bl	100030b8 <busy_wait_us>
1000126a:	ec47 5040 	gpioc_bit_out_put r5, r7
1000126e:	2005      	movs	r0, #5
10001270:	2100      	movs	r1, #0
10001272:	f001 ff21 	bl	100030b8 <busy_wait_us>
10001276:	2005      	movs	r0, #5
10001278:	2100      	movs	r1, #0
1000127a:	f88d 8006 	strb.w	r8, [sp, #6]
1000127e:	f001 ff1b 	bl	100030b8 <busy_wait_us>
10001282:	ec48 5040 	gpioc_bit_out_put r5, r8
10001286:	2005      	movs	r0, #5
10001288:	2100      	movs	r1, #0
1000128a:	f001 ff15 	bl	100030b8 <busy_wait_us>
1000128e:	4632      	mov	r2, r6
10001290:	f10d 0107 	add.w	r1, sp, #7
10001294:	6820      	ldr	r0, [r4, #0]
10001296:	f88d a007 	strb.w	sl, [sp, #7]
1000129a:	f00a ff11 	bl	1000c0c0 <__spi_write_blocking_veneer>
1000129e:	4632      	mov	r2, r6
100012a0:	f10d 0106 	add.w	r1, sp, #6
100012a4:	6820      	ldr	r0, [r4, #0]
100012a6:	f00a ff0b 	bl	1000c0c0 <__spi_write_blocking_veneer>
100012aa:	2005      	movs	r0, #5
100012ac:	2100      	movs	r1, #0
100012ae:	f001 ff03 	bl	100030b8 <busy_wait_us>
100012b2:	ec47 5040 	gpioc_bit_out_put r5, r7
100012b6:	2005      	movs	r0, #5
100012b8:	2100      	movs	r1, #0
100012ba:	f001 fefd 	bl	100030b8 <busy_wait_us>
100012be:	236d      	movs	r3, #109	@ 0x6d
100012c0:	2005      	movs	r0, #5
100012c2:	2100      	movs	r1, #0
100012c4:	f88d 3006 	strb.w	r3, [sp, #6]
100012c8:	f001 fef6 	bl	100030b8 <busy_wait_us>
100012cc:	ec48 5040 	gpioc_bit_out_put r5, r8
100012d0:	2005      	movs	r0, #5
100012d2:	2100      	movs	r1, #0
100012d4:	f001 fef0 	bl	100030b8 <busy_wait_us>
100012d8:	2386      	movs	r3, #134	@ 0x86
100012da:	4632      	mov	r2, r6
100012dc:	f10d 0107 	add.w	r1, sp, #7
100012e0:	6820      	ldr	r0, [r4, #0]
100012e2:	f88d 3007 	strb.w	r3, [sp, #7]
100012e6:	f00a feeb 	bl	1000c0c0 <__spi_write_blocking_veneer>
100012ea:	4632      	mov	r2, r6
100012ec:	f10d 0106 	add.w	r1, sp, #6
100012f0:	6820      	ldr	r0, [r4, #0]
100012f2:	e00b      	b.n	1000130c <rfm96_init+0x3fc>
100012f4:	2000066c 	.word	0x2000066c
100012f8:	000f4240 	.word	0x000f4240
100012fc:	1000c2f8 	.word	0x1000c2f8
10001300:	1000c2dc 	.word	0x1000c2dc
10001304:	1000c314 	.word	0x1000c314
10001308:	1000c334 	.word	0x1000c334
1000130c:	f00a fed8 	bl	1000c0c0 <__spi_write_blocking_veneer>
10001310:	2005      	movs	r0, #5
10001312:	2100      	movs	r1, #0
10001314:	f001 fed0 	bl	100030b8 <busy_wait_us>
10001318:	ec47 5040 	gpioc_bit_out_put r5, r7
1000131c:	2005      	movs	r0, #5
1000131e:	2100      	movs	r1, #0
10001320:	f001 feca 	bl	100030b8 <busy_wait_us>
10001324:	2396      	movs	r3, #150	@ 0x96
10001326:	2005      	movs	r0, #5
10001328:	2100      	movs	r1, #0
1000132a:	f88d 3006 	strb.w	r3, [sp, #6]
1000132e:	f001 fec3 	bl	100030b8 <busy_wait_us>
10001332:	ec48 5040 	gpioc_bit_out_put r5, r8
10001336:	2005      	movs	r0, #5
10001338:	2100      	movs	r1, #0
1000133a:	f001 febd 	bl	100030b8 <busy_wait_us>
1000133e:	2387      	movs	r3, #135	@ 0x87
10001340:	4632      	mov	r2, r6
10001342:	f10d 0107 	add.w	r1, sp, #7
10001346:	6820      	ldr	r0, [r4, #0]
10001348:	f88d 3007 	strb.w	r3, [sp, #7]
1000134c:	f00a feb8 	bl	1000c0c0 <__spi_write_blocking_veneer>
10001350:	4632      	mov	r2, r6
10001352:	f10d 0106 	add.w	r1, sp, #6
10001356:	6820      	ldr	r0, [r4, #0]
10001358:	f00a feb2 	bl	1000c0c0 <__spi_write_blocking_veneer>
1000135c:	2005      	movs	r0, #5
1000135e:	2100      	movs	r1, #0
10001360:	f001 feaa 	bl	100030b8 <busy_wait_us>
10001364:	ec47 5040 	gpioc_bit_out_put r5, r7
10001368:	2005      	movs	r0, #5
1000136a:	2100      	movs	r1, #0
1000136c:	f001 fea4 	bl	100030b8 <busy_wait_us>
10001370:	2005      	movs	r0, #5
10001372:	2100      	movs	r1, #0
10001374:	f88d b006 	strb.w	fp, [sp, #6]
10001378:	f001 fe9e 	bl	100030b8 <busy_wait_us>
1000137c:	ec48 5040 	gpioc_bit_out_put r5, r8
10001380:	2005      	movs	r0, #5
10001382:	2100      	movs	r1, #0
10001384:	f001 fe98 	bl	100030b8 <busy_wait_us>
10001388:	2388      	movs	r3, #136	@ 0x88
1000138a:	4632      	mov	r2, r6
1000138c:	f10d 0107 	add.w	r1, sp, #7
10001390:	6820      	ldr	r0, [r4, #0]
10001392:	f88d 3007 	strb.w	r3, [sp, #7]
10001396:	f00a fe93 	bl	1000c0c0 <__spi_write_blocking_veneer>
1000139a:	4632      	mov	r2, r6
1000139c:	f10d 0106 	add.w	r1, sp, #6
100013a0:	6820      	ldr	r0, [r4, #0]
100013a2:	f00a fe8d 	bl	1000c0c0 <__spi_write_blocking_veneer>
100013a6:	2005      	movs	r0, #5
100013a8:	2100      	movs	r1, #0
100013aa:	f001 fe85 	bl	100030b8 <busy_wait_us>
100013ae:	ec47 5040 	gpioc_bit_out_put r5, r7
100013b2:	2005      	movs	r0, #5
100013b4:	2100      	movs	r1, #0
100013b6:	f001 fe7f 	bl	100030b8 <busy_wait_us>
100013ba:	49b5      	ldr	r1, [pc, #724]	@ (10001690 <rfm96_init+0x780>)
100013bc:	48b5      	ldr	r0, [pc, #724]	@ (10001694 <rfm96_init+0x784>)
100013be:	f004 fa87 	bl	100058d0 <__wrap_printf>
100013c2:	2005      	movs	r0, #5
100013c4:	2100      	movs	r1, #0
100013c6:	f88d 8006 	strb.w	r8, [sp, #6]
100013ca:	f001 fe75 	bl	100030b8 <busy_wait_us>
100013ce:	ec48 5040 	gpioc_bit_out_put r5, r8
100013d2:	2005      	movs	r0, #5
100013d4:	2100      	movs	r1, #0
100013d6:	f001 fe6f 	bl	100030b8 <busy_wait_us>
100013da:	23a0      	movs	r3, #160	@ 0xa0
100013dc:	4632      	mov	r2, r6
100013de:	f10d 0107 	add.w	r1, sp, #7
100013e2:	6820      	ldr	r0, [r4, #0]
100013e4:	f88d 3007 	strb.w	r3, [sp, #7]
100013e8:	f00a fe6a 	bl	1000c0c0 <__spi_write_blocking_veneer>
100013ec:	4632      	mov	r2, r6
100013ee:	f10d 0106 	add.w	r1, sp, #6
100013f2:	6820      	ldr	r0, [r4, #0]
100013f4:	f00a fe64 	bl	1000c0c0 <__spi_write_blocking_veneer>
100013f8:	2005      	movs	r0, #5
100013fa:	2100      	movs	r1, #0
100013fc:	f001 fe5c 	bl	100030b8 <busy_wait_us>
10001400:	ec47 5040 	gpioc_bit_out_put r5, r7
10001404:	2005      	movs	r0, #5
10001406:	2100      	movs	r1, #0
10001408:	f001 fe56 	bl	100030b8 <busy_wait_us>
1000140c:	2308      	movs	r3, #8
1000140e:	2005      	movs	r0, #5
10001410:	2100      	movs	r1, #0
10001412:	f88d 3006 	strb.w	r3, [sp, #6]
10001416:	f001 fe4f 	bl	100030b8 <busy_wait_us>
1000141a:	ec48 5040 	gpioc_bit_out_put r5, r8
1000141e:	2005      	movs	r0, #5
10001420:	2100      	movs	r1, #0
10001422:	f001 fe49 	bl	100030b8 <busy_wait_us>
10001426:	23a1      	movs	r3, #161	@ 0xa1
10001428:	4632      	mov	r2, r6
1000142a:	f10d 0107 	add.w	r1, sp, #7
1000142e:	6820      	ldr	r0, [r4, #0]
10001430:	f88d 3007 	strb.w	r3, [sp, #7]
10001434:	f00a fe44 	bl	1000c0c0 <__spi_write_blocking_veneer>
10001438:	4632      	mov	r2, r6
1000143a:	f10d 0106 	add.w	r1, sp, #6
1000143e:	6820      	ldr	r0, [r4, #0]
10001440:	f00a fe3e 	bl	1000c0c0 <__spi_write_blocking_veneer>
10001444:	2005      	movs	r0, #5
10001446:	2100      	movs	r1, #0
10001448:	f001 fe36 	bl	100030b8 <busy_wait_us>
1000144c:	ec47 5040 	gpioc_bit_out_put r5, r7
10001450:	2005      	movs	r0, #5
10001452:	2100      	movs	r1, #0
10001454:	f001 fe30 	bl	100030b8 <busy_wait_us>
10001458:	2005      	movs	r0, #5
1000145a:	2100      	movs	r1, #0
1000145c:	f88d 8006 	strb.w	r8, [sp, #6]
10001460:	f001 fe2a 	bl	100030b8 <busy_wait_us>
10001464:	ec48 5040 	gpioc_bit_out_put r5, r8
10001468:	2005      	movs	r0, #5
1000146a:	2100      	movs	r1, #0
1000146c:	f001 fe24 	bl	100030b8 <busy_wait_us>
10001470:	2320      	movs	r3, #32
10001472:	4632      	mov	r2, r6
10001474:	f10d 0107 	add.w	r1, sp, #7
10001478:	6820      	ldr	r0, [r4, #0]
1000147a:	f88d 3007 	strb.w	r3, [sp, #7]
1000147e:	f00a fe1f 	bl	1000c0c0 <__spi_write_blocking_veneer>
10001482:	4633      	mov	r3, r6
10001484:	4641      	mov	r1, r8
10001486:	f10d 0206 	add.w	r2, sp, #6
1000148a:	6820      	ldr	r0, [r4, #0]
1000148c:	f00a fe14 	bl	1000c0b8 <__spi_read_blocking_veneer>
10001490:	2005      	movs	r0, #5
10001492:	2100      	movs	r1, #0
10001494:	f001 fe10 	bl	100030b8 <busy_wait_us>
10001498:	ec47 5040 	gpioc_bit_out_put r5, r7
1000149c:	2005      	movs	r0, #5
1000149e:	2100      	movs	r1, #0
100014a0:	f001 fe0a 	bl	100030b8 <busy_wait_us>
100014a4:	2005      	movs	r0, #5
100014a6:	2100      	movs	r1, #0
100014a8:	f89d a006 	ldrb.w	sl, [sp, #6]
100014ac:	f88d 8006 	strb.w	r8, [sp, #6]
100014b0:	f001 fe02 	bl	100030b8 <busy_wait_us>
100014b4:	ec48 5040 	gpioc_bit_out_put r5, r8
100014b8:	2005      	movs	r0, #5
100014ba:	2100      	movs	r1, #0
100014bc:	f001 fdfc 	bl	100030b8 <busy_wait_us>
100014c0:	2321      	movs	r3, #33	@ 0x21
100014c2:	4632      	mov	r2, r6
100014c4:	f10d 0107 	add.w	r1, sp, #7
100014c8:	6820      	ldr	r0, [r4, #0]
100014ca:	f88d 3007 	strb.w	r3, [sp, #7]
100014ce:	f00a fdf7 	bl	1000c0c0 <__spi_write_blocking_veneer>
100014d2:	4633      	mov	r3, r6
100014d4:	4641      	mov	r1, r8
100014d6:	f10d 0206 	add.w	r2, sp, #6
100014da:	6820      	ldr	r0, [r4, #0]
100014dc:	f00a fdec 	bl	1000c0b8 <__spi_read_blocking_veneer>
100014e0:	2005      	movs	r0, #5
100014e2:	2100      	movs	r1, #0
100014e4:	f001 fde8 	bl	100030b8 <busy_wait_us>
100014e8:	ec47 5040 	gpioc_bit_out_put r5, r7
100014ec:	2005      	movs	r0, #5
100014ee:	2100      	movs	r1, #0
100014f0:	f001 fde2 	bl	100030b8 <busy_wait_us>
100014f4:	f89d 3006 	ldrb.w	r3, [sp, #6]
100014f8:	ea43 230a 	orr.w	r3, r3, sl, lsl #8
100014fc:	2b08      	cmp	r3, #8
100014fe:	d002      	beq.n	10001506 <rfm96_init+0x5f6>
10001500:	4865      	ldr	r0, [pc, #404]	@ (10001698 <rfm96_init+0x788>)
10001502:	f004 f9e5 	bl	100058d0 <__wrap_printf>
10001506:	2500      	movs	r5, #0
10001508:	4f64      	ldr	r7, [pc, #400]	@ (1000169c <rfm96_init+0x78c>)
1000150a:	260d      	movs	r6, #13
1000150c:	4638      	mov	r0, r7
1000150e:	f7ff fad1 	bl	10000ab4 <rfm96_set_bandwidth>
10001512:	2005      	movs	r0, #5
10001514:	2100      	movs	r1, #0
10001516:	f88d 5006 	strb.w	r5, [sp, #6]
1000151a:	f001 fdcd 	bl	100030b8 <busy_wait_us>
1000151e:	ec45 6040 	gpioc_bit_out_put r6, r5
10001522:	2005      	movs	r0, #5
10001524:	2100      	movs	r1, #0
10001526:	f001 fdc7 	bl	100030b8 <busy_wait_us>
1000152a:	231d      	movs	r3, #29
1000152c:	f10d 0107 	add.w	r1, sp, #7
10001530:	2201      	movs	r2, #1
10001532:	6820      	ldr	r0, [r4, #0]
10001534:	f88d 3007 	strb.w	r3, [sp, #7]
10001538:	f00a fdc2 	bl	1000c0c0 <__spi_write_blocking_veneer>
1000153c:	2301      	movs	r3, #1
1000153e:	4629      	mov	r1, r5
10001540:	f10d 0206 	add.w	r2, sp, #6
10001544:	6820      	ldr	r0, [r4, #0]
10001546:	f00a fdb7 	bl	1000c0b8 <__spi_read_blocking_veneer>
1000154a:	2005      	movs	r0, #5
1000154c:	2100      	movs	r1, #0
1000154e:	f001 fdb3 	bl	100030b8 <busy_wait_us>
10001552:	f04f 0301 	mov.w	r3, #1
10001556:	ec43 6040 	gpioc_bit_out_put r6, r3
1000155a:	2005      	movs	r0, #5
1000155c:	2100      	movs	r1, #0
1000155e:	f001 fdab 	bl	100030b8 <busy_wait_us>
10001562:	f89d 3006 	ldrb.w	r3, [sp, #6]
10001566:	2b8f      	cmp	r3, #143	@ 0x8f
10001568:	ea4f 1213 	mov.w	r2, r3, lsr #4
1000156c:	f200 83f2 	bhi.w	10001d54 <rfm96_init+0xe44>
10001570:	4b4b      	ldr	r3, [pc, #300]	@ (100016a0 <rfm96_init+0x790>)
10001572:	f853 3022 	ldr.w	r3, [r3, r2, lsl #2]
10001576:	42bb      	cmp	r3, r7
10001578:	f040 83ec 	bne.w	10001d54 <rfm96_init+0xe44>
1000157c:	2600      	movs	r6, #0
1000157e:	2105      	movs	r1, #5
10001580:	4848      	ldr	r0, [pc, #288]	@ (100016a4 <rfm96_init+0x794>)
10001582:	f004 f9a5 	bl	100058d0 <__wrap_printf>
10001586:	2005      	movs	r0, #5
10001588:	2100      	movs	r1, #0
1000158a:	f88d 6006 	strb.w	r6, [sp, #6]
1000158e:	250d      	movs	r5, #13
10001590:	f001 fd92 	bl	100030b8 <busy_wait_us>
10001594:	ec46 5040 	gpioc_bit_out_put r5, r6
10001598:	f04f 091d 	mov.w	r9, #29
1000159c:	2005      	movs	r0, #5
1000159e:	2100      	movs	r1, #0
100015a0:	f001 fd8a 	bl	100030b8 <busy_wait_us>
100015a4:	f10d 0107 	add.w	r1, sp, #7
100015a8:	2201      	movs	r2, #1
100015aa:	6820      	ldr	r0, [r4, #0]
100015ac:	f88d 9007 	strb.w	r9, [sp, #7]
100015b0:	f00a fd86 	bl	1000c0c0 <__spi_write_blocking_veneer>
100015b4:	2301      	movs	r3, #1
100015b6:	4631      	mov	r1, r6
100015b8:	f10d 0206 	add.w	r2, sp, #6
100015bc:	6820      	ldr	r0, [r4, #0]
100015be:	f00a fd7b 	bl	1000c0b8 <__spi_read_blocking_veneer>
100015c2:	2005      	movs	r0, #5
100015c4:	2100      	movs	r1, #0
100015c6:	f001 fd77 	bl	100030b8 <busy_wait_us>
100015ca:	f04f 0701 	mov.w	r7, #1
100015ce:	ec47 5040 	gpioc_bit_out_put r5, r7
100015d2:	2005      	movs	r0, #5
100015d4:	2100      	movs	r1, #0
100015d6:	f001 fd6f 	bl	100030b8 <busy_wait_us>
100015da:	f89d 3006 	ldrb.w	r3, [sp, #6]
100015de:	2005      	movs	r0, #5
100015e0:	f023 030e 	bic.w	r3, r3, #14
100015e4:	f043 0302 	orr.w	r3, r3, #2
100015e8:	2100      	movs	r1, #0
100015ea:	f88d 3006 	strb.w	r3, [sp, #6]
100015ee:	f001 fd63 	bl	100030b8 <busy_wait_us>
100015f2:	ec46 5040 	gpioc_bit_out_put r5, r6
100015f6:	2005      	movs	r0, #5
100015f8:	2100      	movs	r1, #0
100015fa:	f001 fd5d 	bl	100030b8 <busy_wait_us>
100015fe:	239d      	movs	r3, #157	@ 0x9d
10001600:	f10d 0107 	add.w	r1, sp, #7
10001604:	2201      	movs	r2, #1
10001606:	6820      	ldr	r0, [r4, #0]
10001608:	f88d 3007 	strb.w	r3, [sp, #7]
1000160c:	f00a fd58 	bl	1000c0c0 <__spi_write_blocking_veneer>
10001610:	2201      	movs	r2, #1
10001612:	f10d 0106 	add.w	r1, sp, #6
10001616:	6820      	ldr	r0, [r4, #0]
10001618:	f00a fd52 	bl	1000c0c0 <__spi_write_blocking_veneer>
1000161c:	2005      	movs	r0, #5
1000161e:	2100      	movs	r1, #0
10001620:	f001 fd4a 	bl	100030b8 <busy_wait_us>
10001624:	ec47 5040 	gpioc_bit_out_put r5, r7
10001628:	2005      	movs	r0, #5
1000162a:	2100      	movs	r1, #0
1000162c:	f001 fd44 	bl	100030b8 <busy_wait_us>
10001630:	2005      	movs	r0, #5
10001632:	2100      	movs	r1, #0
10001634:	f88d 6006 	strb.w	r6, [sp, #6]
10001638:	f001 fd3e 	bl	100030b8 <busy_wait_us>
1000163c:	ec46 5040 	gpioc_bit_out_put r5, r6
10001640:	2005      	movs	r0, #5
10001642:	2100      	movs	r1, #0
10001644:	f001 fd38 	bl	100030b8 <busy_wait_us>
10001648:	f10d 0107 	add.w	r1, sp, #7
1000164c:	2201      	movs	r2, #1
1000164e:	6820      	ldr	r0, [r4, #0]
10001650:	f88d 9007 	strb.w	r9, [sp, #7]
10001654:	f00a fd34 	bl	1000c0c0 <__spi_write_blocking_veneer>
10001658:	2301      	movs	r3, #1
1000165a:	4631      	mov	r1, r6
1000165c:	f10d 0206 	add.w	r2, sp, #6
10001660:	6820      	ldr	r0, [r4, #0]
10001662:	f00a fd29 	bl	1000c0b8 <__spi_read_blocking_veneer>
10001666:	2005      	movs	r0, #5
10001668:	2100      	movs	r1, #0
1000166a:	f001 fd25 	bl	100030b8 <busy_wait_us>
1000166e:	ec47 5040 	gpioc_bit_out_put r5, r7
10001672:	2005      	movs	r0, #5
10001674:	2100      	movs	r1, #0
10001676:	f001 fd1f 	bl	100030b8 <busy_wait_us>
1000167a:	f89d 3006 	ldrb.w	r3, [sp, #6]
1000167e:	f003 030e 	and.w	r3, r3, #14
10001682:	2b02      	cmp	r3, #2
10001684:	d012      	beq.n	100016ac <rfm96_init+0x79c>
10001686:	4808      	ldr	r0, [pc, #32]	@ (100016a8 <rfm96_init+0x798>)
10001688:	f004 f922 	bl	100058d0 <__wrap_printf>
1000168c:	e00e      	b.n	100016ac <rfm96_init+0x79c>
1000168e:	bf00      	nop
10001690:	1a1ce020 	.word	0x1a1ce020
10001694:	1000c278 	.word	0x1000c278
10001698:	1000c364 	.word	0x1000c364
1000169c:	0001e848 	.word	0x0001e848
100016a0:	1000c76c 	.word	0x1000c76c
100016a4:	1000c298 	.word	0x1000c298
100016a8:	1000c3d4 	.word	0x1000c3d4
100016ac:	2600      	movs	r6, #0
100016ae:	2005      	movs	r0, #5
100016b0:	2100      	movs	r1, #0
100016b2:	f88d 6006 	strb.w	r6, [sp, #6]
100016b6:	250d      	movs	r5, #13
100016b8:	f001 fcfe 	bl	100030b8 <busy_wait_us>
100016bc:	ec46 5040 	gpioc_bit_out_put r5, r6
100016c0:	f04f 091e 	mov.w	r9, #30
100016c4:	2005      	movs	r0, #5
100016c6:	2100      	movs	r1, #0
100016c8:	f001 fcf6 	bl	100030b8 <busy_wait_us>
100016cc:	f10d 0107 	add.w	r1, sp, #7
100016d0:	2201      	movs	r2, #1
100016d2:	6820      	ldr	r0, [r4, #0]
100016d4:	f88d 9007 	strb.w	r9, [sp, #7]
100016d8:	f00a fcf2 	bl	1000c0c0 <__spi_write_blocking_veneer>
100016dc:	2301      	movs	r3, #1
100016de:	4631      	mov	r1, r6
100016e0:	f10d 0206 	add.w	r2, sp, #6
100016e4:	6820      	ldr	r0, [r4, #0]
100016e6:	f00a fce7 	bl	1000c0b8 <__spi_read_blocking_veneer>
100016ea:	2005      	movs	r0, #5
100016ec:	2100      	movs	r1, #0
100016ee:	f001 fce3 	bl	100030b8 <busy_wait_us>
100016f2:	f04f 0701 	mov.w	r7, #1
100016f6:	ec47 5040 	gpioc_bit_out_put r5, r7
100016fa:	2005      	movs	r0, #5
100016fc:	2100      	movs	r1, #0
100016fe:	f001 fcdb 	bl	100030b8 <busy_wait_us>
10001702:	f89d 3006 	ldrb.w	r3, [sp, #6]
10001706:	2005      	movs	r0, #5
10001708:	f023 03f0 	bic.w	r3, r3, #240	@ 0xf0
1000170c:	f043 0370 	orr.w	r3, r3, #112	@ 0x70
10001710:	2100      	movs	r1, #0
10001712:	f88d 3006 	strb.w	r3, [sp, #6]
10001716:	f001 fccf 	bl	100030b8 <busy_wait_us>
1000171a:	ec46 5040 	gpioc_bit_out_put r5, r6
1000171e:	2005      	movs	r0, #5
10001720:	2100      	movs	r1, #0
10001722:	f001 fcc9 	bl	100030b8 <busy_wait_us>
10001726:	239e      	movs	r3, #158	@ 0x9e
10001728:	f10d 0107 	add.w	r1, sp, #7
1000172c:	2201      	movs	r2, #1
1000172e:	6820      	ldr	r0, [r4, #0]
10001730:	f88d 3007 	strb.w	r3, [sp, #7]
10001734:	f00a fcc4 	bl	1000c0c0 <__spi_write_blocking_veneer>
10001738:	2201      	movs	r2, #1
1000173a:	f10d 0106 	add.w	r1, sp, #6
1000173e:	6820      	ldr	r0, [r4, #0]
10001740:	f00a fcbe 	bl	1000c0c0 <__spi_write_blocking_veneer>
10001744:	2005      	movs	r0, #5
10001746:	2100      	movs	r1, #0
10001748:	f001 fcb6 	bl	100030b8 <busy_wait_us>
1000174c:	ec47 5040 	gpioc_bit_out_put r5, r7
10001750:	2005      	movs	r0, #5
10001752:	2100      	movs	r1, #0
10001754:	f001 fcb0 	bl	100030b8 <busy_wait_us>
10001758:	2005      	movs	r0, #5
1000175a:	2100      	movs	r1, #0
1000175c:	f88d 6006 	strb.w	r6, [sp, #6]
10001760:	f001 fcaa 	bl	100030b8 <busy_wait_us>
10001764:	ec46 5040 	gpioc_bit_out_put r5, r6
10001768:	2005      	movs	r0, #5
1000176a:	2100      	movs	r1, #0
1000176c:	f001 fca4 	bl	100030b8 <busy_wait_us>
10001770:	f10d 0107 	add.w	r1, sp, #7
10001774:	2201      	movs	r2, #1
10001776:	6820      	ldr	r0, [r4, #0]
10001778:	f88d 9007 	strb.w	r9, [sp, #7]
1000177c:	f00a fca0 	bl	1000c0c0 <__spi_write_blocking_veneer>
10001780:	2301      	movs	r3, #1
10001782:	4631      	mov	r1, r6
10001784:	f10d 0206 	add.w	r2, sp, #6
10001788:	6820      	ldr	r0, [r4, #0]
1000178a:	f00a fc95 	bl	1000c0b8 <__spi_read_blocking_veneer>
1000178e:	2005      	movs	r0, #5
10001790:	2100      	movs	r1, #0
10001792:	f001 fc91 	bl	100030b8 <busy_wait_us>
10001796:	ec47 5040 	gpioc_bit_out_put r5, r7
1000179a:	2005      	movs	r0, #5
1000179c:	2100      	movs	r1, #0
1000179e:	f001 fc8b 	bl	100030b8 <busy_wait_us>
100017a2:	f89d 3006 	ldrb.w	r3, [sp, #6]
100017a6:	091b      	lsrs	r3, r3, #4
100017a8:	2b07      	cmp	r3, #7
100017aa:	d002      	beq.n	100017b2 <rfm96_init+0x8a2>
100017ac:	4841      	ldr	r0, [pc, #260]	@ (100018b4 <rfm96_init+0x9a4>)
100017ae:	f004 f88f 	bl	100058d0 <__wrap_printf>
100017b2:	2600      	movs	r6, #0
100017b4:	2005      	movs	r0, #5
100017b6:	2100      	movs	r1, #0
100017b8:	f88d 6006 	strb.w	r6, [sp, #6]
100017bc:	250d      	movs	r5, #13
100017be:	f001 fc7b 	bl	100030b8 <busy_wait_us>
100017c2:	ec46 5040 	gpioc_bit_out_put r5, r6
100017c6:	f04f 091e 	mov.w	r9, #30
100017ca:	2005      	movs	r0, #5
100017cc:	2100      	movs	r1, #0
100017ce:	f001 fc73 	bl	100030b8 <busy_wait_us>
100017d2:	f10d 0107 	add.w	r1, sp, #7
100017d6:	2201      	movs	r2, #1
100017d8:	6820      	ldr	r0, [r4, #0]
100017da:	f88d 9007 	strb.w	r9, [sp, #7]
100017de:	f00a fc6f 	bl	1000c0c0 <__spi_write_blocking_veneer>
100017e2:	2301      	movs	r3, #1
100017e4:	4631      	mov	r1, r6
100017e6:	f10d 0206 	add.w	r2, sp, #6
100017ea:	6820      	ldr	r0, [r4, #0]
100017ec:	f00a fc64 	bl	1000c0b8 <__spi_read_blocking_veneer>
100017f0:	2005      	movs	r0, #5
100017f2:	2100      	movs	r1, #0
100017f4:	f001 fc60 	bl	100030b8 <busy_wait_us>
100017f8:	f04f 0701 	mov.w	r7, #1
100017fc:	ec47 5040 	gpioc_bit_out_put r5, r7
10001800:	2005      	movs	r0, #5
10001802:	2100      	movs	r1, #0
10001804:	f001 fc58 	bl	100030b8 <busy_wait_us>
10001808:	f89d 3006 	ldrb.w	r3, [sp, #6]
1000180c:	2005      	movs	r0, #5
1000180e:	f043 0304 	orr.w	r3, r3, #4
10001812:	2100      	movs	r1, #0
10001814:	f88d 3006 	strb.w	r3, [sp, #6]
10001818:	f001 fc4e 	bl	100030b8 <busy_wait_us>
1000181c:	ec46 5040 	gpioc_bit_out_put r5, r6
10001820:	2005      	movs	r0, #5
10001822:	2100      	movs	r1, #0
10001824:	f001 fc48 	bl	100030b8 <busy_wait_us>
10001828:	239e      	movs	r3, #158	@ 0x9e
1000182a:	f10d 0107 	add.w	r1, sp, #7
1000182e:	2201      	movs	r2, #1
10001830:	6820      	ldr	r0, [r4, #0]
10001832:	f88d 3007 	strb.w	r3, [sp, #7]
10001836:	f00a fc43 	bl	1000c0c0 <__spi_write_blocking_veneer>
1000183a:	2201      	movs	r2, #1
1000183c:	f10d 0106 	add.w	r1, sp, #6
10001840:	6820      	ldr	r0, [r4, #0]
10001842:	f00a fc3d 	bl	1000c0c0 <__spi_write_blocking_veneer>
10001846:	2005      	movs	r0, #5
10001848:	2100      	movs	r1, #0
1000184a:	f001 fc35 	bl	100030b8 <busy_wait_us>
1000184e:	ec47 5040 	gpioc_bit_out_put r5, r7
10001852:	2005      	movs	r0, #5
10001854:	2100      	movs	r1, #0
10001856:	f001 fc2f 	bl	100030b8 <busy_wait_us>
1000185a:	2005      	movs	r0, #5
1000185c:	2100      	movs	r1, #0
1000185e:	f88d 6006 	strb.w	r6, [sp, #6]
10001862:	f001 fc29 	bl	100030b8 <busy_wait_us>
10001866:	ec46 5040 	gpioc_bit_out_put r5, r6
1000186a:	2005      	movs	r0, #5
1000186c:	2100      	movs	r1, #0
1000186e:	f001 fc23 	bl	100030b8 <busy_wait_us>
10001872:	f10d 0107 	add.w	r1, sp, #7
10001876:	2201      	movs	r2, #1
10001878:	6820      	ldr	r0, [r4, #0]
1000187a:	f88d 9007 	strb.w	r9, [sp, #7]
1000187e:	f00a fc1f 	bl	1000c0c0 <__spi_write_blocking_veneer>
10001882:	2301      	movs	r3, #1
10001884:	4631      	mov	r1, r6
10001886:	f10d 0206 	add.w	r2, sp, #6
1000188a:	6820      	ldr	r0, [r4, #0]
1000188c:	f00a fc14 	bl	1000c0b8 <__spi_read_blocking_veneer>
10001890:	2005      	movs	r0, #5
10001892:	2100      	movs	r1, #0
10001894:	f001 fc10 	bl	100030b8 <busy_wait_us>
10001898:	ec47 5040 	gpioc_bit_out_put r5, r7
1000189c:	2005      	movs	r0, #5
1000189e:	2100      	movs	r1, #0
100018a0:	f001 fc0a 	bl	100030b8 <busy_wait_us>
100018a4:	f89d 3006 	ldrb.w	r3, [sp, #6]
100018a8:	075a      	lsls	r2, r3, #29
100018aa:	d407      	bmi.n	100018bc <rfm96_init+0x9ac>
100018ac:	4802      	ldr	r0, [pc, #8]	@ (100018b8 <rfm96_init+0x9a8>)
100018ae:	f004 f80f 	bl	100058d0 <__wrap_printf>
100018b2:	e003      	b.n	100018bc <rfm96_init+0x9ac>
100018b4:	1000c404 	.word	0x1000c404
100018b8:	1000c438 	.word	0x1000c438
100018bc:	2600      	movs	r6, #0
100018be:	2005      	movs	r0, #5
100018c0:	2100      	movs	r1, #0
100018c2:	f88d 6006 	strb.w	r6, [sp, #6]
100018c6:	250d      	movs	r5, #13
100018c8:	f001 fbf6 	bl	100030b8 <busy_wait_us>
100018cc:	ec46 5040 	gpioc_bit_out_put r5, r6
100018d0:	2005      	movs	r0, #5
100018d2:	2100      	movs	r1, #0
100018d4:	f001 fbf0 	bl	100030b8 <busy_wait_us>
100018d8:	23a6      	movs	r3, #166	@ 0xa6
100018da:	f10d 0107 	add.w	r1, sp, #7
100018de:	2201      	movs	r2, #1
100018e0:	6820      	ldr	r0, [r4, #0]
100018e2:	f88d 3007 	strb.w	r3, [sp, #7]
100018e6:	f00a fbeb 	bl	1000c0c0 <__spi_write_blocking_veneer>
100018ea:	2201      	movs	r2, #1
100018ec:	f10d 0106 	add.w	r1, sp, #6
100018f0:	6820      	ldr	r0, [r4, #0]
100018f2:	f00a fbe5 	bl	1000c0c0 <__spi_write_blocking_veneer>
100018f6:	2005      	movs	r0, #5
100018f8:	2100      	movs	r1, #0
100018fa:	f001 fbdd 	bl	100030b8 <busy_wait_us>
100018fe:	f04f 0701 	mov.w	r7, #1
10001902:	ec47 5040 	gpioc_bit_out_put r5, r7
10001906:	2005      	movs	r0, #5
10001908:	2100      	movs	r1, #0
1000190a:	f001 fbd5 	bl	100030b8 <busy_wait_us>
1000190e:	2005      	movs	r0, #5
10001910:	2100      	movs	r1, #0
10001912:	f88d 6006 	strb.w	r6, [sp, #6]
10001916:	f001 fbcf 	bl	100030b8 <busy_wait_us>
1000191a:	ec46 5040 	gpioc_bit_out_put r5, r6
1000191e:	f04f 0909 	mov.w	r9, #9
10001922:	2005      	movs	r0, #5
10001924:	2100      	movs	r1, #0
10001926:	f001 fbc7 	bl	100030b8 <busy_wait_us>
1000192a:	f10d 0107 	add.w	r1, sp, #7
1000192e:	2201      	movs	r2, #1
10001930:	6820      	ldr	r0, [r4, #0]
10001932:	f88d 9007 	strb.w	r9, [sp, #7]
10001936:	f00a fbc3 	bl	1000c0c0 <__spi_write_blocking_veneer>
1000193a:	2301      	movs	r3, #1
1000193c:	4631      	mov	r1, r6
1000193e:	f10d 0206 	add.w	r2, sp, #6
10001942:	6820      	ldr	r0, [r4, #0]
10001944:	f00a fbb8 	bl	1000c0b8 <__spi_read_blocking_veneer>
10001948:	2005      	movs	r0, #5
1000194a:	2100      	movs	r1, #0
1000194c:	f001 fbb4 	bl	100030b8 <busy_wait_us>
10001950:	ec47 5040 	gpioc_bit_out_put r5, r7
10001954:	2005      	movs	r0, #5
10001956:	2100      	movs	r1, #0
10001958:	f001 fbae 	bl	100030b8 <busy_wait_us>
1000195c:	f89d 3006 	ldrb.w	r3, [sp, #6]
10001960:	2005      	movs	r0, #5
10001962:	f063 037f 	orn	r3, r3, #127	@ 0x7f
10001966:	2100      	movs	r1, #0
10001968:	f88d 3006 	strb.w	r3, [sp, #6]
1000196c:	f001 fba4 	bl	100030b8 <busy_wait_us>
10001970:	ec46 5040 	gpioc_bit_out_put r5, r6
10001974:	f04f 0a89 	mov.w	sl, #137	@ 0x89
10001978:	2005      	movs	r0, #5
1000197a:	2100      	movs	r1, #0
1000197c:	f001 fb9c 	bl	100030b8 <busy_wait_us>
10001980:	f10d 0107 	add.w	r1, sp, #7
10001984:	2201      	movs	r2, #1
10001986:	6820      	ldr	r0, [r4, #0]
10001988:	f88d a007 	strb.w	sl, [sp, #7]
1000198c:	f00a fb98 	bl	1000c0c0 <__spi_write_blocking_veneer>
10001990:	2201      	movs	r2, #1
10001992:	f10d 0106 	add.w	r1, sp, #6
10001996:	6820      	ldr	r0, [r4, #0]
10001998:	f00a fb92 	bl	1000c0c0 <__spi_write_blocking_veneer>
1000199c:	2005      	movs	r0, #5
1000199e:	2100      	movs	r1, #0
100019a0:	f001 fb8a 	bl	100030b8 <busy_wait_us>
100019a4:	ec47 5040 	gpioc_bit_out_put r5, r7
100019a8:	2005      	movs	r0, #5
100019aa:	2100      	movs	r1, #0
100019ac:	f001 fb84 	bl	100030b8 <busy_wait_us>
100019b0:	2005      	movs	r0, #5
100019b2:	2100      	movs	r1, #0
100019b4:	f88d 6006 	strb.w	r6, [sp, #6]
100019b8:	f001 fb7e 	bl	100030b8 <busy_wait_us>
100019bc:	ec46 5040 	gpioc_bit_out_put r5, r6
100019c0:	2005      	movs	r0, #5
100019c2:	2100      	movs	r1, #0
100019c4:	f001 fb78 	bl	100030b8 <busy_wait_us>
100019c8:	f10d 0107 	add.w	r1, sp, #7
100019cc:	2201      	movs	r2, #1
100019ce:	6820      	ldr	r0, [r4, #0]
100019d0:	f88d 9007 	strb.w	r9, [sp, #7]
100019d4:	f00a fb74 	bl	1000c0c0 <__spi_write_blocking_veneer>
100019d8:	2301      	movs	r3, #1
100019da:	4631      	mov	r1, r6
100019dc:	f10d 0206 	add.w	r2, sp, #6
100019e0:	6820      	ldr	r0, [r4, #0]
100019e2:	f00a fb69 	bl	1000c0b8 <__spi_read_blocking_veneer>
100019e6:	2005      	movs	r0, #5
100019e8:	2100      	movs	r1, #0
100019ea:	f001 fb65 	bl	100030b8 <busy_wait_us>
100019ee:	ec47 5040 	gpioc_bit_out_put r5, r7
100019f2:	2005      	movs	r0, #5
100019f4:	2100      	movs	r1, #0
100019f6:	f001 fb5f 	bl	100030b8 <busy_wait_us>
100019fa:	f89d 3006 	ldrb.w	r3, [sp, #6]
100019fe:	2005      	movs	r0, #5
10001a00:	f023 0370 	bic.w	r3, r3, #112	@ 0x70
10001a04:	f043 0370 	orr.w	r3, r3, #112	@ 0x70
10001a08:	2100      	movs	r1, #0
10001a0a:	f88d 3006 	strb.w	r3, [sp, #6]
10001a0e:	f001 fb53 	bl	100030b8 <busy_wait_us>
10001a12:	ec46 5040 	gpioc_bit_out_put r5, r6
10001a16:	2005      	movs	r0, #5
10001a18:	2100      	movs	r1, #0
10001a1a:	f001 fb4d 	bl	100030b8 <busy_wait_us>
10001a1e:	f10d 0107 	add.w	r1, sp, #7
10001a22:	2201      	movs	r2, #1
10001a24:	6820      	ldr	r0, [r4, #0]
10001a26:	f88d a007 	strb.w	sl, [sp, #7]
10001a2a:	f00a fb49 	bl	1000c0c0 <__spi_write_blocking_veneer>
10001a2e:	2201      	movs	r2, #1
10001a30:	f10d 0106 	add.w	r1, sp, #6
10001a34:	6820      	ldr	r0, [r4, #0]
10001a36:	f00a fb43 	bl	1000c0c0 <__spi_write_blocking_veneer>
10001a3a:	2005      	movs	r0, #5
10001a3c:	2100      	movs	r1, #0
10001a3e:	f001 fb3b 	bl	100030b8 <busy_wait_us>
10001a42:	ec47 5040 	gpioc_bit_out_put r5, r7
10001a46:	2005      	movs	r0, #5
10001a48:	2100      	movs	r1, #0
10001a4a:	f001 fb35 	bl	100030b8 <busy_wait_us>
10001a4e:	2005      	movs	r0, #5
10001a50:	2100      	movs	r1, #0
10001a52:	f88d 6006 	strb.w	r6, [sp, #6]
10001a56:	f001 fb2f 	bl	100030b8 <busy_wait_us>
10001a5a:	ec46 5040 	gpioc_bit_out_put r5, r6
10001a5e:	2005      	movs	r0, #5
10001a60:	2100      	movs	r1, #0
10001a62:	f001 fb29 	bl	100030b8 <busy_wait_us>
10001a66:	f10d 0107 	add.w	r1, sp, #7
10001a6a:	2201      	movs	r2, #1
10001a6c:	6820      	ldr	r0, [r4, #0]
10001a6e:	f88d 9007 	strb.w	r9, [sp, #7]
10001a72:	f00a fb25 	bl	1000c0c0 <__spi_write_blocking_veneer>
10001a76:	2301      	movs	r3, #1
10001a78:	4631      	mov	r1, r6
10001a7a:	f10d 0206 	add.w	r2, sp, #6
10001a7e:	6820      	ldr	r0, [r4, #0]
10001a80:	f00a fb1a 	bl	1000c0b8 <__spi_read_blocking_veneer>
10001a84:	2005      	movs	r0, #5
10001a86:	2100      	movs	r1, #0
10001a88:	f001 fb16 	bl	100030b8 <busy_wait_us>
10001a8c:	ec47 5040 	gpioc_bit_out_put r5, r7
10001a90:	2005      	movs	r0, #5
10001a92:	2100      	movs	r1, #0
10001a94:	f001 fb10 	bl	100030b8 <busy_wait_us>
10001a98:	f89d 3006 	ldrb.w	r3, [sp, #6]
10001a9c:	2005      	movs	r0, #5
10001a9e:	f023 030f 	bic.w	r3, r3, #15
10001aa2:	f043 030f 	orr.w	r3, r3, #15
10001aa6:	2100      	movs	r1, #0
10001aa8:	f88d 3006 	strb.w	r3, [sp, #6]
10001aac:	f001 fb04 	bl	100030b8 <busy_wait_us>
10001ab0:	ec46 5040 	gpioc_bit_out_put r5, r6
10001ab4:	2005      	movs	r0, #5
10001ab6:	2100      	movs	r1, #0
10001ab8:	f001 fafe 	bl	100030b8 <busy_wait_us>
10001abc:	f10d 0107 	add.w	r1, sp, #7
10001ac0:	2201      	movs	r2, #1
10001ac2:	6820      	ldr	r0, [r4, #0]
10001ac4:	f88d a007 	strb.w	sl, [sp, #7]
10001ac8:	f00a fafa 	bl	1000c0c0 <__spi_write_blocking_veneer>
10001acc:	2201      	movs	r2, #1
10001ace:	f10d 0106 	add.w	r1, sp, #6
10001ad2:	6820      	ldr	r0, [r4, #0]
10001ad4:	f00a faf4 	bl	1000c0c0 <__spi_write_blocking_veneer>
10001ad8:	2005      	movs	r0, #5
10001ada:	2100      	movs	r1, #0
10001adc:	f001 faec 	bl	100030b8 <busy_wait_us>
10001ae0:	ec47 5040 	gpioc_bit_out_put r5, r7
10001ae4:	2005      	movs	r0, #5
10001ae6:	2100      	movs	r1, #0
10001ae8:	f001 fae6 	bl	100030b8 <busy_wait_us>
10001aec:	2005      	movs	r0, #5
10001aee:	2100      	movs	r1, #0
10001af0:	f88d 6006 	strb.w	r6, [sp, #6]
10001af4:	f001 fae0 	bl	100030b8 <busy_wait_us>
10001af8:	ec46 5040 	gpioc_bit_out_put r5, r6
10001afc:	2005      	movs	r0, #5
10001afe:	2100      	movs	r1, #0
10001b00:	f001 fada 	bl	100030b8 <busy_wait_us>
10001b04:	f10d 0107 	add.w	r1, sp, #7
10001b08:	2201      	movs	r2, #1
10001b0a:	6820      	ldr	r0, [r4, #0]
10001b0c:	f88d 9007 	strb.w	r9, [sp, #7]
10001b10:	f00a fad6 	bl	1000c0c0 <__spi_write_blocking_veneer>
10001b14:	2301      	movs	r3, #1
10001b16:	4631      	mov	r1, r6
10001b18:	f10d 0206 	add.w	r2, sp, #6
10001b1c:	6820      	ldr	r0, [r4, #0]
10001b1e:	f00a facb 	bl	1000c0b8 <__spi_read_blocking_veneer>
10001b22:	2005      	movs	r0, #5
10001b24:	2100      	movs	r1, #0
10001b26:	f001 fac7 	bl	100030b8 <busy_wait_us>
10001b2a:	ec47 5040 	gpioc_bit_out_put r5, r7
10001b2e:	2100      	movs	r1, #0
10001b30:	2005      	movs	r0, #5
10001b32:	f001 fac1 	bl	100030b8 <busy_wait_us>
10001b36:	488b      	ldr	r0, [pc, #556]	@ (10001d64 <rfm96_init+0xe54>)
10001b38:	f003 feca 	bl	100058d0 <__wrap_printf>
10001b3c:	2005      	movs	r0, #5
10001b3e:	2100      	movs	r1, #0
10001b40:	f88d 6006 	strb.w	r6, [sp, #6]
10001b44:	f001 fab8 	bl	100030b8 <busy_wait_us>
10001b48:	ec46 5040 	gpioc_bit_out_put r5, r6
10001b4c:	f04f 090a 	mov.w	r9, #10
10001b50:	2005      	movs	r0, #5
10001b52:	2100      	movs	r1, #0
10001b54:	f001 fab0 	bl	100030b8 <busy_wait_us>
10001b58:	f10d 0107 	add.w	r1, sp, #7
10001b5c:	2201      	movs	r2, #1
10001b5e:	6820      	ldr	r0, [r4, #0]
10001b60:	f88d 9007 	strb.w	r9, [sp, #7]
10001b64:	f00a faac 	bl	1000c0c0 <__spi_write_blocking_veneer>
10001b68:	2301      	movs	r3, #1
10001b6a:	4631      	mov	r1, r6
10001b6c:	f10d 0206 	add.w	r2, sp, #6
10001b70:	6820      	ldr	r0, [r4, #0]
10001b72:	f00a faa1 	bl	1000c0b8 <__spi_read_blocking_veneer>
10001b76:	2005      	movs	r0, #5
10001b78:	2100      	movs	r1, #0
10001b7a:	f001 fa9d 	bl	100030b8 <busy_wait_us>
10001b7e:	ec47 5040 	gpioc_bit_out_put r5, r7
10001b82:	2005      	movs	r0, #5
10001b84:	2100      	movs	r1, #0
10001b86:	f001 fa97 	bl	100030b8 <busy_wait_us>
10001b8a:	f89d 3006 	ldrb.w	r3, [sp, #6]
10001b8e:	2005      	movs	r0, #5
10001b90:	f023 030f 	bic.w	r3, r3, #15
10001b94:	2100      	movs	r1, #0
10001b96:	f88d 3006 	strb.w	r3, [sp, #6]
10001b9a:	f001 fa8d 	bl	100030b8 <busy_wait_us>
10001b9e:	ec46 5040 	gpioc_bit_out_put r5, r6
10001ba2:	2005      	movs	r0, #5
10001ba4:	2100      	movs	r1, #0
10001ba6:	f001 fa87 	bl	100030b8 <busy_wait_us>
10001baa:	238a      	movs	r3, #138	@ 0x8a
10001bac:	f10d 0107 	add.w	r1, sp, #7
10001bb0:	2201      	movs	r2, #1
10001bb2:	6820      	ldr	r0, [r4, #0]
10001bb4:	f88d 3007 	strb.w	r3, [sp, #7]
10001bb8:	f00a fa82 	bl	1000c0c0 <__spi_write_blocking_veneer>
10001bbc:	2201      	movs	r2, #1
10001bbe:	f10d 0106 	add.w	r1, sp, #6
10001bc2:	6820      	ldr	r0, [r4, #0]
10001bc4:	f00a fa7c 	bl	1000c0c0 <__spi_write_blocking_veneer>
10001bc8:	2005      	movs	r0, #5
10001bca:	2100      	movs	r1, #0
10001bcc:	f001 fa74 	bl	100030b8 <busy_wait_us>
10001bd0:	ec47 5040 	gpioc_bit_out_put r5, r7
10001bd4:	2005      	movs	r0, #5
10001bd6:	2100      	movs	r1, #0
10001bd8:	f001 fa6e 	bl	100030b8 <busy_wait_us>
10001bdc:	2005      	movs	r0, #5
10001bde:	2100      	movs	r1, #0
10001be0:	f88d 6006 	strb.w	r6, [sp, #6]
10001be4:	f001 fa68 	bl	100030b8 <busy_wait_us>
10001be8:	ec46 5040 	gpioc_bit_out_put r5, r6
10001bec:	2005      	movs	r0, #5
10001bee:	2100      	movs	r1, #0
10001bf0:	f001 fa62 	bl	100030b8 <busy_wait_us>
10001bf4:	f10d 0107 	add.w	r1, sp, #7
10001bf8:	2201      	movs	r2, #1
10001bfa:	6820      	ldr	r0, [r4, #0]
10001bfc:	f88d 9007 	strb.w	r9, [sp, #7]
10001c00:	f00a fa5e 	bl	1000c0c0 <__spi_write_blocking_veneer>
10001c04:	2301      	movs	r3, #1
10001c06:	4631      	mov	r1, r6
10001c08:	f10d 0206 	add.w	r2, sp, #6
10001c0c:	6820      	ldr	r0, [r4, #0]
10001c0e:	f00a fa53 	bl	1000c0b8 <__spi_read_blocking_veneer>
10001c12:	2005      	movs	r0, #5
10001c14:	2100      	movs	r1, #0
10001c16:	f001 fa4f 	bl	100030b8 <busy_wait_us>
10001c1a:	ec47 5040 	gpioc_bit_out_put r5, r7
10001c1e:	2005      	movs	r0, #5
10001c20:	2100      	movs	r1, #0
10001c22:	f001 fa49 	bl	100030b8 <busy_wait_us>
10001c26:	f89d 3006 	ldrb.w	r3, [sp, #6]
10001c2a:	071b      	lsls	r3, r3, #28
10001c2c:	f040 8096 	bne.w	10001d5c <rfm96_init+0xe4c>
10001c30:	2600      	movs	r6, #0
10001c32:	2005      	movs	r0, #5
10001c34:	2100      	movs	r1, #0
10001c36:	f88d 6006 	strb.w	r6, [sp, #6]
10001c3a:	250d      	movs	r5, #13
10001c3c:	f001 fa3c 	bl	100030b8 <busy_wait_us>
10001c40:	ec46 5040 	gpioc_bit_out_put r5, r6
10001c44:	f04f 090c 	mov.w	r9, #12
10001c48:	2005      	movs	r0, #5
10001c4a:	2100      	movs	r1, #0
10001c4c:	f001 fa34 	bl	100030b8 <busy_wait_us>
10001c50:	f10d 0107 	add.w	r1, sp, #7
10001c54:	2201      	movs	r2, #1
10001c56:	6820      	ldr	r0, [r4, #0]
10001c58:	f88d 9007 	strb.w	r9, [sp, #7]
10001c5c:	f00a fa30 	bl	1000c0c0 <__spi_write_blocking_veneer>
10001c60:	2301      	movs	r3, #1
10001c62:	4631      	mov	r1, r6
10001c64:	f10d 0206 	add.w	r2, sp, #6
10001c68:	6820      	ldr	r0, [r4, #0]
10001c6a:	f00a fa25 	bl	1000c0b8 <__spi_read_blocking_veneer>
10001c6e:	2005      	movs	r0, #5
10001c70:	2100      	movs	r1, #0
10001c72:	f001 fa21 	bl	100030b8 <busy_wait_us>
10001c76:	f04f 0701 	mov.w	r7, #1
10001c7a:	ec47 5040 	gpioc_bit_out_put r5, r7
10001c7e:	2005      	movs	r0, #5
10001c80:	2100      	movs	r1, #0
10001c82:	f001 fa19 	bl	100030b8 <busy_wait_us>
10001c86:	f89d 3006 	ldrb.w	r3, [sp, #6]
10001c8a:	2005      	movs	r0, #5
10001c8c:	f023 0303 	bic.w	r3, r3, #3
10001c90:	f043 0303 	orr.w	r3, r3, #3
10001c94:	2100      	movs	r1, #0
10001c96:	f88d 3006 	strb.w	r3, [sp, #6]
10001c9a:	f001 fa0d 	bl	100030b8 <busy_wait_us>
10001c9e:	ec46 5040 	gpioc_bit_out_put r5, r6
10001ca2:	2005      	movs	r0, #5
10001ca4:	2100      	movs	r1, #0
10001ca6:	f001 fa07 	bl	100030b8 <busy_wait_us>
10001caa:	238c      	movs	r3, #140	@ 0x8c
10001cac:	f10d 0107 	add.w	r1, sp, #7
10001cb0:	2201      	movs	r2, #1
10001cb2:	6820      	ldr	r0, [r4, #0]
10001cb4:	f88d 3007 	strb.w	r3, [sp, #7]
10001cb8:	f00a fa02 	bl	1000c0c0 <__spi_write_blocking_veneer>
10001cbc:	2201      	movs	r2, #1
10001cbe:	f10d 0106 	add.w	r1, sp, #6
10001cc2:	6820      	ldr	r0, [r4, #0]
10001cc4:	f00a f9fc 	bl	1000c0c0 <__spi_write_blocking_veneer>
10001cc8:	2005      	movs	r0, #5
10001cca:	2100      	movs	r1, #0
10001ccc:	f001 f9f4 	bl	100030b8 <busy_wait_us>
10001cd0:	ec47 5040 	gpioc_bit_out_put r5, r7
10001cd4:	2005      	movs	r0, #5
10001cd6:	2100      	movs	r1, #0
10001cd8:	f001 f9ee 	bl	100030b8 <busy_wait_us>
10001cdc:	2005      	movs	r0, #5
10001cde:	2100      	movs	r1, #0
10001ce0:	f88d 6006 	strb.w	r6, [sp, #6]
10001ce4:	f001 f9e8 	bl	100030b8 <busy_wait_us>
10001ce8:	ec46 5040 	gpioc_bit_out_put r5, r6
10001cec:	2005      	movs	r0, #5
10001cee:	2100      	movs	r1, #0
10001cf0:	f001 f9e2 	bl	100030b8 <busy_wait_us>
10001cf4:	f10d 0107 	add.w	r1, sp, #7
10001cf8:	2201      	movs	r2, #1
10001cfa:	6820      	ldr	r0, [r4, #0]
10001cfc:	f88d 9007 	strb.w	r9, [sp, #7]
10001d00:	f00a f9de 	bl	1000c0c0 <__spi_write_blocking_veneer>
10001d04:	2301      	movs	r3, #1
10001d06:	4631      	mov	r1, r6
10001d08:	f10d 0206 	add.w	r2, sp, #6
10001d0c:	6820      	ldr	r0, [r4, #0]
10001d0e:	f00a f9d3 	bl	1000c0b8 <__spi_read_blocking_veneer>
10001d12:	2005      	movs	r0, #5
10001d14:	2100      	movs	r1, #0
10001d16:	f001 f9cf 	bl	100030b8 <busy_wait_us>
10001d1a:	ec47 5040 	gpioc_bit_out_put r5, r7
10001d1e:	2005      	movs	r0, #5
10001d20:	2100      	movs	r1, #0
10001d22:	f001 f9c9 	bl	100030b8 <busy_wait_us>
10001d26:	f89d 3006 	ldrb.w	r3, [sp, #6]
10001d2a:	f003 0303 	and.w	r3, r3, #3
10001d2e:	2b03      	cmp	r3, #3
10001d30:	d002      	beq.n	10001d38 <rfm96_init+0xe28>
10001d32:	480d      	ldr	r0, [pc, #52]	@ (10001d68 <rfm96_init+0xe58>)
10001d34:	f003 fdcc 	bl	100058d0 <__wrap_printf>
10001d38:	2005      	movs	r0, #5
10001d3a:	f7fe fe5d 	bl	100009f8 <rfm96_set_mode>
10001d3e:	480b      	ldr	r0, [pc, #44]	@ (10001d6c <rfm96_init+0xe5c>)
10001d40:	f003 fd44 	bl	100057cc <__wrap_puts>
10001d44:	f89d 0005 	ldrb.w	r0, [sp, #5]
10001d48:	3811      	subs	r0, #17
10001d4a:	bf18      	it	ne
10001d4c:	2001      	movne	r0, #1
10001d4e:	b003      	add	sp, #12
10001d50:	e8bd 8ff0 	ldmia.w	sp!, {r4, r5, r6, r7, r8, r9, sl, fp, pc}
10001d54:	4806      	ldr	r0, [pc, #24]	@ (10001d70 <rfm96_init+0xe60>)
10001d56:	f003 fdbb 	bl	100058d0 <__wrap_printf>
10001d5a:	e40f      	b.n	1000157c <rfm96_init+0x66c>
10001d5c:	4805      	ldr	r0, [pc, #20]	@ (10001d74 <rfm96_init+0xe64>)
10001d5e:	f003 fdb7 	bl	100058d0 <__wrap_printf>
10001d62:	e765      	b.n	10001c30 <rfm96_init+0xd20>
10001d64:	1000c468 	.word	0x1000c468
10001d68:	1000c4c4 	.word	0x1000c4c4
10001d6c:	1000c4f4 	.word	0x1000c4f4
10001d70:	1000c398 	.word	0x1000c398
10001d74:	1000c498 	.word	0x1000c498

10001d78 <rfm96_tx_done>:
10001d78:	f04f 4350 	mov.w	r3, #3489660928	@ 0xd0000000
10001d7c:	6858      	ldr	r0, [r3, #4]
10001d7e:	f3c0 5000 	ubfx	r0, r0, #20, #1
10001d82:	4770      	bx	lr

10001d84 <rfm96_rx_done>:
10001d84:	f04f 4350 	mov.w	r3, #3489660928	@ 0xd0000000
10001d88:	6858      	ldr	r0, [r3, #4]
10001d8a:	f3c0 5000 	ubfx	r0, r0, #20, #1
10001d8e:	4770      	bx	lr

10001d90 <rfm96_packet_to_fifo>:
10001d90:	e92d 4ff0 	stmdb	sp!, {r4, r5, r6, r7, r8, r9, sl, fp, lr}
10001d94:	4603      	mov	r3, r0
10001d96:	2700      	movs	r7, #0
10001d98:	b085      	sub	sp, #20
10001d9a:	468a      	mov	sl, r1
10001d9c:	2005      	movs	r0, #5
10001d9e:	2100      	movs	r1, #0
10001da0:	9301      	str	r3, [sp, #4]
10001da2:	f88d 700e 	strb.w	r7, [sp, #14]
10001da6:	250d      	movs	r5, #13
10001da8:	f001 f986 	bl	100030b8 <busy_wait_us>
10001dac:	ec47 5040 	gpioc_bit_out_put r5, r7
10001db0:	2401      	movs	r4, #1
10001db2:	4e9a      	ldr	r6, [pc, #616]	@ (1000201c <rfm96_packet_to_fifo+0x28c>)
10001db4:	2005      	movs	r0, #5
10001db6:	2100      	movs	r1, #0
10001db8:	f001 f97e 	bl	100030b8 <busy_wait_us>
10001dbc:	4622      	mov	r2, r4
10001dbe:	f10d 010f 	add.w	r1, sp, #15
10001dc2:	6830      	ldr	r0, [r6, #0]
10001dc4:	f88d 400f 	strb.w	r4, [sp, #15]
10001dc8:	f00a f97a 	bl	1000c0c0 <__spi_write_blocking_veneer>
10001dcc:	4623      	mov	r3, r4
10001dce:	4639      	mov	r1, r7
10001dd0:	f10d 020e 	add.w	r2, sp, #14
10001dd4:	6830      	ldr	r0, [r6, #0]
10001dd6:	f00a f96f 	bl	1000c0b8 <__spi_read_blocking_veneer>
10001dda:	2005      	movs	r0, #5
10001ddc:	2100      	movs	r1, #0
10001dde:	f001 f96b 	bl	100030b8 <busy_wait_us>
10001de2:	ec44 5040 	gpioc_bit_out_put r5, r4
10001de6:	2005      	movs	r0, #5
10001de8:	2100      	movs	r1, #0
10001dea:	f001 f965 	bl	100030b8 <busy_wait_us>
10001dee:	f89d 200e 	ldrb.w	r2, [sp, #14]
10001df2:	2005      	movs	r0, #5
10001df4:	2100      	movs	r1, #0
10001df6:	9200      	str	r2, [sp, #0]
10001df8:	f88d 700e 	strb.w	r7, [sp, #14]
10001dfc:	f001 f95c 	bl	100030b8 <busy_wait_us>
10001e00:	ec47 5040 	gpioc_bit_out_put r5, r7
10001e04:	2005      	movs	r0, #5
10001e06:	2100      	movs	r1, #0
10001e08:	f001 f956 	bl	100030b8 <busy_wait_us>
10001e0c:	4622      	mov	r2, r4
10001e0e:	f10d 010f 	add.w	r1, sp, #15
10001e12:	6830      	ldr	r0, [r6, #0]
10001e14:	f88d 400f 	strb.w	r4, [sp, #15]
10001e18:	f00a f952 	bl	1000c0c0 <__spi_write_blocking_veneer>
10001e1c:	f10d 000e 	add.w	r0, sp, #14
10001e20:	4602      	mov	r2, r0
10001e22:	4623      	mov	r3, r4
10001e24:	4639      	mov	r1, r7
10001e26:	6830      	ldr	r0, [r6, #0]
10001e28:	f00a f946 	bl	1000c0b8 <__spi_read_blocking_veneer>
10001e2c:	2005      	movs	r0, #5
10001e2e:	2100      	movs	r1, #0
10001e30:	f001 f942 	bl	100030b8 <busy_wait_us>
10001e34:	ec44 5040 	gpioc_bit_out_put r5, r4
10001e38:	2005      	movs	r0, #5
10001e3a:	2100      	movs	r1, #0
10001e3c:	f001 f93c 	bl	100030b8 <busy_wait_us>
10001e40:	f89d 300e 	ldrb.w	r3, [sp, #14]
10001e44:	2005      	movs	r0, #5
10001e46:	f023 0307 	bic.w	r3, r3, #7
10001e4a:	4323      	orrs	r3, r4
10001e4c:	2100      	movs	r1, #0
10001e4e:	f88d 300e 	strb.w	r3, [sp, #14]
10001e52:	f001 f931 	bl	100030b8 <busy_wait_us>
10001e56:	ec47 5040 	gpioc_bit_out_put r5, r7
10001e5a:	f04f 0b81 	mov.w	fp, #129	@ 0x81
10001e5e:	2005      	movs	r0, #5
10001e60:	2100      	movs	r1, #0
10001e62:	f001 f929 	bl	100030b8 <busy_wait_us>
10001e66:	4622      	mov	r2, r4
10001e68:	f10d 010f 	add.w	r1, sp, #15
10001e6c:	6830      	ldr	r0, [r6, #0]
10001e6e:	f88d b00f 	strb.w	fp, [sp, #15]
10001e72:	f00a f925 	bl	1000c0c0 <__spi_write_blocking_veneer>
10001e76:	4622      	mov	r2, r4
10001e78:	f10d 010e 	add.w	r1, sp, #14
10001e7c:	6830      	ldr	r0, [r6, #0]
10001e7e:	f00a f91f 	bl	1000c0c0 <__spi_write_blocking_veneer>
10001e82:	2005      	movs	r0, #5
10001e84:	2100      	movs	r1, #0
10001e86:	f001 f917 	bl	100030b8 <busy_wait_us>
10001e8a:	ec44 5040 	gpioc_bit_out_put r5, r4
10001e8e:	2005      	movs	r0, #5
10001e90:	2100      	movs	r1, #0
10001e92:	f001 f911 	bl	100030b8 <busy_wait_us>
10001e96:	2005      	movs	r0, #5
10001e98:	2100      	movs	r1, #0
10001e9a:	f88d 700e 	strb.w	r7, [sp, #14]
10001e9e:	f001 f90b 	bl	100030b8 <busy_wait_us>
10001ea2:	ec47 5040 	gpioc_bit_out_put r5, r7
10001ea6:	2005      	movs	r0, #5
10001ea8:	2100      	movs	r1, #0
10001eaa:	f001 f905 	bl	100030b8 <busy_wait_us>
10001eae:	238d      	movs	r3, #141	@ 0x8d
10001eb0:	4622      	mov	r2, r4
10001eb2:	f10d 010f 	add.w	r1, sp, #15
10001eb6:	6830      	ldr	r0, [r6, #0]
10001eb8:	f88d 300f 	strb.w	r3, [sp, #15]
10001ebc:	f00a f900 	bl	1000c0c0 <__spi_write_blocking_veneer>
10001ec0:	4622      	mov	r2, r4
10001ec2:	f10d 010e 	add.w	r1, sp, #14
10001ec6:	6830      	ldr	r0, [r6, #0]
10001ec8:	f00a f8fa 	bl	1000c0c0 <__spi_write_blocking_veneer>
10001ecc:	2005      	movs	r0, #5
10001ece:	2100      	movs	r1, #0
10001ed0:	f001 f8f2 	bl	100030b8 <busy_wait_us>
10001ed4:	ec44 5040 	gpioc_bit_out_put r5, r4
10001ed8:	2005      	movs	r0, #5
10001eda:	2100      	movs	r1, #0
10001edc:	f001 f8ec 	bl	100030b8 <busy_wait_us>
10001ee0:	2005      	movs	r0, #5
10001ee2:	2100      	movs	r1, #0
10001ee4:	f001 f8e8 	bl	100030b8 <busy_wait_us>
10001ee8:	ec47 5040 	gpioc_bit_out_put r5, r7
10001eec:	2005      	movs	r0, #5
10001eee:	2100      	movs	r1, #0
10001ef0:	f001 f8e2 	bl	100030b8 <busy_wait_us>
10001ef4:	2380      	movs	r3, #128	@ 0x80
10001ef6:	4622      	mov	r2, r4
10001ef8:	f10d 010f 	add.w	r1, sp, #15
10001efc:	6830      	ldr	r0, [r6, #0]
10001efe:	f88d 300f 	strb.w	r3, [sp, #15]
10001f02:	f00a f8dd 	bl	1000c0c0 <__spi_write_blocking_veneer>
10001f06:	4652      	mov	r2, sl
10001f08:	9901      	ldr	r1, [sp, #4]
10001f0a:	6830      	ldr	r0, [r6, #0]
10001f0c:	f00a f8d8 	bl	1000c0c0 <__spi_write_blocking_veneer>
10001f10:	2005      	movs	r0, #5
10001f12:	2100      	movs	r1, #0
10001f14:	f001 f8d0 	bl	100030b8 <busy_wait_us>
10001f18:	ec44 5040 	gpioc_bit_out_put r5, r4
10001f1c:	2005      	movs	r0, #5
10001f1e:	2100      	movs	r1, #0
10001f20:	f001 f8ca 	bl	100030b8 <busy_wait_us>
10001f24:	2005      	movs	r0, #5
10001f26:	2100      	movs	r1, #0
10001f28:	f88d a00e 	strb.w	sl, [sp, #14]
10001f2c:	f001 f8c4 	bl	100030b8 <busy_wait_us>
10001f30:	ec47 5040 	gpioc_bit_out_put r5, r7
10001f34:	2005      	movs	r0, #5
10001f36:	2100      	movs	r1, #0
10001f38:	f001 f8be 	bl	100030b8 <busy_wait_us>
10001f3c:	23a2      	movs	r3, #162	@ 0xa2
10001f3e:	4622      	mov	r2, r4
10001f40:	f10d 010f 	add.w	r1, sp, #15
10001f44:	6830      	ldr	r0, [r6, #0]
10001f46:	f88d 300f 	strb.w	r3, [sp, #15]
10001f4a:	f00a f8b9 	bl	1000c0c0 <__spi_write_blocking_veneer>
10001f4e:	4622      	mov	r2, r4
10001f50:	f10d 010e 	add.w	r1, sp, #14
10001f54:	6830      	ldr	r0, [r6, #0]
10001f56:	f00a f8b3 	bl	1000c0c0 <__spi_write_blocking_veneer>
10001f5a:	2005      	movs	r0, #5
10001f5c:	2100      	movs	r1, #0
10001f5e:	f001 f8ab 	bl	100030b8 <busy_wait_us>
10001f62:	ec44 5040 	gpioc_bit_out_put r5, r4
10001f66:	2005      	movs	r0, #5
10001f68:	2100      	movs	r1, #0
10001f6a:	f001 f8a5 	bl	100030b8 <busy_wait_us>
10001f6e:	2005      	movs	r0, #5
10001f70:	2100      	movs	r1, #0
10001f72:	f88d 700e 	strb.w	r7, [sp, #14]
10001f76:	f001 f89f 	bl	100030b8 <busy_wait_us>
10001f7a:	ec47 5040 	gpioc_bit_out_put r5, r7
10001f7e:	2005      	movs	r0, #5
10001f80:	2100      	movs	r1, #0
10001f82:	f001 f899 	bl	100030b8 <busy_wait_us>
10001f86:	4622      	mov	r2, r4
10001f88:	f10d 010f 	add.w	r1, sp, #15
10001f8c:	6830      	ldr	r0, [r6, #0]
10001f8e:	f88d 400f 	strb.w	r4, [sp, #15]
10001f92:	f00a f895 	bl	1000c0c0 <__spi_write_blocking_veneer>
10001f96:	f10d 010e 	add.w	r1, sp, #14
10001f9a:	460a      	mov	r2, r1
10001f9c:	4623      	mov	r3, r4
10001f9e:	4639      	mov	r1, r7
10001fa0:	6830      	ldr	r0, [r6, #0]
10001fa2:	f00a f889 	bl	1000c0b8 <__spi_read_blocking_veneer>
10001fa6:	2005      	movs	r0, #5
10001fa8:	2100      	movs	r1, #0
10001faa:	f001 f885 	bl	100030b8 <busy_wait_us>
10001fae:	ec44 5040 	gpioc_bit_out_put r5, r4
10001fb2:	2005      	movs	r0, #5
10001fb4:	2100      	movs	r1, #0
10001fb6:	f001 f87f 	bl	100030b8 <busy_wait_us>
10001fba:	9a00      	ldr	r2, [sp, #0]
10001fbc:	2005      	movs	r0, #5
10001fbe:	f002 0307 	and.w	r3, r2, #7
10001fc2:	f89d 200e 	ldrb.w	r2, [sp, #14]
10001fc6:	2100      	movs	r1, #0
10001fc8:	f022 0207 	bic.w	r2, r2, #7
10001fcc:	4313      	orrs	r3, r2
10001fce:	f88d 300e 	strb.w	r3, [sp, #14]
10001fd2:	f001 f871 	bl	100030b8 <busy_wait_us>
10001fd6:	ec47 5040 	gpioc_bit_out_put r5, r7
10001fda:	2005      	movs	r0, #5
10001fdc:	2100      	movs	r1, #0
10001fde:	f001 f86b 	bl	100030b8 <busy_wait_us>
10001fe2:	4622      	mov	r2, r4
10001fe4:	f10d 010f 	add.w	r1, sp, #15
10001fe8:	6830      	ldr	r0, [r6, #0]
10001fea:	f88d b00f 	strb.w	fp, [sp, #15]
10001fee:	f00a f867 	bl	1000c0c0 <__spi_write_blocking_veneer>
10001ff2:	4622      	mov	r2, r4
10001ff4:	f10d 010e 	add.w	r1, sp, #14
10001ff8:	6830      	ldr	r0, [r6, #0]
10001ffa:	f00a f861 	bl	1000c0c0 <__spi_write_blocking_veneer>
10001ffe:	2005      	movs	r0, #5
10002000:	2100      	movs	r1, #0
10002002:	f001 f859 	bl	100030b8 <busy_wait_us>
10002006:	ec44 5040 	gpioc_bit_out_put r5, r4
1000200a:	2005      	movs	r0, #5
1000200c:	2100      	movs	r1, #0
1000200e:	f001 f853 	bl	100030b8 <busy_wait_us>
10002012:	4638      	mov	r0, r7
10002014:	b005      	add	sp, #20
10002016:	e8bd 8ff0 	ldmia.w	sp!, {r4, r5, r6, r7, r8, r9, sl, fp, pc}
1000201a:	bf00      	nop
1000201c:	2000066c 	.word	0x2000066c

10002020 <rfm96_packet_from_fifo>:
10002020:	e92d 4ff0 	stmdb	sp!, {r4, r5, r6, r7, r8, r9, sl, fp, lr}
10002024:	2700      	movs	r7, #0
10002026:	b083      	sub	sp, #12
10002028:	4682      	mov	sl, r0
1000202a:	2100      	movs	r1, #0
1000202c:	2005      	movs	r0, #5
1000202e:	f88d 7006 	strb.w	r7, [sp, #6]
10002032:	260d      	movs	r6, #13
10002034:	f001 f840 	bl	100030b8 <busy_wait_us>
10002038:	ec47 6040 	gpioc_bit_out_put r6, r7
1000203c:	2501      	movs	r5, #1
1000203e:	4c8f      	ldr	r4, [pc, #572]	@ (1000227c <rfm96_packet_from_fifo+0x25c>)
10002040:	2005      	movs	r0, #5
10002042:	2100      	movs	r1, #0
10002044:	f001 f838 	bl	100030b8 <busy_wait_us>
10002048:	462a      	mov	r2, r5
1000204a:	f10d 0107 	add.w	r1, sp, #7
1000204e:	6820      	ldr	r0, [r4, #0]
10002050:	f88d 5007 	strb.w	r5, [sp, #7]
10002054:	f00a f834 	bl	1000c0c0 <__spi_write_blocking_veneer>
10002058:	462b      	mov	r3, r5
1000205a:	4639      	mov	r1, r7
1000205c:	f10d 0206 	add.w	r2, sp, #6
10002060:	6820      	ldr	r0, [r4, #0]
10002062:	f00a f829 	bl	1000c0b8 <__spi_read_blocking_veneer>
10002066:	2005      	movs	r0, #5
10002068:	2100      	movs	r1, #0
1000206a:	f001 f825 	bl	100030b8 <busy_wait_us>
1000206e:	ec45 6040 	gpioc_bit_out_put r6, r5
10002072:	2005      	movs	r0, #5
10002074:	2100      	movs	r1, #0
10002076:	f001 f81f 	bl	100030b8 <busy_wait_us>
1000207a:	f89d 8006 	ldrb.w	r8, [sp, #6]
1000207e:	2005      	movs	r0, #5
10002080:	2100      	movs	r1, #0
10002082:	f88d 7006 	strb.w	r7, [sp, #6]
10002086:	f008 0807 	and.w	r8, r8, #7
1000208a:	f001 f815 	bl	100030b8 <busy_wait_us>
1000208e:	ec47 6040 	gpioc_bit_out_put r6, r7
10002092:	2005      	movs	r0, #5
10002094:	2100      	movs	r1, #0
10002096:	f001 f80f 	bl	100030b8 <busy_wait_us>
1000209a:	462a      	mov	r2, r5
1000209c:	f10d 0107 	add.w	r1, sp, #7
100020a0:	6820      	ldr	r0, [r4, #0]
100020a2:	f88d 5007 	strb.w	r5, [sp, #7]
100020a6:	f00a f80b 	bl	1000c0c0 <__spi_write_blocking_veneer>
100020aa:	462b      	mov	r3, r5
100020ac:	4639      	mov	r1, r7
100020ae:	f10d 0206 	add.w	r2, sp, #6
100020b2:	6820      	ldr	r0, [r4, #0]
100020b4:	f00a f800 	bl	1000c0b8 <__spi_read_blocking_veneer>
100020b8:	2005      	movs	r0, #5
100020ba:	2100      	movs	r1, #0
100020bc:	f000 fffc 	bl	100030b8 <busy_wait_us>
100020c0:	ec45 6040 	gpioc_bit_out_put r6, r5
100020c4:	2005      	movs	r0, #5
100020c6:	2100      	movs	r1, #0
100020c8:	f000 fff6 	bl	100030b8 <busy_wait_us>
100020cc:	f89d 3006 	ldrb.w	r3, [sp, #6]
100020d0:	2005      	movs	r0, #5
100020d2:	f023 0307 	bic.w	r3, r3, #7
100020d6:	432b      	orrs	r3, r5
100020d8:	2100      	movs	r1, #0
100020da:	f88d 3006 	strb.w	r3, [sp, #6]
100020de:	f000 ffeb 	bl	100030b8 <busy_wait_us>
100020e2:	ec47 6040 	gpioc_bit_out_put r6, r7
100020e6:	2005      	movs	r0, #5
100020e8:	2100      	movs	r1, #0
100020ea:	f000 ffe5 	bl	100030b8 <busy_wait_us>
100020ee:	2381      	movs	r3, #129	@ 0x81
100020f0:	462a      	mov	r2, r5
100020f2:	f10d 0107 	add.w	r1, sp, #7
100020f6:	6820      	ldr	r0, [r4, #0]
100020f8:	f88d 3007 	strb.w	r3, [sp, #7]
100020fc:	f009 ffe0 	bl	1000c0c0 <__spi_write_blocking_veneer>
10002100:	462a      	mov	r2, r5
10002102:	f10d 0106 	add.w	r1, sp, #6
10002106:	6820      	ldr	r0, [r4, #0]
10002108:	f009 ffda 	bl	1000c0c0 <__spi_write_blocking_veneer>
1000210c:	2005      	movs	r0, #5
1000210e:	2100      	movs	r1, #0
10002110:	f000 ffd2 	bl	100030b8 <busy_wait_us>
10002114:	ec45 6040 	gpioc_bit_out_put r6, r5
10002118:	2005      	movs	r0, #5
1000211a:	2100      	movs	r1, #0
1000211c:	f000 ffcc 	bl	100030b8 <busy_wait_us>
10002120:	2005      	movs	r0, #5
10002122:	2100      	movs	r1, #0
10002124:	f88d 7006 	strb.w	r7, [sp, #6]
10002128:	f000 ffc6 	bl	100030b8 <busy_wait_us>
1000212c:	ec47 6040 	gpioc_bit_out_put r6, r7
10002130:	2005      	movs	r0, #5
10002132:	2100      	movs	r1, #0
10002134:	f000 ffc0 	bl	100030b8 <busy_wait_us>
10002138:	231e      	movs	r3, #30
1000213a:	462a      	mov	r2, r5
1000213c:	f10d 0107 	add.w	r1, sp, #7
10002140:	6820      	ldr	r0, [r4, #0]
10002142:	f88d 3007 	strb.w	r3, [sp, #7]
10002146:	f009 ffbb 	bl	1000c0c0 <__spi_write_blocking_veneer>
1000214a:	462b      	mov	r3, r5
1000214c:	4639      	mov	r1, r7
1000214e:	f10d 0206 	add.w	r2, sp, #6
10002152:	6820      	ldr	r0, [r4, #0]
10002154:	f009 ffb0 	bl	1000c0b8 <__spi_read_blocking_veneer>
10002158:	2005      	movs	r0, #5
1000215a:	2100      	movs	r1, #0
1000215c:	f000 ffac 	bl	100030b8 <busy_wait_us>
10002160:	ec45 6040 	gpioc_bit_out_put r6, r5
10002164:	2005      	movs	r0, #5
10002166:	2100      	movs	r1, #0
10002168:	f000 ffa6 	bl	100030b8 <busy_wait_us>
1000216c:	f89d 3006 	ldrb.w	r3, [sp, #6]
10002170:	075a      	lsls	r2, r3, #29
10002172:	f140 8085 	bpl.w	10002280 <rfm96_packet_from_fifo+0x260>
10002176:	2005      	movs	r0, #5
10002178:	2100      	movs	r1, #0
1000217a:	f88d 7006 	strb.w	r7, [sp, #6]
1000217e:	f000 ff9b 	bl	100030b8 <busy_wait_us>
10002182:	ec47 6040 	gpioc_bit_out_put r6, r7
10002186:	2005      	movs	r0, #5
10002188:	2100      	movs	r1, #0
1000218a:	f000 ff95 	bl	100030b8 <busy_wait_us>
1000218e:	2312      	movs	r3, #18
10002190:	462a      	mov	r2, r5
10002192:	f10d 0107 	add.w	r1, sp, #7
10002196:	6820      	ldr	r0, [r4, #0]
10002198:	f88d 3007 	strb.w	r3, [sp, #7]
1000219c:	f009 ff90 	bl	1000c0c0 <__spi_write_blocking_veneer>
100021a0:	462b      	mov	r3, r5
100021a2:	4639      	mov	r1, r7
100021a4:	f10d 0206 	add.w	r2, sp, #6
100021a8:	6820      	ldr	r0, [r4, #0]
100021aa:	f009 ff85 	bl	1000c0b8 <__spi_read_blocking_veneer>
100021ae:	2005      	movs	r0, #5
100021b0:	2100      	movs	r1, #0
100021b2:	f000 ff81 	bl	100030b8 <busy_wait_us>
100021b6:	ec45 6040 	gpioc_bit_out_put r6, r5
100021ba:	2005      	movs	r0, #5
100021bc:	2100      	movs	r1, #0
100021be:	f000 ff7b 	bl	100030b8 <busy_wait_us>
100021c2:	f89d 3006 	ldrb.w	r3, [sp, #6]
100021c6:	069b      	lsls	r3, r3, #26
100021c8:	d55a      	bpl.n	10002280 <rfm96_packet_from_fifo+0x260>
100021ca:	f04f 0b00 	mov.w	fp, #0
100021ce:	2005      	movs	r0, #5
100021d0:	2100      	movs	r1, #0
100021d2:	f88d b006 	strb.w	fp, [sp, #6]
100021d6:	260d      	movs	r6, #13
100021d8:	f000 ff6e 	bl	100030b8 <busy_wait_us>
100021dc:	ec4b 6040 	gpioc_bit_out_put r6, fp
100021e0:	2501      	movs	r5, #1
100021e2:	2005      	movs	r0, #5
100021e4:	2100      	movs	r1, #0
100021e6:	f000 ff67 	bl	100030b8 <busy_wait_us>
100021ea:	462a      	mov	r2, r5
100021ec:	f10d 0107 	add.w	r1, sp, #7
100021f0:	6820      	ldr	r0, [r4, #0]
100021f2:	f88d 5007 	strb.w	r5, [sp, #7]
100021f6:	f009 ff63 	bl	1000c0c0 <__spi_write_blocking_veneer>
100021fa:	462b      	mov	r3, r5
100021fc:	4659      	mov	r1, fp
100021fe:	f10d 0206 	add.w	r2, sp, #6
10002202:	6820      	ldr	r0, [r4, #0]
10002204:	f009 ff58 	bl	1000c0b8 <__spi_read_blocking_veneer>
10002208:	2005      	movs	r0, #5
1000220a:	2100      	movs	r1, #0
1000220c:	f000 ff54 	bl	100030b8 <busy_wait_us>
10002210:	ec45 6040 	gpioc_bit_out_put r6, r5
10002214:	2005      	movs	r0, #5
10002216:	2100      	movs	r1, #0
10002218:	f000 ff4e 	bl	100030b8 <busy_wait_us>
1000221c:	f89d 3006 	ldrb.w	r3, [sp, #6]
10002220:	2005      	movs	r0, #5
10002222:	f023 0307 	bic.w	r3, r3, #7
10002226:	ea43 0308 	orr.w	r3, r3, r8
1000222a:	2100      	movs	r1, #0
1000222c:	f88d 3006 	strb.w	r3, [sp, #6]
10002230:	f000 ff42 	bl	100030b8 <busy_wait_us>
10002234:	ec4b 6040 	gpioc_bit_out_put r6, fp
10002238:	2005      	movs	r0, #5
1000223a:	2100      	movs	r1, #0
1000223c:	f000 ff3c 	bl	100030b8 <busy_wait_us>
10002240:	2381      	movs	r3, #129	@ 0x81
10002242:	462a      	mov	r2, r5
10002244:	f10d 0107 	add.w	r1, sp, #7
10002248:	6820      	ldr	r0, [r4, #0]
1000224a:	f88d 3007 	strb.w	r3, [sp, #7]
1000224e:	f009 ff37 	bl	1000c0c0 <__spi_write_blocking_veneer>
10002252:	462a      	mov	r2, r5
10002254:	f10d 0106 	add.w	r1, sp, #6
10002258:	6820      	ldr	r0, [r4, #0]
1000225a:	f009 ff31 	bl	1000c0c0 <__spi_write_blocking_veneer>
1000225e:	2005      	movs	r0, #5
10002260:	2100      	movs	r1, #0
10002262:	f000 ff29 	bl	100030b8 <busy_wait_us>
10002266:	ec45 6040 	gpioc_bit_out_put r6, r5
1000226a:	2005      	movs	r0, #5
1000226c:	2100      	movs	r1, #0
1000226e:	f000 ff23 	bl	100030b8 <busy_wait_us>
10002272:	4638      	mov	r0, r7
10002274:	b003      	add	sp, #12
10002276:	e8bd 8ff0 	ldmia.w	sp!, {r4, r5, r6, r7, r8, r9, sl, fp, pc}
1000227a:	bf00      	nop
1000227c:	2000066c 	.word	0x2000066c
10002280:	2500      	movs	r5, #0
10002282:	2005      	movs	r0, #5
10002284:	2100      	movs	r1, #0
10002286:	f88d 5006 	strb.w	r5, [sp, #6]
1000228a:	260d      	movs	r6, #13
1000228c:	f000 ff14 	bl	100030b8 <busy_wait_us>
10002290:	ec45 6040 	gpioc_bit_out_put r6, r5
10002294:	2005      	movs	r0, #5
10002296:	2100      	movs	r1, #0
10002298:	f000 ff0e 	bl	100030b8 <busy_wait_us>
1000229c:	2313      	movs	r3, #19
1000229e:	f10d 0107 	add.w	r1, sp, #7
100022a2:	2201      	movs	r2, #1
100022a4:	6820      	ldr	r0, [r4, #0]
100022a6:	f88d 3007 	strb.w	r3, [sp, #7]
100022aa:	f009 ff09 	bl	1000c0c0 <__spi_write_blocking_veneer>
100022ae:	2301      	movs	r3, #1
100022b0:	4629      	mov	r1, r5
100022b2:	f10d 0206 	add.w	r2, sp, #6
100022b6:	6820      	ldr	r0, [r4, #0]
100022b8:	f009 fefe 	bl	1000c0b8 <__spi_read_blocking_veneer>
100022bc:	2005      	movs	r0, #5
100022be:	2100      	movs	r1, #0
100022c0:	f000 fefa 	bl	100030b8 <busy_wait_us>
100022c4:	f04f 0901 	mov.w	r9, #1
100022c8:	ec49 6040 	gpioc_bit_out_put r6, r9
100022cc:	2005      	movs	r0, #5
100022ce:	2100      	movs	r1, #0
100022d0:	f000 fef2 	bl	100030b8 <busy_wait_us>
100022d4:	f89d 7006 	ldrb.w	r7, [sp, #6]
100022d8:	2f00      	cmp	r7, #0
100022da:	f43f af76 	beq.w	100021ca <rfm96_packet_from_fifo+0x1aa>
100022de:	2005      	movs	r0, #5
100022e0:	2100      	movs	r1, #0
100022e2:	f88d 5006 	strb.w	r5, [sp, #6]
100022e6:	f000 fee7 	bl	100030b8 <busy_wait_us>
100022ea:	ec45 6040 	gpioc_bit_out_put r6, r5
100022ee:	2005      	movs	r0, #5
100022f0:	2100      	movs	r1, #0
100022f2:	f000 fee1 	bl	100030b8 <busy_wait_us>
100022f6:	2310      	movs	r3, #16
100022f8:	f10d 0107 	add.w	r1, sp, #7
100022fc:	2201      	movs	r2, #1
100022fe:	6820      	ldr	r0, [r4, #0]
10002300:	f88d 3007 	strb.w	r3, [sp, #7]
10002304:	f009 fedc 	bl	1000c0c0 <__spi_write_blocking_veneer>
10002308:	2301      	movs	r3, #1
1000230a:	4629      	mov	r1, r5
1000230c:	f10d 0206 	add.w	r2, sp, #6
10002310:	6820      	ldr	r0, [r4, #0]
10002312:	f009 fed1 	bl	1000c0b8 <__spi_read_blocking_veneer>
10002316:	2005      	movs	r0, #5
10002318:	2100      	movs	r1, #0
1000231a:	f000 fecd 	bl	100030b8 <busy_wait_us>
1000231e:	ec49 6040 	gpioc_bit_out_put r6, r9
10002322:	2005      	movs	r0, #5
10002324:	2100      	movs	r1, #0
10002326:	f000 fec7 	bl	100030b8 <busy_wait_us>
1000232a:	2005      	movs	r0, #5
1000232c:	2100      	movs	r1, #0
1000232e:	f000 fec3 	bl	100030b8 <busy_wait_us>
10002332:	ec45 6040 	gpioc_bit_out_put r6, r5
10002336:	2005      	movs	r0, #5
10002338:	2100      	movs	r1, #0
1000233a:	f000 febd 	bl	100030b8 <busy_wait_us>
1000233e:	238d      	movs	r3, #141	@ 0x8d
10002340:	f10d 0107 	add.w	r1, sp, #7
10002344:	2201      	movs	r2, #1
10002346:	6820      	ldr	r0, [r4, #0]
10002348:	f88d 3007 	strb.w	r3, [sp, #7]
1000234c:	f009 feb8 	bl	1000c0c0 <__spi_write_blocking_veneer>
10002350:	2201      	movs	r2, #1
10002352:	f10d 0106 	add.w	r1, sp, #6
10002356:	6820      	ldr	r0, [r4, #0]
10002358:	f009 feb2 	bl	1000c0c0 <__spi_write_blocking_veneer>
1000235c:	2005      	movs	r0, #5
1000235e:	2100      	movs	r1, #0
10002360:	f000 feaa 	bl	100030b8 <busy_wait_us>
10002364:	ec49 6040 	gpioc_bit_out_put r6, r9
10002368:	2005      	movs	r0, #5
1000236a:	2100      	movs	r1, #0
1000236c:	f000 fea4 	bl	100030b8 <busy_wait_us>
10002370:	2005      	movs	r0, #5
10002372:	2100      	movs	r1, #0
10002374:	f000 fea0 	bl	100030b8 <busy_wait_us>
10002378:	ec45 6040 	gpioc_bit_out_put r6, r5
1000237c:	2005      	movs	r0, #5
1000237e:	2100      	movs	r1, #0
10002380:	f000 fe9a 	bl	100030b8 <busy_wait_us>
10002384:	f10d 0107 	add.w	r1, sp, #7
10002388:	2201      	movs	r2, #1
1000238a:	6820      	ldr	r0, [r4, #0]
1000238c:	f88d 5007 	strb.w	r5, [sp, #7]
10002390:	f009 fe96 	bl	1000c0c0 <__spi_write_blocking_veneer>
10002394:	463b      	mov	r3, r7
10002396:	4652      	mov	r2, sl
10002398:	4629      	mov	r1, r5
1000239a:	6820      	ldr	r0, [r4, #0]
1000239c:	f009 fe8c 	bl	1000c0b8 <__spi_read_blocking_veneer>
100023a0:	2005      	movs	r0, #5
100023a2:	2100      	movs	r1, #0
100023a4:	f000 fe88 	bl	100030b8 <busy_wait_us>
100023a8:	ec49 6040 	gpioc_bit_out_put r6, r9
100023ac:	2005      	movs	r0, #5
100023ae:	2100      	movs	r1, #0
100023b0:	f000 fe82 	bl	100030b8 <busy_wait_us>
100023b4:	e709      	b.n	100021ca <rfm96_packet_from_fifo+0x1aa>
100023b6:	bf00      	nop

100023b8 <gpio_set_function>:
100023b8:	b410      	push	{r4}
100023ba:	f44f 7480 	mov.w	r4, #256	@ 0x100
100023be:	4b0c      	ldr	r3, [pc, #48]	@ (100023f0 <gpio_set_function+0x38>)
100023c0:	f853 2020 	ldr.w	r2, [r3, r0, lsl #2]
100023c4:	eb03 0380 	add.w	r3, r3, r0, lsl #2
100023c8:	00c0      	lsls	r0, r0, #3
100023ca:	f082 0240 	eor.w	r2, r2, #64	@ 0x40
100023ce:	f100 4080 	add.w	r0, r0, #1073741824	@ 0x40000000
100023d2:	f503 5c80 	add.w	ip, r3, #4096	@ 0x1000
100023d6:	f002 02c0 	and.w	r2, r2, #192	@ 0xc0
100023da:	f500 3020 	add.w	r0, r0, #163840	@ 0x28000
100023de:	f503 5340 	add.w	r3, r3, #12288	@ 0x3000
100023e2:	f8cc 2000 	str.w	r2, [ip]
100023e6:	6041      	str	r1, [r0, #4]
100023e8:	601c      	str	r4, [r3, #0]
100023ea:	f85d 4b04 	ldr.w	r4, [sp], #4
100023ee:	4770      	bx	lr
100023f0:	40038004 	.word	0x40038004

100023f4 <gpio_set_pulls>:
100023f4:	b410      	push	{r4}
100023f6:	4c08      	ldr	r4, [pc, #32]	@ (10002418 <gpio_set_pulls+0x24>)
100023f8:	00c9      	lsls	r1, r1, #3
100023fa:	ea41 0182 	orr.w	r1, r1, r2, lsl #2
100023fe:	f854 2020 	ldr.w	r2, [r4, r0, lsl #2]
10002402:	eb04 0380 	add.w	r3, r4, r0, lsl #2
10002406:	4051      	eors	r1, r2
10002408:	f503 5380 	add.w	r3, r3, #4096	@ 0x1000
1000240c:	f001 010c 	and.w	r1, r1, #12
10002410:	f85d 4b04 	ldr.w	r4, [sp], #4
10002414:	6019      	str	r1, [r3, #0]
10002416:	4770      	bx	lr
10002418:	40038004 	.word	0x40038004

1000241c <gpio_init>:
1000241c:	b430      	push	{r4, r5}
1000241e:	f04f 0300 	mov.w	r3, #0
10002422:	ec43 0044 	gpioc_bit_oe_put r0, r3
10002426:	ec43 0040 	gpioc_bit_out_put r0, r3
1000242a:	2505      	movs	r5, #5
1000242c:	f44f 7480 	mov.w	r4, #256	@ 0x100
10002430:	4b0b      	ldr	r3, [pc, #44]	@ (10002460 <gpio_init+0x44>)
10002432:	00c2      	lsls	r2, r0, #3
10002434:	f853 1020 	ldr.w	r1, [r3, r0, lsl #2]
10002438:	eb03 0080 	add.w	r0, r3, r0, lsl #2
1000243c:	f081 0140 	eor.w	r1, r1, #64	@ 0x40
10002440:	f102 4380 	add.w	r3, r2, #1073741824	@ 0x40000000
10002444:	f503 3320 	add.w	r3, r3, #163840	@ 0x28000
10002448:	f001 02c0 	and.w	r2, r1, #192	@ 0xc0
1000244c:	f500 5180 	add.w	r1, r0, #4096	@ 0x1000
10002450:	f500 5040 	add.w	r0, r0, #12288	@ 0x3000
10002454:	600a      	str	r2, [r1, #0]
10002456:	605d      	str	r5, [r3, #4]
10002458:	6004      	str	r4, [r0, #0]
1000245a:	bc30      	pop	{r4, r5}
1000245c:	4770      	bx	lr
1000245e:	bf00      	nop
10002460:	40038004 	.word	0x40038004

10002464 <panic>:
10002464:	b40f      	push	{r0, r1, r2, r3}
10002466:	b500      	push	{lr}
10002468:	b083      	sub	sp, #12
1000246a:	9c04      	ldr	r4, [sp, #16]
1000246c:	4807      	ldr	r0, [pc, #28]	@ (1000248c <panic+0x28>)
1000246e:	f003 f9ad 	bl	100057cc <__wrap_puts>
10002472:	b13c      	cbz	r4, 10002484 <panic+0x20>
10002474:	a905      	add	r1, sp, #20
10002476:	4620      	mov	r0, r4
10002478:	9101      	str	r1, [sp, #4]
1000247a:	f002 ff31 	bl	100052e0 <weak_raw_vprintf>
1000247e:	4804      	ldr	r0, [pc, #16]	@ (10002490 <panic+0x2c>)
10002480:	f003 f9a4 	bl	100057cc <__wrap_puts>
10002484:	2001      	movs	r0, #1
10002486:	f002 ff43 	bl	10005310 <_exit>
1000248a:	bf00      	nop
1000248c:	1000c514 	.word	0x1000c514
10002490:	1000c1dc 	.word	0x1000c1dc

10002494 <hw_claim_or_assert>:
10002494:	b570      	push	{r4, r5, r6, lr}
10002496:	4686      	mov	lr, r0
10002498:	f3ef 8510 	mrs	r5, PRIMASK
1000249c:	b672      	cpsid	i
1000249e:	4c12      	ldr	r4, [pc, #72]	@ (100024e8 <hw_claim_or_assert+0x54>)
100024a0:	e8d4 6fcf 	ldaexb	r6, [r4]
100024a4:	2001      	movs	r0, #1
100024a6:	2e00      	cmp	r6, #0
100024a8:	d1fa      	bne.n	100024a0 <hw_claim_or_assert+0xc>
100024aa:	e8c4 0f46 	strexb	r6, r0, [r4]
100024ae:	2e00      	cmp	r6, #0
100024b0:	d1f6      	bne.n	100024a0 <hw_claim_or_assert+0xc>
100024b2:	f3bf 8f5f 	dmb	sy
100024b6:	f04f 0c01 	mov.w	ip, #1
100024ba:	08c8      	lsrs	r0, r1, #3
100024bc:	f001 0307 	and.w	r3, r1, #7
100024c0:	fa0c f303 	lsl.w	r3, ip, r3
100024c4:	f81e c000 	ldrb.w	ip, [lr, r0]
100024c8:	ea1c 0603 	ands.w	r6, ip, r3
100024cc:	d108      	bne.n	100024e0 <hw_claim_or_assert+0x4c>
100024ce:	ea4c 0c03 	orr.w	ip, ip, r3
100024d2:	f80e c000 	strb.w	ip, [lr, r0]
100024d6:	e8c4 6f8f 	stlb	r6, [r4]
100024da:	f385 8810 	msr	PRIMASK, r5
100024de:	bd70      	pop	{r4, r5, r6, pc}
100024e0:	4610      	mov	r0, r2
100024e2:	f7ff ffbf 	bl	10002464 <panic>
100024e6:	bf00      	nop
100024e8:	2000121b 	.word	0x2000121b

100024ec <next_striped_spin_lock_num>:
100024ec:	4a04      	ldr	r2, [pc, #16]	@ (10002500 <next_striped_spin_lock_num+0x14>)
100024ee:	7810      	ldrb	r0, [r2, #0]
100024f0:	1c43      	adds	r3, r0, #1
100024f2:	b2db      	uxtb	r3, r3
100024f4:	2b18      	cmp	r3, #24
100024f6:	bf28      	it	cs
100024f8:	2310      	movcs	r3, #16
100024fa:	7013      	strb	r3, [r2, #0]
100024fc:	4770      	bx	lr
100024fe:	bf00      	nop
10002500:	20000670 	.word	0x20000670

10002504 <spinlock_set_extexclall>:
10002504:	f04f 22e0 	mov.w	r2, #3758153728	@ 0xe000e000
10002508:	6893      	ldr	r3, [r2, #8]
1000250a:	f043 5300 	orr.w	r3, r3, #536870912	@ 0x20000000
1000250e:	6093      	str	r3, [r2, #8]
10002510:	4770      	bx	lr
10002512:	bf00      	nop

10002514 <spin_locks_reset>:
10002514:	2100      	movs	r1, #0
10002516:	4b04      	ldr	r3, [pc, #16]	@ (10002528 <spin_locks_reset+0x14>)
10002518:	f103 0220 	add.w	r2, r3, #32
1000251c:	e8c3 1f8f 	stlb	r1, [r3]
10002520:	3301      	adds	r3, #1
10002522:	4293      	cmp	r3, r2
10002524:	d1fa      	bne.n	1000251c <spin_locks_reset+0x8>
10002526:	4770      	bx	lr
10002528:	20001210 	.word	0x20001210

1000252c <runtime_init_per_core_irq_priorities>:
1000252c:	f04f 23e0 	mov.w	r3, #3758153728	@ 0xe000e000
10002530:	f04f 3280 	mov.w	r2, #2155905152	@ 0x80808080
10002534:	f8c3 2400 	str.w	r2, [r3, #1024]	@ 0x400
10002538:	f8c3 2404 	str.w	r2, [r3, #1028]	@ 0x404
1000253c:	f8c3 2408 	str.w	r2, [r3, #1032]	@ 0x408
10002540:	f8c3 240c 	str.w	r2, [r3, #1036]	@ 0x40c
10002544:	f8c3 2410 	str.w	r2, [r3, #1040]	@ 0x410
10002548:	f8c3 2414 	str.w	r2, [r3, #1044]	@ 0x414
1000254c:	f8c3 2418 	str.w	r2, [r3, #1048]	@ 0x418
10002550:	f8c3 241c 	str.w	r2, [r3, #1052]	@ 0x41c
10002554:	f8c3 2420 	str.w	r2, [r3, #1056]	@ 0x420
10002558:	f8c3 2424 	str.w	r2, [r3, #1060]	@ 0x424
1000255c:	f8c3 2428 	str.w	r2, [r3, #1064]	@ 0x428
10002560:	f8c3 242c 	str.w	r2, [r3, #1068]	@ 0x42c
10002564:	f8c3 2430 	str.w	r2, [r3, #1072]	@ 0x430
10002568:	4770      	bx	lr
1000256a:	bf00      	nop

1000256c <irq_set_enabled>:
1000256c:	2301      	movs	r3, #1
1000256e:	f000 021f 	and.w	r2, r0, #31
10002572:	4093      	lsls	r3, r2
10002574:	0940      	lsrs	r0, r0, #5
10002576:	b141      	cbz	r1, 1000258a <irq_set_enabled+0x1e>
10002578:	0080      	lsls	r0, r0, #2
1000257a:	f100 4060 	add.w	r0, r0, #3758096384	@ 0xe0000000
1000257e:	f500 4061 	add.w	r0, r0, #57600	@ 0xe100
10002582:	f8c0 3180 	str.w	r3, [r0, #384]	@ 0x180
10002586:	6003      	str	r3, [r0, #0]
10002588:	4770      	bx	lr
1000258a:	4a02      	ldr	r2, [pc, #8]	@ (10002594 <irq_set_enabled+0x28>)
1000258c:	3020      	adds	r0, #32
1000258e:	f842 3020 	str.w	r3, [r2, r0, lsl #2]
10002592:	4770      	bx	lr
10002594:	e000e100 	.word	0xe000e100

10002598 <irq_set_exclusive_handler>:
10002598:	b5f8      	push	{r3, r4, r5, r6, r7, lr}
1000259a:	460d      	mov	r5, r1
1000259c:	f3ef 8710 	mrs	r7, PRIMASK
100025a0:	b672      	cpsid	i
100025a2:	4e12      	ldr	r6, [pc, #72]	@ (100025ec <irq_set_exclusive_handler+0x54>)
100025a4:	e8d6 2fcf 	ldaexb	r2, [r6]
100025a8:	2301      	movs	r3, #1
100025aa:	2a00      	cmp	r2, #0
100025ac:	d1fa      	bne.n	100025a4 <irq_set_exclusive_handler+0xc>
100025ae:	e8c6 3f42 	strexb	r2, r3, [r6]
100025b2:	2a00      	cmp	r2, #0
100025b4:	d1f6      	bne.n	100025a4 <irq_set_exclusive_handler+0xc>
100025b6:	f3bf 8f5f 	dmb	sy
100025ba:	4b0d      	ldr	r3, [pc, #52]	@ (100025f0 <irq_set_exclusive_handler+0x58>)
100025bc:	f100 0410 	add.w	r4, r0, #16
100025c0:	689b      	ldr	r3, [r3, #8]
100025c2:	4a0c      	ldr	r2, [pc, #48]	@ (100025f4 <irq_set_exclusive_handler+0x5c>)
100025c4:	f853 3024 	ldr.w	r3, [r3, r4, lsl #2]
100025c8:	4293      	cmp	r3, r2
100025ca:	d003      	beq.n	100025d4 <irq_set_exclusive_handler+0x3c>
100025cc:	4299      	cmp	r1, r3
100025ce:	d001      	beq.n	100025d4 <irq_set_exclusive_handler+0x3c>
100025d0:	f000 ff78 	bl	100034c4 <hard_assertion_failure>
100025d4:	4b06      	ldr	r3, [pc, #24]	@ (100025f0 <irq_set_exclusive_handler+0x58>)
100025d6:	689b      	ldr	r3, [r3, #8]
100025d8:	f843 5024 	str.w	r5, [r3, r4, lsl #2]
100025dc:	f3bf 8f5f 	dmb	sy
100025e0:	2300      	movs	r3, #0
100025e2:	e8c6 3f8f 	stlb	r3, [r6]
100025e6:	f387 8810 	msr	PRIMASK, r7
100025ea:	bdf8      	pop	{r3, r4, r5, r6, r7, pc}
100025ec:	20001219 	.word	0x20001219
100025f0:	e000ed00 	.word	0xe000ed00
100025f4:	1000011d 	.word	0x1000011d

100025f8 <irq_remove_handler>:
100025f8:	e92d 4ff0 	stmdb	sp!, {r4, r5, r6, r7, r8, r9, sl, fp, lr}
100025fc:	b083      	sub	sp, #12
100025fe:	f3ef 8a10 	mrs	sl, PRIMASK
10002602:	b672      	cpsid	i
10002604:	4e74      	ldr	r6, [pc, #464]	@ (100027d8 <irq_remove_handler+0x1e0>)
10002606:	e8d6 2fcf 	ldaexb	r2, [r6]
1000260a:	2301      	movs	r3, #1
1000260c:	2a00      	cmp	r2, #0
1000260e:	d1fa      	bne.n	10002606 <irq_remove_handler+0xe>
10002610:	e8c6 3f42 	strexb	r2, r3, [r6]
10002614:	2a00      	cmp	r2, #0
10002616:	d1f6      	bne.n	10002606 <irq_remove_handler+0xe>
10002618:	f3bf 8f5f 	dmb	sy
1000261c:	4b6f      	ldr	r3, [pc, #444]	@ (100027dc <irq_remove_handler+0x1e4>)
1000261e:	f100 0810 	add.w	r8, r0, #16
10002622:	689b      	ldr	r3, [r3, #8]
10002624:	4a6e      	ldr	r2, [pc, #440]	@ (100027e0 <irq_remove_handler+0x1e8>)
10002626:	f853 5028 	ldr.w	r5, [r3, r8, lsl #2]
1000262a:	4295      	cmp	r5, r2
1000262c:	d03f      	beq.n	100026ae <irq_remove_handler+0xb6>
1000262e:	428d      	cmp	r5, r1
10002630:	460c      	mov	r4, r1
10002632:	d04a      	beq.n	100026ca <irq_remove_handler+0xd2>
10002634:	4f6b      	ldr	r7, [pc, #428]	@ (100027e4 <irq_remove_handler+0x1ec>)
10002636:	1beb      	subs	r3, r5, r7
10002638:	2b2f      	cmp	r3, #47	@ 0x2f
1000263a:	d838      	bhi.n	100026ae <irq_remove_handler+0xb6>
1000263c:	2101      	movs	r1, #1
1000263e:	ea4f 1950 	mov.w	r9, r0, lsr #5
10002642:	ea4f 0989 	mov.w	r9, r9, lsl #2
10002646:	f109 4960 	add.w	r9, r9, #3758096384	@ 0xe0000000
1000264a:	f509 4961 	add.w	r9, r9, #57600	@ 0xe100
1000264e:	f000 031f 	and.w	r3, r0, #31
10002652:	fa01 f003 	lsl.w	r0, r1, r3
10002656:	f8d9 3000 	ldr.w	r3, [r9]
1000265a:	f8c9 0080 	str.w	r0, [r9, #128]	@ 0x80
1000265e:	ea00 0b03 	and.w	fp, r0, r3
10002662:	f3bf 8f5f 	dmb	sy
10002666:	f3ef 8105 	mrs	r1, IPSR
1000266a:	b2c9      	uxtb	r1, r1
1000266c:	b379      	cbz	r1, 100026ce <irq_remove_handler+0xd6>
1000266e:	4588      	cmp	r8, r1
10002670:	d177      	bne.n	10002762 <irq_remove_handler+0x16a>
10002672:	f025 0e01 	bic.w	lr, r5, #1
10002676:	f8de c008 	ldr.w	ip, [lr, #8]
1000267a:	4564      	cmp	r4, ip
1000267c:	d105      	bne.n	1000268a <irq_remove_handler+0x92>
1000267e:	e07c      	b.n	1000277a <irq_remove_handler+0x182>
10002680:	f8d3 c008 	ldr.w	ip, [r3, #8]
10002684:	4564      	cmp	r4, ip
10002686:	d032      	beq.n	100026ee <irq_remove_handler+0xf6>
10002688:	469e      	mov	lr, r3
1000268a:	f99e 2006 	ldrsb.w	r2, [lr, #6]
1000268e:	eb02 0342 	add.w	r3, r2, r2, lsl #1
10002692:	2a00      	cmp	r2, #0
10002694:	eb07 0383 	add.w	r3, r7, r3, lsl #2
10002698:	daf2      	bge.n	10002680 <irq_remove_handler+0x88>
1000269a:	4564      	cmp	r4, ip
1000269c:	f000 8081 	beq.w	100027a2 <irq_remove_handler+0x1aa>
100026a0:	f1bb 0f00 	cmp.w	fp, #0
100026a4:	d020      	beq.n	100026e8 <irq_remove_handler+0xf0>
100026a6:	f8c9 0180 	str.w	r0, [r9, #384]	@ 0x180
100026aa:	f8c9 0000 	str.w	r0, [r9]
100026ae:	4b4b      	ldr	r3, [pc, #300]	@ (100027dc <irq_remove_handler+0x1e4>)
100026b0:	689b      	ldr	r3, [r3, #8]
100026b2:	f843 5028 	str.w	r5, [r3, r8, lsl #2]
100026b6:	f3bf 8f5f 	dmb	sy
100026ba:	2300      	movs	r3, #0
100026bc:	e8c6 3f8f 	stlb	r3, [r6]
100026c0:	f38a 8810 	msr	PRIMASK, sl
100026c4:	b003      	add	sp, #12
100026c6:	e8bd 8ff0 	ldmia.w	sp!, {r4, r5, r6, r7, r8, r9, sl, fp, pc}
100026ca:	4615      	mov	r5, r2
100026cc:	e7ef      	b.n	100026ae <irq_remove_handler+0xb6>
100026ce:	f025 0e01 	bic.w	lr, r5, #1
100026d2:	f8de c008 	ldr.w	ip, [lr, #8]
100026d6:	4564      	cmp	r4, ip
100026d8:	d1d7      	bne.n	1000268a <irq_remove_handler+0x92>
100026da:	f99e 4006 	ldrsb.w	r4, [lr, #6]
100026de:	4673      	mov	r3, lr
100026e0:	2c00      	cmp	r4, #0
100026e2:	da08      	bge.n	100026f6 <irq_remove_handler+0xfe>
100026e4:	4615      	mov	r5, r2
100026e6:	e066      	b.n	100027b6 <irq_remove_handler+0x1be>
100026e8:	f8c9 0080 	str.w	r0, [r9, #128]	@ 0x80
100026ec:	e7df      	b.n	100026ae <irq_remove_handler+0xb6>
100026ee:	f993 4006 	ldrsb.w	r4, [r3, #6]
100026f2:	2c00      	cmp	r4, #0
100026f4:	db56      	blt.n	100027a4 <irq_remove_handler+0x1ac>
100026f6:	eb04 0c44 	add.w	ip, r4, r4, lsl #1
100026fa:	eb07 0c8c 	add.w	ip, r7, ip, lsl #2
100026fe:	f8dc 2008 	ldr.w	r2, [ip, #8]
10002702:	0061      	lsls	r1, r4, #1
10002704:	609a      	str	r2, [r3, #8]
10002706:	f89c 2007 	ldrb.w	r2, [ip, #7]
1000270a:	71da      	strb	r2, [r3, #7]
1000270c:	f99c 2006 	ldrsb.w	r2, [ip, #6]
10002710:	2a00      	cmp	r2, #0
10002712:	719a      	strb	r2, [r3, #6]
10002714:	db5d      	blt.n	100027d2 <irq_remove_handler+0x1da>
10002716:	f8bc 2004 	ldrh.w	r2, [ip, #4]
1000271a:	0552      	lsls	r2, r2, #21
1000271c:	d504      	bpl.n	10002728 <irq_remove_handler+0x130>
1000271e:	f502 12ff 	add.w	r2, r2, #2088960	@ 0x1fe000
10002722:	f502 52ff 	add.w	r2, r2, #8160	@ 0x1fe0
10002726:	321f      	adds	r2, #31
10002728:	1552      	asrs	r2, r2, #21
1000272a:	f102 0c02 	add.w	ip, r2, #2
1000272e:	f04f 0e04 	mov.w	lr, #4
10002732:	220c      	movs	r2, #12
10002734:	fb12 e204 	smlabb	r2, r2, r4, lr
10002738:	eb02 024c 	add.w	r2, r2, ip, lsl #1
1000273c:	f06f 0c07 	mvn.w	ip, #7
10002740:	443a      	add	r2, r7
10002742:	ebac 0c03 	sub.w	ip, ip, r3
10002746:	4462      	add	r2, ip
10002748:	f3c2 024a 	ubfx	r2, r2, #1, #11
1000274c:	f442 4260 	orr.w	r2, r2, #57344	@ 0xe000
10002750:	809a      	strh	r2, [r3, #4]
10002752:	4b25      	ldr	r3, [pc, #148]	@ (100027e8 <irq_remove_handler+0x1f0>)
10002754:	4421      	add	r1, r4
10002756:	781a      	ldrb	r2, [r3, #0]
10002758:	eb07 0181 	add.w	r1, r7, r1, lsl #2
1000275c:	701c      	strb	r4, [r3, #0]
1000275e:	718a      	strb	r2, [r1, #6]
10002760:	e79e      	b.n	100026a0 <irq_remove_handler+0xa8>
10002762:	e9cd 0100 	strd	r0, r1, [sp]
10002766:	f000 fead 	bl	100034c4 <hard_assertion_failure>
1000276a:	e9dd 0100 	ldrd	r0, r1, [sp]
1000276e:	f025 0e01 	bic.w	lr, r5, #1
10002772:	f8de c008 	ldr.w	ip, [lr, #8]
10002776:	4564      	cmp	r4, ip
10002778:	d187      	bne.n	1000268a <irq_remove_handler+0x92>
1000277a:	f99e 4006 	ldrsb.w	r4, [lr, #6]
1000277e:	4673      	mov	r3, lr
10002780:	2c00      	cmp	r4, #0
10002782:	dab8      	bge.n	100026f6 <irq_remove_handler+0xfe>
10002784:	4a19      	ldr	r2, [pc, #100]	@ (100027ec <irq_remove_handler+0x1f4>)
10002786:	4c1a      	ldr	r4, [pc, #104]	@ (100027f0 <irq_remove_handler+0x1f8>)
10002788:	1ad2      	subs	r2, r2, r3
1000278a:	3a08      	subs	r2, #8
1000278c:	f3c2 310a 	ubfx	r1, r2, #12, #11
10002790:	ea6f 5101 	mvn.w	r1, r1, lsl #20
10002794:	ea6f 5111 	mvn.w	r1, r1, lsr #20
10002798:	ea44 0252 	orr.w	r2, r4, r2, lsr #1
1000279c:	80da      	strh	r2, [r3, #6]
1000279e:	8099      	strh	r1, [r3, #4]
100027a0:	e77e      	b.n	100026a0 <irq_remove_handler+0xa8>
100027a2:	4673      	mov	r3, lr
100027a4:	2900      	cmp	r1, #0
100027a6:	d1ed      	bne.n	10002784 <irq_remove_handler+0x18c>
100027a8:	22ff      	movs	r2, #255	@ 0xff
100027aa:	f88e 2006 	strb.w	r2, [lr, #6]
100027ae:	f64b 5201 	movw	r2, #48385	@ 0xbd01
100027b2:	f8ae 2004 	strh.w	r2, [lr, #4]
100027b6:	4c0c      	ldr	r4, [pc, #48]	@ (100027e8 <irq_remove_handler+0x1f0>)
100027b8:	f64a 22aa 	movw	r2, #43690	@ 0xaaaa
100027bc:	f894 c000 	ldrb.w	ip, [r4]
100027c0:	4619      	mov	r1, r3
100027c2:	1bc9      	subs	r1, r1, r7
100027c4:	4149      	adcs	r1, r1
100027c6:	434a      	muls	r2, r1
100027c8:	0d12      	lsrs	r2, r2, #20
100027ca:	f883 c006 	strb.w	ip, [r3, #6]
100027ce:	7022      	strb	r2, [r4, #0]
100027d0:	e766      	b.n	100026a0 <irq_remove_handler+0xa8>
100027d2:	f64b 5201 	movw	r2, #48385	@ 0xbd01
100027d6:	e7bb      	b.n	10002750 <irq_remove_handler+0x158>
100027d8:	20001219 	.word	0x20001219
100027dc:	e000ed00 	.word	0xe000ed00
100027e0:	1000011d 	.word	0x1000011d
100027e4:	20000674 	.word	0x20000674
100027e8:	20001394 	.word	0x20001394
100027ec:	200006ae 	.word	0x200006ae
100027f0:	fffff800 	.word	0xfffff800

100027f4 <irq_add_tail_to_free_list>:
100027f4:	b5f0      	push	{r4, r5, r6, r7, lr}
100027f6:	f3ef 8505 	mrs	r5, IPSR
100027fa:	b2ed      	uxtb	r5, r5
100027fc:	f3ef 8c10 	mrs	ip, PRIMASK
10002800:	b672      	cpsid	i
10002802:	4926      	ldr	r1, [pc, #152]	@ (1000289c <irq_add_tail_to_free_list+0xa8>)
10002804:	e8d1 2fcf 	ldaexb	r2, [r1]
10002808:	2301      	movs	r3, #1
1000280a:	2a00      	cmp	r2, #0
1000280c:	d1fa      	bne.n	10002804 <irq_add_tail_to_free_list+0x10>
1000280e:	e8c1 3f42 	strexb	r2, r3, [r1]
10002812:	2a00      	cmp	r2, #0
10002814:	d1f6      	bne.n	10002804 <irq_add_tail_to_free_list+0x10>
10002816:	f3bf 8f5f 	dmb	sy
1000281a:	4e21      	ldr	r6, [pc, #132]	@ (100028a0 <irq_add_tail_to_free_list+0xac>)
1000281c:	f040 0e01 	orr.w	lr, r0, #1
10002820:	68b4      	ldr	r4, [r6, #8]
10002822:	f64a 23aa 	movw	r3, #43690	@ 0xaaaa
10002826:	f854 7025 	ldr.w	r7, [r4, r5, lsl #2]
1000282a:	4a1e      	ldr	r2, [pc, #120]	@ (100028a4 <irq_add_tail_to_free_list+0xb0>)
1000282c:	4604      	mov	r4, r0
1000282e:	1aa4      	subs	r4, r4, r2
10002830:	4164      	adcs	r4, r4
10002832:	4363      	muls	r3, r4
10002834:	0d1b      	lsrs	r3, r3, #20
10002836:	4577      	cmp	r7, lr
10002838:	b25b      	sxtb	r3, r3
1000283a:	d01b      	beq.n	10002874 <irq_add_tail_to_free_list+0x80>
1000283c:	f992 4006 	ldrsb.w	r4, [r2, #6]
10002840:	429c      	cmp	r4, r3
10002842:	d01c      	beq.n	1000287e <irq_add_tail_to_free_list+0x8a>
10002844:	f992 4012 	ldrsb.w	r4, [r2, #18]
10002848:	429c      	cmp	r4, r3
1000284a:	d023      	beq.n	10002894 <irq_add_tail_to_free_list+0xa0>
1000284c:	f992 401e 	ldrsb.w	r4, [r2, #30]
10002850:	429c      	cmp	r4, r3
10002852:	d021      	beq.n	10002898 <irq_add_tail_to_free_list+0xa4>
10002854:	f992 402a 	ldrsb.w	r4, [r2, #42]	@ 0x2a
10002858:	429c      	cmp	r4, r3
1000285a:	bf08      	it	eq
1000285c:	2403      	moveq	r4, #3
1000285e:	d00f      	beq.n	10002880 <irq_add_tail_to_free_list+0x8c>
10002860:	4a11      	ldr	r2, [pc, #68]	@ (100028a8 <irq_add_tail_to_free_list+0xb4>)
10002862:	2400      	movs	r4, #0
10002864:	7815      	ldrb	r5, [r2, #0]
10002866:	7013      	strb	r3, [r2, #0]
10002868:	7185      	strb	r5, [r0, #6]
1000286a:	e8c1 4f8f 	stlb	r4, [r1]
1000286e:	f38c 8810 	msr	PRIMASK, ip
10002872:	bdf0      	pop	{r4, r5, r6, r7, pc}
10002874:	68b2      	ldr	r2, [r6, #8]
10002876:	4c0d      	ldr	r4, [pc, #52]	@ (100028ac <irq_add_tail_to_free_list+0xb8>)
10002878:	f842 4025 	str.w	r4, [r2, r5, lsl #2]
1000287c:	e7f0      	b.n	10002860 <irq_add_tail_to_free_list+0x6c>
1000287e:	2400      	movs	r4, #0
10002880:	eb04 0444 	add.w	r4, r4, r4, lsl #1
10002884:	eb02 0284 	add.w	r2, r2, r4, lsl #2
10002888:	24ff      	movs	r4, #255	@ 0xff
1000288a:	7194      	strb	r4, [r2, #6]
1000288c:	f64b 5401 	movw	r4, #48385	@ 0xbd01
10002890:	8094      	strh	r4, [r2, #4]
10002892:	e7e5      	b.n	10002860 <irq_add_tail_to_free_list+0x6c>
10002894:	2401      	movs	r4, #1
10002896:	e7f3      	b.n	10002880 <irq_add_tail_to_free_list+0x8c>
10002898:	2402      	movs	r4, #2
1000289a:	e7f1      	b.n	10002880 <irq_add_tail_to_free_list+0x8c>
1000289c:	20001219 	.word	0x20001219
100028a0:	e000ed00 	.word	0xe000ed00
100028a4:	20000674 	.word	0x20000674
100028a8:	20001394 	.word	0x20001394
100028ac:	1000011d 	.word	0x1000011d

100028b0 <lock_init>:
100028b0:	4b01      	ldr	r3, [pc, #4]	@ (100028b8 <lock_init+0x8>)
100028b2:	440b      	add	r3, r1
100028b4:	6003      	str	r3, [r0, #0]
100028b6:	4770      	bx	lr
100028b8:	20001210 	.word	0x20001210

100028bc <runtime_init_mutex>:
100028bc:	b570      	push	{r4, r5, r6, lr}
100028be:	4c10      	ldr	r4, [pc, #64]	@ (10002900 <runtime_init_mutex+0x44>)
100028c0:	4d10      	ldr	r5, [pc, #64]	@ (10002904 <runtime_init_mutex+0x48>)
100028c2:	42ac      	cmp	r4, r5
100028c4:	d20e      	bcs.n	100028e4 <runtime_init_mutex+0x28>
100028c6:	26ff      	movs	r6, #255	@ 0xff
100028c8:	6823      	ldr	r3, [r4, #0]
100028ca:	b163      	cbz	r3, 100028e6 <runtime_init_mutex+0x2a>
100028cc:	f7ff fe0e 	bl	100024ec <next_striped_spin_lock_num>
100028d0:	4601      	mov	r1, r0
100028d2:	4620      	mov	r0, r4
100028d4:	f7ff ffec 	bl	100028b0 <lock_init>
100028d8:	80a6      	strh	r6, [r4, #4]
100028da:	f3bf 8f5f 	dmb	sy
100028de:	3408      	adds	r4, #8
100028e0:	42ac      	cmp	r4, r5
100028e2:	d3f1      	bcc.n	100028c8 <runtime_init_mutex+0xc>
100028e4:	bd70      	pop	{r4, r5, r6, pc}
100028e6:	f7ff fe01 	bl	100024ec <next_striped_spin_lock_num>
100028ea:	4601      	mov	r1, r0
100028ec:	4620      	mov	r0, r4
100028ee:	f7ff ffdf 	bl	100028b0 <lock_init>
100028f2:	7126      	strb	r6, [r4, #4]
100028f4:	f3bf 8f5f 	dmb	sy
100028f8:	3408      	adds	r4, #8
100028fa:	42ac      	cmp	r4, r5
100028fc:	d3e4      	bcc.n	100028c8 <runtime_init_mutex+0xc>
100028fe:	bd70      	pop	{r4, r5, r6, pc}
10002900:	20000dc8 	.word	0x20000dc8
10002904:	20000dd0 	.word	0x20000dd0

10002908 <sleep_until_callback>:
10002908:	4b0d      	ldr	r3, [pc, #52]	@ (10002940 <sleep_until_callback+0x38>)
1000290a:	681a      	ldr	r2, [r3, #0]
1000290c:	f3ef 8110 	mrs	r1, PRIMASK
10002910:	b672      	cpsid	i
10002912:	e8d2 cfcf 	ldaexb	ip, [r2]
10002916:	2001      	movs	r0, #1
10002918:	f1bc 0f00 	cmp.w	ip, #0
1000291c:	d1f9      	bne.n	10002912 <sleep_until_callback+0xa>
1000291e:	e8c2 0f4c 	strexb	ip, r0, [r2]
10002922:	f1bc 0f00 	cmp.w	ip, #0
10002926:	d1f4      	bne.n	10002912 <sleep_until_callback+0xa>
10002928:	f3bf 8f5f 	dmb	sy
1000292c:	2200      	movs	r2, #0
1000292e:	681b      	ldr	r3, [r3, #0]
10002930:	e8c3 2f8f 	stlb	r2, [r3]
10002934:	f381 8810 	msr	PRIMASK, r1
10002938:	bf40      	sev
1000293a:	2000      	movs	r0, #0
1000293c:	2100      	movs	r1, #0
1000293e:	4770      	bx	lr
10002940:	20001388 	.word	0x20001388
10002944:	00000000 	.word	0x00000000

10002948 <alarm_pool_irq_handler>:
10002948:	e92d 4ff0 	stmdb	sp!, {r4, r5, r6, r7, r8, r9, sl, fp, lr}
1000294c:	ed2d 8b02 	vpush	{d8}
10002950:	b085      	sub	sp, #20
10002952:	f3ef 8305 	mrs	r3, IPSR
10002956:	b2db      	uxtb	r3, r3
10002958:	3b10      	subs	r3, #16
1000295a:	089a      	lsrs	r2, r3, #2
1000295c:	bf18      	it	ne
1000295e:	2201      	movne	r2, #1
10002960:	f04f 0101 	mov.w	r1, #1
10002964:	f003 0003 	and.w	r0, r3, #3
10002968:	bf18      	it	ne
1000296a:	4dab      	ldrne	r5, [pc, #684]	@ (10002c18 <alarm_pool_irq_handler+0x2d0>)
1000296c:	4bab      	ldr	r3, [pc, #684]	@ (10002c1c <alarm_pool_irq_handler+0x2d4>)
1000296e:	bf08      	it	eq
10002970:	4dab      	ldreq	r5, [pc, #684]	@ (10002c20 <alarm_pool_irq_handler+0x2d8>)
10002972:	eb00 0282 	add.w	r2, r0, r2, lsl #2
10002976:	fa01 fb00 	lsl.w	fp, r1, r0
1000297a:	f853 6022 	ldr.w	r6, [r3, r2, lsl #2]
1000297e:	f505 5341 	add.w	r3, r5, #12352	@ 0x3040
10002982:	ed9f 8ba3 	vldr	d8, [pc, #652]	@ 10002c10 <alarm_pool_irq_handler+0x2c8>
10002986:	9001      	str	r0, [sp, #4]
10002988:	f8c3 b004 	str.w	fp, [r3, #4]
1000298c:	f8cd b000 	str.w	fp, [sp]
10002990:	e02a      	b.n	100029e8 <alarm_pool_irq_handler+0xa0>
10002992:	88b3      	ldrh	r3, [r6, #4]
10002994:	0418      	lsls	r0, r3, #16
10002996:	f140 808c 	bpl.w	10002ab2 <alarm_pool_irq_handler+0x16a>
1000299a:	79b3      	ldrb	r3, [r6, #6]
1000299c:	2b00      	cmp	r3, #0
1000299e:	f040 80d5 	bne.w	10002b4c <alarm_pool_irq_handler+0x204>
100029a2:	f9b6 1008 	ldrsh.w	r1, [r6, #8]
100029a6:	2900      	cmp	r1, #0
100029a8:	f2c0 8115 	blt.w	10002bd6 <alarm_pool_irq_handler+0x28e>
100029ac:	6973      	ldr	r3, [r6, #20]
100029ae:	eb01 0141 	add.w	r1, r1, r1, lsl #1
100029b2:	eb03 03c1 	add.w	r3, r3, r1, lsl #3
100029b6:	e9d3 4702 	ldrd	r4, r7, [r3, #8]
100029ba:	f1b7 3fff 	cmp.w	r7, #4294967295
100029be:	bf08      	it	eq
100029c0:	f1b4 3fff 	cmpeq.w	r4, #4294967295
100029c4:	d009      	beq.n	100029da <alarm_pool_irq_handler+0x92>
100029c6:	9b01      	ldr	r3, [sp, #4]
100029c8:	eb05 0183 	add.w	r1, r5, r3, lsl #2
100029cc:	6aab      	ldr	r3, [r5, #40]	@ 0x28
100029ce:	690a      	ldr	r2, [r1, #16]
100029d0:	1ad2      	subs	r2, r2, r3
100029d2:	1ae3      	subs	r3, r4, r3
100029d4:	4293      	cmp	r3, r2
100029d6:	bf38      	it	cc
100029d8:	610c      	strcc	r4, [r1, #16]
100029da:	4628      	mov	r0, r5
100029dc:	f000 fb5a 	bl	10003094 <timer_time_us_64>
100029e0:	42a0      	cmp	r0, r4
100029e2:	41b9      	sbcs	r1, r7
100029e4:	f2c0 80f7 	blt.w	10002bd6 <alarm_pool_irq_handler+0x28e>
100029e8:	f9b6 4008 	ldrsh.w	r4, [r6, #8]
100029ec:	9b00      	ldr	r3, [sp, #0]
100029ee:	2c00      	cmp	r4, #0
100029f0:	63eb      	str	r3, [r5, #60]	@ 0x3c
100029f2:	dbce      	blt.n	10002992 <alarm_pool_irq_handler+0x4a>
100029f4:	f8d6 9014 	ldr.w	r9, [r6, #20]
100029f8:	eb04 0a44 	add.w	sl, r4, r4, lsl #1
100029fc:	4628      	mov	r0, r5
100029fe:	eb09 07ca 	add.w	r7, r9, sl, lsl #3
10002a02:	e9d7 b802 	ldrd	fp, r8, [r7, #8]
10002a06:	f000 fb45 	bl	10003094 <timer_time_us_64>
10002a0a:	4558      	cmp	r0, fp
10002a0c:	eb71 0108 	sbcs.w	r1, r1, r8
10002a10:	dbbf      	blt.n	10002992 <alarm_pool_irq_handler+0x4a>
10002a12:	f1b8 0f00 	cmp.w	r8, #0
10002a16:	f2c0 80c1 	blt.w	10002b9c <alarm_pool_irq_handler+0x254>
10002a1a:	e9d7 3104 	ldrd	r3, r1, [r7, #16]
10002a1e:	4a81      	ldr	r2, [pc, #516]	@ (10002c24 <alarm_pool_irq_handler+0x2dc>)
10002a20:	4293      	cmp	r3, r2
10002a22:	f000 80ea 	beq.w	10002bfa <alarm_pool_irq_handler+0x2b2>
10002a26:	887a      	ldrh	r2, [r7, #2]
10002a28:	f9b6 0008 	ldrsh.w	r0, [r6, #8]
10002a2c:	b292      	uxth	r2, r2
10002a2e:	ea42 4000 	orr.w	r0, r2, r0, lsl #16
10002a32:	4798      	blx	r3
10002a34:	4602      	mov	r2, r0
10002a36:	460b      	mov	r3, r1
10002a38:	ea52 0103 	orrs.w	r1, r2, r3
10002a3c:	f000 80ae 	beq.w	10002b9c <alarm_pool_irq_handler+0x254>
10002a40:	2b00      	cmp	r3, #0
10002a42:	f280 80ce 	bge.w	10002be2 <alarm_pool_irq_handler+0x29a>
10002a46:	ebbb 0b02 	subs.w	fp, fp, r2
10002a4a:	eb68 0803 	sbc.w	r8, r8, r3
10002a4e:	f939 303a 	ldrsh.w	r3, [r9, sl, lsl #3]
10002a52:	e9c7 b802 	strd	fp, r8, [r7, #8]
10002a56:	2b00      	cmp	r3, #0
10002a58:	db9b      	blt.n	10002992 <alarm_pool_irq_handler+0x4a>
10002a5a:	6971      	ldr	r1, [r6, #20]
10002a5c:	eb03 0243 	add.w	r2, r3, r3, lsl #1
10002a60:	eb01 02c2 	add.w	r2, r1, r2, lsl #3
10002a64:	e9d2 7002 	ldrd	r7, r0, [r2, #8]
10002a68:	45bb      	cmp	fp, r7
10002a6a:	eb78 0c00 	sbcs.w	ip, r8, r0
10002a6e:	ea4f 0243 	mov.w	r2, r3, lsl #1
10002a72:	db8e      	blt.n	10002992 <alarm_pool_irq_handler+0x4a>
10002a74:	46b4      	mov	ip, r6
10002a76:	f82c 3f08 	strh.w	r3, [ip, #8]!
10002a7a:	e00b      	b.n	10002a94 <alarm_pool_irq_handler+0x14c>
10002a7c:	f931 3032 	ldrsh.w	r3, [r1, r2, lsl #3]
10002a80:	46f4      	mov	ip, lr
10002a82:	2b00      	cmp	r3, #0
10002a84:	db0d      	blt.n	10002aa2 <alarm_pool_irq_handler+0x15a>
10002a86:	eb03 0043 	add.w	r0, r3, r3, lsl #1
10002a8a:	eb01 00c0 	add.w	r0, r1, r0, lsl #3
10002a8e:	005a      	lsls	r2, r3, #1
10002a90:	e9d0 7002 	ldrd	r7, r0, [r0, #8]
10002a94:	45bb      	cmp	fp, r7
10002a96:	441a      	add	r2, r3
10002a98:	eb78 0000 	sbcs.w	r0, r8, r0
10002a9c:	eb01 0ec2 	add.w	lr, r1, r2, lsl #3
10002aa0:	daec      	bge.n	10002a7c <alarm_pool_irq_handler+0x134>
10002aa2:	f829 303a 	strh.w	r3, [r9, sl, lsl #3]
10002aa6:	f8ac 4000 	strh.w	r4, [ip]
10002aaa:	88b3      	ldrh	r3, [r6, #4]
10002aac:	0418      	lsls	r0, r3, #16
10002aae:	f53f af74 	bmi.w	1000299a <alarm_pool_irq_handler+0x52>
10002ab2:	6933      	ldr	r3, [r6, #16]
10002ab4:	f3ef 8210 	mrs	r2, PRIMASK
10002ab8:	b672      	cpsid	i
10002aba:	e8d3 0fcf 	ldaexb	r0, [r3]
10002abe:	2101      	movs	r1, #1
10002ac0:	2800      	cmp	r0, #0
10002ac2:	d1fa      	bne.n	10002aba <alarm_pool_irq_handler+0x172>
10002ac4:	e8c3 1f40 	strexb	r0, r1, [r3]
10002ac8:	2800      	cmp	r0, #0
10002aca:	d1f6      	bne.n	10002aba <alarm_pool_irq_handler+0x172>
10002acc:	f3bf 8f5f 	dmb	sy
10002ad0:	f64f 74ff 	movw	r4, #65535	@ 0xffff
10002ad4:	88b0      	ldrh	r0, [r6, #4]
10002ad6:	2300      	movs	r3, #0
10002ad8:	6931      	ldr	r1, [r6, #16]
10002ada:	b200      	sxth	r0, r0
10002adc:	80b4      	strh	r4, [r6, #4]
10002ade:	e8c1 3f8f 	stlb	r3, [r1]
10002ae2:	f382 8810 	msr	PRIMASK, r2
10002ae6:	4298      	cmp	r0, r3
10002ae8:	f6ff af57 	blt.w	1000299a <alarm_pool_irq_handler+0x52>
10002aec:	4607      	mov	r7, r0
10002aee:	46a9      	mov	r9, r5
10002af0:	6974      	ldr	r4, [r6, #20]
10002af2:	f106 0808 	add.w	r8, r6, #8
10002af6:	eb07 0e47 	add.w	lr, r7, r7, lsl #1
10002afa:	eb04 03ce 	add.w	r3, r4, lr, lsl #3
10002afe:	e9d3 5002 	ldrd	r5, r0, [r3, #8]
10002b02:	f9b6 3008 	ldrsh.w	r3, [r6, #8]
10002b06:	46c4      	mov	ip, r8
10002b08:	2b00      	cmp	r3, #0
10002b0a:	bfa8      	it	ge
10002b0c:	46b3      	movge	fp, r6
10002b0e:	da05      	bge.n	10002b1c <alarm_pool_irq_handler+0x1d4>
10002b10:	e00f      	b.n	10002b32 <alarm_pool_irq_handler+0x1ea>
10002b12:	f934 303a 	ldrsh.w	r3, [r4, sl, lsl #3]
10002b16:	4694      	mov	ip, r2
10002b18:	2b00      	cmp	r3, #0
10002b1a:	db09      	blt.n	10002b30 <alarm_pool_irq_handler+0x1e8>
10002b1c:	eb03 0a43 	add.w	sl, r3, r3, lsl #1
10002b20:	eb04 02ca 	add.w	r2, r4, sl, lsl #3
10002b24:	e9d2 6102 	ldrd	r6, r1, [r2, #8]
10002b28:	42b5      	cmp	r5, r6
10002b2a:	eb70 0101 	sbcs.w	r1, r0, r1
10002b2e:	daf0      	bge.n	10002b12 <alarm_pool_irq_handler+0x1ca>
10002b30:	465e      	mov	r6, fp
10002b32:	f8ac 7000 	strh.w	r7, [ip]
10002b36:	f934 703e 	ldrsh.w	r7, [r4, lr, lsl #3]
10002b3a:	f824 303e 	strh.w	r3, [r4, lr, lsl #3]
10002b3e:	2f00      	cmp	r7, #0
10002b40:	dad9      	bge.n	10002af6 <alarm_pool_irq_handler+0x1ae>
10002b42:	79b3      	ldrb	r3, [r6, #6]
10002b44:	464d      	mov	r5, r9
10002b46:	2b00      	cmp	r3, #0
10002b48:	f43f af2b 	beq.w	100029a2 <alarm_pool_irq_handler+0x5a>
10002b4c:	2300      	movs	r3, #0
10002b4e:	71b3      	strb	r3, [r6, #6]
10002b50:	f9b6 3008 	ldrsh.w	r3, [r6, #8]
10002b54:	f106 0808 	add.w	r8, r6, #8
10002b58:	1c59      	adds	r1, r3, #1
10002b5a:	d03c      	beq.n	10002bd6 <alarm_pool_irq_handler+0x28e>
10002b5c:	4619      	mov	r1, r3
10002b5e:	6977      	ldr	r7, [r6, #20]
10002b60:	e003      	b.n	10002b6a <alarm_pool_irq_handler+0x222>
10002b62:	4680      	mov	r8, r0
10002b64:	1c5a      	adds	r2, r3, #1
10002b66:	f43f af1e 	beq.w	100029a6 <alarm_pool_irq_handler+0x5e>
10002b6a:	eb03 0243 	add.w	r2, r3, r3, lsl #1
10002b6e:	eb07 00c2 	add.w	r0, r7, r2, lsl #3
10002b72:	f8b0 c002 	ldrh.w	ip, [r0, #2]
10002b76:	461c      	mov	r4, r3
10002b78:	f41c 4f00 	tst.w	ip, #32768	@ 0x8000
10002b7c:	469e      	mov	lr, r3
10002b7e:	f937 3032 	ldrsh.w	r3, [r7, r2, lsl #3]
10002b82:	d0ee      	beq.n	10002b62 <alarm_pool_irq_handler+0x21a>
10002b84:	428c      	cmp	r4, r1
10002b86:	ed80 8b02 	vstr	d8, [r0, #8]
10002b8a:	d005      	beq.n	10002b98 <alarm_pool_irq_handler+0x250>
10002b8c:	f8a8 3000 	strh.w	r3, [r8]
10002b90:	8931      	ldrh	r1, [r6, #8]
10002b92:	f827 1032 	strh.w	r1, [r7, r2, lsl #3]
10002b96:	8134      	strh	r4, [r6, #8]
10002b98:	4671      	mov	r1, lr
10002b9a:	e7e3      	b.n	10002b64 <alarm_pool_irq_handler+0x21c>
10002b9c:	f839 303a 	ldrh.w	r3, [r9, sl, lsl #3]
10002ba0:	8133      	strh	r3, [r6, #8]
10002ba2:	6933      	ldr	r3, [r6, #16]
10002ba4:	f3ef 8210 	mrs	r2, PRIMASK
10002ba8:	b672      	cpsid	i
10002baa:	e8d3 0fcf 	ldaexb	r0, [r3]
10002bae:	2101      	movs	r1, #1
10002bb0:	2800      	cmp	r0, #0
10002bb2:	d1fa      	bne.n	10002baa <alarm_pool_irq_handler+0x262>
10002bb4:	e8c3 1f40 	strexb	r0, r1, [r3]
10002bb8:	2800      	cmp	r0, #0
10002bba:	d1f6      	bne.n	10002baa <alarm_pool_irq_handler+0x262>
10002bbc:	f3bf 8f5f 	dmb	sy
10002bc0:	8873      	ldrh	r3, [r6, #2]
10002bc2:	6931      	ldr	r1, [r6, #16]
10002bc4:	f829 303a 	strh.w	r3, [r9, sl, lsl #3]
10002bc8:	2300      	movs	r3, #0
10002bca:	8074      	strh	r4, [r6, #2]
10002bcc:	e8c1 3f8f 	stlb	r3, [r1]
10002bd0:	f382 8810 	msr	PRIMASK, r2
10002bd4:	e6dd      	b.n	10002992 <alarm_pool_irq_handler+0x4a>
10002bd6:	bf40      	sev
10002bd8:	b005      	add	sp, #20
10002bda:	ecbd 8b02 	vpop	{d8}
10002bde:	e8bd 8ff0 	ldmia.w	sp!, {r4, r5, r6, r7, r8, r9, sl, fp, pc}
10002be2:	4628      	mov	r0, r5
10002be4:	e9cd 2302 	strd	r2, r3, [sp, #8]
10002be8:	f000 fa54 	bl	10003094 <timer_time_us_64>
10002bec:	9a02      	ldr	r2, [sp, #8]
10002bee:	9b03      	ldr	r3, [sp, #12]
10002bf0:	eb10 0b02 	adds.w	fp, r0, r2
10002bf4:	eb43 0801 	adc.w	r8, r3, r1
10002bf8:	e729      	b.n	10002a4e <alarm_pool_irq_handler+0x106>
10002bfa:	4608      	mov	r0, r1
10002bfc:	690b      	ldr	r3, [r1, #16]
10002bfe:	9102      	str	r1, [sp, #8]
10002c00:	4798      	blx	r3
10002c02:	2800      	cmp	r0, #0
10002c04:	d0ca      	beq.n	10002b9c <alarm_pool_irq_handler+0x254>
10002c06:	9902      	ldr	r1, [sp, #8]
10002c08:	e9d1 2300 	ldrd	r2, r3, [r1]
10002c0c:	e714      	b.n	10002a38 <alarm_pool_irq_handler+0xf0>
10002c0e:	bf00      	nop
10002c10:	ffffffff 	.word	0xffffffff
10002c14:	ffffffff 	.word	0xffffffff
10002c18:	400b8000 	.word	0x400b8000
10002c1c:	20001324 	.word	0x20001324
10002c20:	400b0000 	.word	0x400b0000
10002c24:	10002949 	.word	0x10002949

10002c28 <runtime_init_default_alarm_pool>:
10002c28:	e92d 4ff8 	stmdb	sp!, {r3, r4, r5, r6, r7, r8, r9, sl, fp, lr}
10002c2c:	4c36      	ldr	r4, [pc, #216]	@ (10002d08 <runtime_init_default_alarm_pool+0xe0>)
10002c2e:	6925      	ldr	r5, [r4, #16]
10002c30:	b12d      	cbz	r5, 10002c3e <runtime_init_default_alarm_pool+0x16>
10002c32:	e8bd 4ff8 	ldmia.w	sp!, {r3, r4, r5, r6, r7, r8, r9, sl, fp, lr}
10002c36:	210a      	movs	r1, #10
10002c38:	4834      	ldr	r0, [pc, #208]	@ (10002d0c <runtime_init_default_alarm_pool+0xe4>)
10002c3a:	f7ff be39 	b.w	100028b0 <lock_init>
10002c3e:	f8df 80e4 	ldr.w	r8, [pc, #228]	@ 10002d24 <runtime_init_default_alarm_pool+0xfc>
10002c42:	2103      	movs	r1, #3
10002c44:	4640      	mov	r0, r8
10002c46:	f000 fa13 	bl	10003070 <timer_hardware_alarm_claim>
10002c4a:	2603      	movs	r6, #3
10002c4c:	f8c4 800c 	str.w	r8, [r4, #12]
10002c50:	f7ff fc4c 	bl	100024ec <next_striped_spin_lock_num>
10002c54:	f04f 4c50 	mov.w	ip, #3489660928	@ 0xd0000000
10002c58:	4b2d      	ldr	r3, [pc, #180]	@ (10002d10 <runtime_init_default_alarm_pool+0xe8>)
10002c5a:	7026      	strb	r6, [r4, #0]
10002c5c:	4403      	add	r3, r0
10002c5e:	6123      	str	r3, [r4, #16]
10002c60:	f8dc 3000 	ldr.w	r3, [ip]
10002c64:	210f      	movs	r1, #15
10002c66:	7063      	strb	r3, [r4, #1]
10002c68:	6963      	ldr	r3, [r4, #20]
10002c6a:	8061      	strh	r1, [r4, #2]
10002c6c:	831d      	strh	r5, [r3, #24]
10002c6e:	f04f 0504 	mov.w	r5, #4
10002c72:	f8a3 5078 	strh.w	r5, [r3, #120]	@ 0x78
10002c76:	f04f 0505 	mov.w	r5, #5
10002c7a:	f8a3 5090 	strh.w	r5, [r3, #144]	@ 0x90
10002c7e:	f04f 0506 	mov.w	r5, #6
10002c82:	f8a3 50a8 	strh.w	r5, [r3, #168]	@ 0xa8
10002c86:	f04f 0507 	mov.w	r5, #7
10002c8a:	210e      	movs	r1, #14
10002c8c:	f64f 72ff 	movw	r2, #65535	@ 0xffff
10002c90:	2708      	movs	r7, #8
10002c92:	f04f 0e0a 	mov.w	lr, #10
10002c96:	f8a3 50c0 	strh.w	r5, [r3, #192]	@ 0xc0
10002c9a:	f04f 0901 	mov.w	r9, #1
10002c9e:	f04f 0c0c 	mov.w	ip, #12
10002ca2:	f04f 0b02 	mov.w	fp, #2
10002ca6:	f04f 0a09 	mov.w	sl, #9
10002caa:	200d      	movs	r0, #13
10002cac:	f04f 050b 	mov.w	r5, #11
10002cb0:	f8a3 1168 	strh.w	r1, [r3, #360]	@ 0x168
10002cb4:	4917      	ldr	r1, [pc, #92]	@ (10002d14 <runtime_init_default_alarm_pool+0xec>)
10002cb6:	80a2      	strh	r2, [r4, #4]
10002cb8:	f8a3 e108 	strh.w	lr, [r3, #264]	@ 0x108
10002cbc:	60a1      	str	r1, [r4, #8]
10002cbe:	f8a3 b048 	strh.w	fp, [r3, #72]	@ 0x48
10002cc2:	f8a3 a0f0 	strh.w	sl, [r3, #240]	@ 0xf0
10002cc6:	f8a3 5120 	strh.w	r5, [r3, #288]	@ 0x120
10002cca:	f8a3 c138 	strh.w	ip, [r3, #312]	@ 0x138
10002cce:	f8a3 0150 	strh.w	r0, [r3, #336]	@ 0x150
10002cd2:	f8a3 9030 	strh.w	r9, [r3, #48]	@ 0x30
10002cd6:	f8a3 6060 	strh.w	r6, [r3, #96]	@ 0x60
10002cda:	f8a3 70d8 	strh.w	r7, [r3, #216]	@ 0xd8
10002cde:	801a      	strh	r2, [r3, #0]
10002ce0:	4b0d      	ldr	r3, [pc, #52]	@ (10002d18 <runtime_init_default_alarm_pool+0xf0>)
10002ce2:	4630      	mov	r0, r6
10002ce4:	f8c8 7020 	str.w	r7, [r8, #32]
10002ce8:	490c      	ldr	r1, [pc, #48]	@ (10002d1c <runtime_init_default_alarm_pool+0xf4>)
10002cea:	60dc      	str	r4, [r3, #12]
10002cec:	f7ff fc54 	bl	10002598 <irq_set_exclusive_handler>
10002cf0:	4649      	mov	r1, r9
10002cf2:	4630      	mov	r0, r6
10002cf4:	f7ff fc3a 	bl	1000256c <irq_set_enabled>
10002cf8:	4b09      	ldr	r3, [pc, #36]	@ (10002d20 <runtime_init_default_alarm_pool+0xf8>)
10002cfa:	210a      	movs	r1, #10
10002cfc:	641f      	str	r7, [r3, #64]	@ 0x40
10002cfe:	4803      	ldr	r0, [pc, #12]	@ (10002d0c <runtime_init_default_alarm_pool+0xe4>)
10002d00:	e8bd 4ff8 	ldmia.w	sp!, {r3, r4, r5, r6, r7, r8, r9, sl, fp, lr}
10002d04:	f7ff bdd4 	b.w	100028b0 <lock_init>
10002d08:	200006bc 	.word	0x200006bc
10002d0c:	20001388 	.word	0x20001388
10002d10:	20001210 	.word	0x20001210
10002d14:	0010ffff 	.word	0x0010ffff
10002d18:	20001324 	.word	0x20001324
10002d1c:	10002949 	.word	0x10002949
10002d20:	400b2000 	.word	0x400b2000
10002d24:	400b0000 	.word	0x400b0000

10002d28 <alarm_pool_add_alarm_at_force_in_context>:
10002d28:	4601      	mov	r1, r0
10002d2a:	b5f0      	push	{r4, r5, r6, r7, lr}
10002d2c:	6900      	ldr	r0, [r0, #16]
10002d2e:	f3ef 8710 	mrs	r7, PRIMASK
10002d32:	b672      	cpsid	i
10002d34:	e8d0 5fcf 	ldaexb	r5, [r0]
10002d38:	2401      	movs	r4, #1
10002d3a:	2d00      	cmp	r5, #0
10002d3c:	d1fa      	bne.n	10002d34 <alarm_pool_add_alarm_at_force_in_context+0xc>
10002d3e:	e8c0 4f45 	strexb	r5, r4, [r0]
10002d42:	2d00      	cmp	r5, #0
10002d44:	d1f6      	bne.n	10002d34 <alarm_pool_add_alarm_at_force_in_context+0xc>
10002d46:	f3bf 8f5f 	dmb	sy
10002d4a:	f9b1 e002 	ldrsh.w	lr, [r1, #2]
10002d4e:	694c      	ldr	r4, [r1, #20]
10002d50:	eb0e 0c4e 	add.w	ip, lr, lr, lsl #1
10002d54:	f1be 0f00 	cmp.w	lr, #0
10002d58:	ea4f 05cc 	mov.w	r5, ip, lsl #3
10002d5c:	eb04 0ccc 	add.w	ip, r4, ip, lsl #3
10002d60:	db3d      	blt.n	10002dde <alarm_pool_add_alarm_at_force_in_context+0xb6>
10002d62:	5b60      	ldrh	r0, [r4, r5]
10002d64:	2600      	movs	r6, #0
10002d66:	8048      	strh	r0, [r1, #2]
10002d68:	6908      	ldr	r0, [r1, #16]
10002d6a:	e8c0 6f8f 	stlb	r6, [r0]
10002d6e:	f387 8810 	msr	PRIMASK, r7
10002d72:	f8bc 0002 	ldrh.w	r0, [ip, #2]
10002d76:	e9cc 2302 	strd	r2, r3, [ip, #8]
10002d7a:	3001      	adds	r0, #1
10002d7c:	f3c0 000e 	ubfx	r0, r0, #0, #15
10002d80:	2801      	cmp	r0, #1
10002d82:	bf38      	it	cc
10002d84:	2001      	movcc	r0, #1
10002d86:	9b05      	ldr	r3, [sp, #20]
10002d88:	f8ac 0002 	strh.w	r0, [ip, #2]
10002d8c:	f8cc 3010 	str.w	r3, [ip, #16]
10002d90:	9b06      	ldr	r3, [sp, #24]
10002d92:	ea40 400e 	orr.w	r0, r0, lr, lsl #16
10002d96:	f8cc 3014 	str.w	r3, [ip, #20]
10002d9a:	690b      	ldr	r3, [r1, #16]
10002d9c:	f3ef 8210 	mrs	r2, PRIMASK
10002da0:	b672      	cpsid	i
10002da2:	e8d3 cfcf 	ldaexb	ip, [r3]
10002da6:	2701      	movs	r7, #1
10002da8:	f1bc 0f00 	cmp.w	ip, #0
10002dac:	d1f9      	bne.n	10002da2 <alarm_pool_add_alarm_at_force_in_context+0x7a>
10002dae:	e8c3 7f4c 	strexb	ip, r7, [r3]
10002db2:	f1bc 0f00 	cmp.w	ip, #0
10002db6:	d1f4      	bne.n	10002da2 <alarm_pool_add_alarm_at_force_in_context+0x7a>
10002db8:	f3bf 8f5f 	dmb	sy
10002dbc:	888b      	ldrh	r3, [r1, #4]
10002dbe:	5363      	strh	r3, [r4, r5]
10002dc0:	f8a1 e004 	strh.w	lr, [r1, #4]
10002dc4:	690b      	ldr	r3, [r1, #16]
10002dc6:	e8c3 6f8f 	stlb	r6, [r3]
10002dca:	f382 8810 	msr	PRIMASK, r2
10002dce:	2201      	movs	r2, #1
10002dd0:	68cb      	ldr	r3, [r1, #12]
10002dd2:	7809      	ldrb	r1, [r1, #0]
10002dd4:	f503 5301 	add.w	r3, r3, #8256	@ 0x2040
10002dd8:	408a      	lsls	r2, r1
10002dda:	605a      	str	r2, [r3, #4]
10002ddc:	bdf0      	pop	{r4, r5, r6, r7, pc}
10002dde:	2300      	movs	r3, #0
10002de0:	690a      	ldr	r2, [r1, #16]
10002de2:	e8c2 3f8f 	stlb	r3, [r2]
10002de6:	f387 8810 	msr	PRIMASK, r7
10002dea:	f04f 30ff 	mov.w	r0, #4294967295
10002dee:	bdf0      	pop	{r4, r5, r6, r7, pc}

10002df0 <alarm_pool_cancel_alarm>:
10002df0:	4603      	mov	r3, r0
10002df2:	8940      	ldrh	r0, [r0, #10]
10002df4:	ebb0 4f21 	cmp.w	r0, r1, asr #16
10002df8:	dd37      	ble.n	10002e6a <alarm_pool_cancel_alarm+0x7a>
10002dfa:	6958      	ldr	r0, [r3, #20]
10002dfc:	140a      	asrs	r2, r1, #16
10002dfe:	eb02 0242 	add.w	r2, r2, r2, lsl #1
10002e02:	b510      	push	{r4, lr}
10002e04:	eb00 00c2 	add.w	r0, r0, r2, lsl #3
10002e08:	691c      	ldr	r4, [r3, #16]
10002e0a:	f3ef 8c10 	mrs	ip, PRIMASK
10002e0e:	b672      	cpsid	i
10002e10:	e8d4 efcf 	ldaexb	lr, [r4]
10002e14:	2201      	movs	r2, #1
10002e16:	f1be 0f00 	cmp.w	lr, #0
10002e1a:	d1f9      	bne.n	10002e10 <alarm_pool_cancel_alarm+0x20>
10002e1c:	e8c4 2f4e 	strexb	lr, r2, [r4]
10002e20:	f1be 0f00 	cmp.w	lr, #0
10002e24:	d1f4      	bne.n	10002e10 <alarm_pool_cancel_alarm+0x20>
10002e26:	f3bf 8f5f 	dmb	sy
10002e2a:	8842      	ldrh	r2, [r0, #2]
10002e2c:	b289      	uxth	r1, r1
10002e2e:	b292      	uxth	r2, r2
10002e30:	428a      	cmp	r2, r1
10002e32:	d007      	beq.n	10002e44 <alarm_pool_cancel_alarm+0x54>
10002e34:	2200      	movs	r2, #0
10002e36:	691b      	ldr	r3, [r3, #16]
10002e38:	e8c3 2f8f 	stlb	r2, [r3]
10002e3c:	f38c 8810 	msr	PRIMASK, ip
10002e40:	2000      	movs	r0, #0
10002e42:	bd10      	pop	{r4, pc}
10002e44:	f442 4200 	orr.w	r2, r2, #32768	@ 0x8000
10002e48:	8042      	strh	r2, [r0, #2]
10002e4a:	2101      	movs	r1, #1
10002e4c:	2200      	movs	r2, #0
10002e4e:	6918      	ldr	r0, [r3, #16]
10002e50:	7199      	strb	r1, [r3, #6]
10002e52:	e8c0 2f8f 	stlb	r2, [r0]
10002e56:	f38c 8810 	msr	PRIMASK, ip
10002e5a:	781c      	ldrb	r4, [r3, #0]
10002e5c:	68da      	ldr	r2, [r3, #12]
10002e5e:	4608      	mov	r0, r1
10002e60:	f502 5301 	add.w	r3, r2, #8256	@ 0x2040
10002e64:	40a1      	lsls	r1, r4
10002e66:	6059      	str	r1, [r3, #4]
10002e68:	bd10      	pop	{r4, pc}
10002e6a:	2000      	movs	r0, #0
10002e6c:	4770      	bx	lr
10002e6e:	bf00      	nop

10002e70 <sleep_until>:
10002e70:	e92d 41f0 	stmdb	sp!, {r4, r5, r6, r7, r8, lr}
10002e74:	1f86      	subs	r6, r0, #6
10002e76:	f141 35ff 	adc.w	r5, r1, #4294967295
10002e7a:	42b0      	cmp	r0, r6
10002e7c:	eb71 0305 	sbcs.w	r3, r1, r5
10002e80:	bf38      	it	cc
10002e82:	2600      	movcc	r6, #0
10002e84:	b082      	sub	sp, #8
10002e86:	bf38      	it	cc
10002e88:	4635      	movcc	r5, r6
10002e8a:	4604      	mov	r4, r0
10002e8c:	460f      	mov	r7, r1
10002e8e:	f000 f909 	bl	100030a4 <time_us_64>
10002e92:	1a30      	subs	r0, r6, r0
10002e94:	eb65 0301 	sbc.w	r3, r5, r1
10002e98:	2801      	cmp	r0, #1
10002e9a:	f173 0300 	sbcs.w	r3, r3, #0
10002e9e:	da06      	bge.n	10002eae <sleep_until+0x3e>
10002ea0:	4620      	mov	r0, r4
10002ea2:	4639      	mov	r1, r7
10002ea4:	b002      	add	sp, #8
10002ea6:	e8bd 41f0 	ldmia.w	sp!, {r4, r5, r6, r7, r8, lr}
10002eaa:	f000 b97b 	b.w	100031a4 <busy_wait_until>
10002eae:	f000 f8f9 	bl	100030a4 <time_us_64>
10002eb2:	4286      	cmp	r6, r0
10002eb4:	eb65 0101 	sbc.w	r1, r5, r1
10002eb8:	2900      	cmp	r1, #0
10002eba:	db0a      	blt.n	10002ed2 <sleep_until+0x62>
10002ebc:	2100      	movs	r1, #0
10002ebe:	4b17      	ldr	r3, [pc, #92]	@ (10002f1c <sleep_until+0xac>)
10002ec0:	4632      	mov	r2, r6
10002ec2:	9300      	str	r3, [sp, #0]
10002ec4:	4816      	ldr	r0, [pc, #88]	@ (10002f20 <sleep_until+0xb0>)
10002ec6:	462b      	mov	r3, r5
10002ec8:	9101      	str	r1, [sp, #4]
10002eca:	f7ff ff2d 	bl	10002d28 <alarm_pool_add_alarm_at_force_in_context>
10002ece:	2800      	cmp	r0, #0
10002ed0:	dbe6      	blt.n	10002ea0 <sleep_until+0x30>
10002ed2:	f04f 0c00 	mov.w	ip, #0
10002ed6:	4813      	ldr	r0, [pc, #76]	@ (10002f24 <sleep_until+0xb4>)
10002ed8:	4a13      	ldr	r2, [pc, #76]	@ (10002f28 <sleep_until+0xb8>)
10002eda:	6a43      	ldr	r3, [r0, #36]	@ 0x24
10002edc:	429d      	cmp	r5, r3
10002ede:	d804      	bhi.n	10002eea <sleep_until+0x7a>
10002ee0:	6a81      	ldr	r1, [r0, #40]	@ 0x28
10002ee2:	42b1      	cmp	r1, r6
10002ee4:	d2dc      	bcs.n	10002ea0 <sleep_until+0x30>
10002ee6:	429d      	cmp	r5, r3
10002ee8:	d1da      	bne.n	10002ea0 <sleep_until+0x30>
10002eea:	6813      	ldr	r3, [r2, #0]
10002eec:	f3ef 8110 	mrs	r1, PRIMASK
10002ef0:	b672      	cpsid	i
10002ef2:	e8d3 8fcf 	ldaexb	r8, [r3]
10002ef6:	f05f 0e01 	movs.w	lr, #1
10002efa:	f1b8 0f00 	cmp.w	r8, #0
10002efe:	d1f8      	bne.n	10002ef2 <sleep_until+0x82>
10002f00:	e8c3 ef48 	strexb	r8, lr, [r3]
10002f04:	f1b8 0f00 	cmp.w	r8, #0
10002f08:	d1f3      	bne.n	10002ef2 <sleep_until+0x82>
10002f0a:	f3bf 8f5f 	dmb	sy
10002f0e:	6813      	ldr	r3, [r2, #0]
10002f10:	e8c3 cf8f 	stlb	ip, [r3]
10002f14:	f381 8810 	msr	PRIMASK, r1
10002f18:	bf20      	wfe
10002f1a:	e7de      	b.n	10002eda <sleep_until+0x6a>
10002f1c:	10002909 	.word	0x10002909
10002f20:	200006bc 	.word	0x200006bc
10002f24:	400b0000 	.word	0x400b0000
10002f28:	20001388 	.word	0x20001388

10002f2c <sleep_us>:
10002f2c:	b538      	push	{r3, r4, r5, lr}
10002f2e:	4604      	mov	r4, r0
10002f30:	460d      	mov	r5, r1
10002f32:	f000 f8b7 	bl	100030a4 <time_us_64>
10002f36:	f04f 32ff 	mov.w	r2, #4294967295
10002f3a:	f06f 4300 	mvn.w	r3, #2147483648	@ 0x80000000
10002f3e:	1820      	adds	r0, r4, r0
10002f40:	eb45 0101 	adc.w	r1, r5, r1
10002f44:	4282      	cmp	r2, r0
10002f46:	eb73 0401 	sbcs.w	r4, r3, r1
10002f4a:	bf38      	it	cc
10002f4c:	4619      	movcc	r1, r3
10002f4e:	e8bd 4038 	ldmia.w	sp!, {r3, r4, r5, lr}
10002f52:	bf38      	it	cc
10002f54:	4610      	movcc	r0, r2
10002f56:	f7ff bf8b 	b.w	10002e70 <sleep_until>
10002f5a:	bf00      	nop

10002f5c <sleep_ms>:
10002f5c:	b510      	push	{r4, lr}
10002f5e:	4604      	mov	r4, r0
10002f60:	f000 f8a0 	bl	100030a4 <time_us_64>
10002f64:	f44f 737a 	mov.w	r3, #1000	@ 0x3e8
10002f68:	f04f 3cff 	mov.w	ip, #4294967295
10002f6c:	f06f 4200 	mvn.w	r2, #2147483648	@ 0x80000000
10002f70:	fbe4 0103 	umlal	r0, r1, r4, r3
10002f74:	e8bd 4010 	ldmia.w	sp!, {r4, lr}
10002f78:	4584      	cmp	ip, r0
10002f7a:	eb72 0301 	sbcs.w	r3, r2, r1
10002f7e:	bf3c      	itt	cc
10002f80:	4660      	movcc	r0, ip
10002f82:	4611      	movcc	r1, r2
10002f84:	f7ff bf74 	b.w	10002e70 <sleep_until>

10002f88 <best_effort_wfe_or_timeout>:
10002f88:	b5f0      	push	{r4, r5, r6, r7, lr}
10002f8a:	4606      	mov	r6, r0
10002f8c:	460d      	mov	r5, r1
10002f8e:	b083      	sub	sp, #12
10002f90:	f3ef 8405 	mrs	r4, IPSR
10002f94:	b2e4      	uxtb	r4, r4
10002f96:	2c00      	cmp	r4, #0
10002f98:	d135      	bne.n	10003006 <best_effort_wfe_or_timeout+0x7e>
10002f9a:	4f24      	ldr	r7, [pc, #144]	@ (1000302c <best_effort_wfe_or_timeout+0xa4>)
10002f9c:	783a      	ldrb	r2, [r7, #0]
10002f9e:	68f9      	ldr	r1, [r7, #12]
10002fa0:	3204      	adds	r2, #4
10002fa2:	6a8b      	ldr	r3, [r1, #40]	@ 0x28
10002fa4:	f851 2022 	ldr.w	r2, [r1, r2, lsl #2]
10002fa8:	1ad2      	subs	r2, r2, r3
10002faa:	1ac3      	subs	r3, r0, r3
10002fac:	4293      	cmp	r3, r2
10002fae:	d307      	bcc.n	10002fc0 <best_effort_wfe_or_timeout+0x38>
10002fb0:	bf20      	wfe
10002fb2:	4b1f      	ldr	r3, [pc, #124]	@ (10003030 <best_effort_wfe_or_timeout+0xa8>)
10002fb4:	6a58      	ldr	r0, [r3, #36]	@ 0x24
10002fb6:	42a8      	cmp	r0, r5
10002fb8:	d21f      	bcs.n	10002ffa <best_effort_wfe_or_timeout+0x72>
10002fba:	2000      	movs	r0, #0
10002fbc:	b003      	add	sp, #12
10002fbe:	bdf0      	pop	{r4, r5, r6, r7, pc}
10002fc0:	f000 f870 	bl	100030a4 <time_us_64>
10002fc4:	4286      	cmp	r6, r0
10002fc6:	eb65 0101 	sbc.w	r1, r5, r1
10002fca:	2900      	cmp	r1, #0
10002fcc:	db11      	blt.n	10002ff2 <best_effort_wfe_or_timeout+0x6a>
10002fce:	4b19      	ldr	r3, [pc, #100]	@ (10003034 <best_effort_wfe_or_timeout+0xac>)
10002fd0:	4638      	mov	r0, r7
10002fd2:	e9cd 3400 	strd	r3, r4, [sp]
10002fd6:	4632      	mov	r2, r6
10002fd8:	462b      	mov	r3, r5
10002fda:	f7ff fea5 	bl	10002d28 <alarm_pool_add_alarm_at_force_in_context>
10002fde:	1e01      	subs	r1, r0, #0
10002fe0:	dd07      	ble.n	10002ff2 <best_effort_wfe_or_timeout+0x6a>
10002fe2:	4b13      	ldr	r3, [pc, #76]	@ (10003030 <best_effort_wfe_or_timeout+0xa8>)
10002fe4:	6a5a      	ldr	r2, [r3, #36]	@ 0x24
10002fe6:	42aa      	cmp	r2, r5
10002fe8:	d219      	bcs.n	1000301e <best_effort_wfe_or_timeout+0x96>
10002fea:	bf20      	wfe
10002fec:	480f      	ldr	r0, [pc, #60]	@ (1000302c <best_effort_wfe_or_timeout+0xa4>)
10002fee:	f7ff feff 	bl	10002df0 <alarm_pool_cancel_alarm>
10002ff2:	4b0f      	ldr	r3, [pc, #60]	@ (10003030 <best_effort_wfe_or_timeout+0xa8>)
10002ff4:	6a58      	ldr	r0, [r3, #36]	@ 0x24
10002ff6:	42a8      	cmp	r0, r5
10002ff8:	d3df      	bcc.n	10002fba <best_effort_wfe_or_timeout+0x32>
10002ffa:	6a9b      	ldr	r3, [r3, #40]	@ 0x28
10002ffc:	429e      	cmp	r6, r3
10002ffe:	d809      	bhi.n	10003014 <best_effort_wfe_or_timeout+0x8c>
10003000:	2001      	movs	r0, #1
10003002:	b003      	add	sp, #12
10003004:	bdf0      	pop	{r4, r5, r6, r7, pc}
10003006:	4b0a      	ldr	r3, [pc, #40]	@ (10003030 <best_effort_wfe_or_timeout+0xa8>)
10003008:	6a58      	ldr	r0, [r3, #36]	@ 0x24
1000300a:	4288      	cmp	r0, r1
1000300c:	d3d5      	bcc.n	10002fba <best_effort_wfe_or_timeout+0x32>
1000300e:	6a9b      	ldr	r3, [r3, #40]	@ 0x28
10003010:	42b3      	cmp	r3, r6
10003012:	d2f5      	bcs.n	10003000 <best_effort_wfe_or_timeout+0x78>
10003014:	1b40      	subs	r0, r0, r5
10003016:	bf18      	it	ne
10003018:	2001      	movne	r0, #1
1000301a:	b003      	add	sp, #12
1000301c:	bdf0      	pop	{r4, r5, r6, r7, pc}
1000301e:	6a9b      	ldr	r3, [r3, #40]	@ 0x28
10003020:	429e      	cmp	r6, r3
10003022:	d9e3      	bls.n	10002fec <best_effort_wfe_or_timeout+0x64>
10003024:	42aa      	cmp	r2, r5
10003026:	d1e1      	bne.n	10002fec <best_effort_wfe_or_timeout+0x64>
10003028:	e7df      	b.n	10002fea <best_effort_wfe_or_timeout+0x62>
1000302a:	bf00      	nop
1000302c:	200006bc 	.word	0x200006bc
10003030:	400b0000 	.word	0x400b0000
10003034:	10002909 	.word	0x10002909

10003038 <check_single_timeout_us>:
10003038:	4a08      	ldr	r2, [pc, #32]	@ (1000305c <check_single_timeout_us+0x24>)
1000303a:	e9d0 0300 	ldrd	r0, r3, [r0]
1000303e:	6a51      	ldr	r1, [r2, #36]	@ 0x24
10003040:	428b      	cmp	r3, r1
10003042:	d804      	bhi.n	1000304e <check_single_timeout_us+0x16>
10003044:	6a92      	ldr	r2, [r2, #40]	@ 0x28
10003046:	4282      	cmp	r2, r0
10003048:	d303      	bcc.n	10003052 <check_single_timeout_us+0x1a>
1000304a:	2001      	movs	r0, #1
1000304c:	4770      	bx	lr
1000304e:	2000      	movs	r0, #0
10003050:	4770      	bx	lr
10003052:	1a58      	subs	r0, r3, r1
10003054:	bf18      	it	ne
10003056:	2001      	movne	r0, #1
10003058:	4770      	bx	lr
1000305a:	bf00      	nop
1000305c:	400b0000 	.word	0x400b0000

10003060 <init_single_timeout_until>:
10003060:	4601      	mov	r1, r0
10003062:	4802      	ldr	r0, [pc, #8]	@ (1000306c <init_single_timeout_until+0xc>)
10003064:	e9c1 2300 	strd	r2, r3, [r1]
10003068:	4770      	bx	lr
1000306a:	bf00      	nop
1000306c:	10003039 	.word	0x10003039

10003070 <timer_hardware_alarm_claim>:
10003070:	b410      	push	{r4}
10003072:	4b05      	ldr	r3, [pc, #20]	@ (10003088 <timer_hardware_alarm_claim+0x18>)
10003074:	4c05      	ldr	r4, [pc, #20]	@ (1000308c <timer_hardware_alarm_claim+0x1c>)
10003076:	4a06      	ldr	r2, [pc, #24]	@ (10003090 <timer_hardware_alarm_claim+0x20>)
10003078:	42a0      	cmp	r0, r4
1000307a:	bf14      	ite	ne
1000307c:	4618      	movne	r0, r3
1000307e:	1c58      	addeq	r0, r3, #1
10003080:	f85d 4b04 	ldr.w	r4, [sp], #4
10003084:	f7ff ba06 	b.w	10002494 <hw_claim_or_assert>
10003088:	2000128c 	.word	0x2000128c
1000308c:	400b8000 	.word	0x400b8000
10003090:	1000c524 	.word	0x1000c524

10003094 <timer_time_us_64>:
10003094:	4603      	mov	r3, r0
10003096:	6a41      	ldr	r1, [r0, #36]	@ 0x24
10003098:	460a      	mov	r2, r1
1000309a:	6a98      	ldr	r0, [r3, #40]	@ 0x28
1000309c:	6a59      	ldr	r1, [r3, #36]	@ 0x24
1000309e:	428a      	cmp	r2, r1
100030a0:	d1fa      	bne.n	10003098 <timer_time_us_64+0x4>
100030a2:	4770      	bx	lr

100030a4 <time_us_64>:
100030a4:	4b03      	ldr	r3, [pc, #12]	@ (100030b4 <time_us_64+0x10>)
100030a6:	6a59      	ldr	r1, [r3, #36]	@ 0x24
100030a8:	460a      	mov	r2, r1
100030aa:	6a98      	ldr	r0, [r3, #40]	@ 0x28
100030ac:	6a59      	ldr	r1, [r3, #36]	@ 0x24
100030ae:	4291      	cmp	r1, r2
100030b0:	d1fa      	bne.n	100030a8 <time_us_64+0x4>
100030b2:	4770      	bx	lr
100030b4:	400b0000 	.word	0x400b0000

100030b8 <busy_wait_us>:
100030b8:	b410      	push	{r4}
100030ba:	4a17      	ldr	r2, [pc, #92]	@ (10003118 <busy_wait_us+0x60>)
100030bc:	6a53      	ldr	r3, [r2, #36]	@ 0x24
100030be:	469c      	mov	ip, r3
100030c0:	6a94      	ldr	r4, [r2, #40]	@ 0x28
100030c2:	6a53      	ldr	r3, [r2, #36]	@ 0x24
100030c4:	4563      	cmp	r3, ip
100030c6:	d1fa      	bne.n	100030be <busy_wait_us+0x6>
100030c8:	1900      	adds	r0, r0, r4
100030ca:	4159      	adcs	r1, r3
100030cc:	f04f 0200 	mov.w	r2, #0
100030d0:	bf28      	it	cs
100030d2:	2201      	movcs	r2, #1
100030d4:	4603      	mov	r3, r0
100030d6:	b1ca      	cbz	r2, 1000310c <busy_wait_us+0x54>
100030d8:	4b0f      	ldr	r3, [pc, #60]	@ (10003118 <busy_wait_us+0x60>)
100030da:	6a59      	ldr	r1, [r3, #36]	@ 0x24
100030dc:	1c4b      	adds	r3, r1, #1
100030de:	bf08      	it	eq
100030e0:	460b      	moveq	r3, r1
100030e2:	d008      	beq.n	100030f6 <busy_wait_us+0x3e>
100030e4:	f04f 31ff 	mov.w	r1, #4294967295
100030e8:	460b      	mov	r3, r1
100030ea:	480b      	ldr	r0, [pc, #44]	@ (10003118 <busy_wait_us+0x60>)
100030ec:	6a42      	ldr	r2, [r0, #36]	@ 0x24
100030ee:	428a      	cmp	r2, r1
100030f0:	d3fc      	bcc.n	100030ec <busy_wait_us+0x34>
100030f2:	428a      	cmp	r2, r1
100030f4:	d107      	bne.n	10003106 <busy_wait_us+0x4e>
100030f6:	4a08      	ldr	r2, [pc, #32]	@ (10003118 <busy_wait_us+0x60>)
100030f8:	e002      	b.n	10003100 <busy_wait_us+0x48>
100030fa:	6a50      	ldr	r0, [r2, #36]	@ 0x24
100030fc:	4288      	cmp	r0, r1
100030fe:	d102      	bne.n	10003106 <busy_wait_us+0x4e>
10003100:	6a90      	ldr	r0, [r2, #40]	@ 0x28
10003102:	4298      	cmp	r0, r3
10003104:	d3f9      	bcc.n	100030fa <busy_wait_us+0x42>
10003106:	f85d 4b04 	ldr.w	r4, [sp], #4
1000310a:	4770      	bx	lr
1000310c:	4a02      	ldr	r2, [pc, #8]	@ (10003118 <busy_wait_us+0x60>)
1000310e:	6a52      	ldr	r2, [r2, #36]	@ 0x24
10003110:	4291      	cmp	r1, r2
10003112:	d8ea      	bhi.n	100030ea <busy_wait_us+0x32>
10003114:	e7ed      	b.n	100030f2 <busy_wait_us+0x3a>
10003116:	bf00      	nop
10003118:	400b0000 	.word	0x400b0000

1000311c <busy_wait_ms>:
1000311c:	4b1f      	ldr	r3, [pc, #124]	@ (1000319c <busy_wait_ms+0x80>)
1000311e:	4298      	cmp	r0, r3
10003120:	d80a      	bhi.n	10003138 <busy_wait_ms+0x1c>
10003122:	f44f 737a 	mov.w	r3, #1000	@ 0x3e8
10003126:	4a1e      	ldr	r2, [pc, #120]	@ (100031a0 <busy_wait_ms+0x84>)
10003128:	fb03 f000 	mul.w	r0, r3, r0
1000312c:	6a91      	ldr	r1, [r2, #40]	@ 0x28
1000312e:	6a93      	ldr	r3, [r2, #40]	@ 0x28
10003130:	1a5b      	subs	r3, r3, r1
10003132:	4298      	cmp	r0, r3
10003134:	d8fb      	bhi.n	1000312e <busy_wait_ms+0x12>
10003136:	4770      	bx	lr
10003138:	f44f 717a 	mov.w	r1, #1000	@ 0x3e8
1000313c:	b430      	push	{r4, r5}
1000313e:	4b18      	ldr	r3, [pc, #96]	@ (100031a0 <busy_wait_ms+0x84>)
10003140:	fba0 0101 	umull	r0, r1, r0, r1
10003144:	6a5a      	ldr	r2, [r3, #36]	@ 0x24
10003146:	4694      	mov	ip, r2
10003148:	6a9c      	ldr	r4, [r3, #40]	@ 0x28
1000314a:	6a5a      	ldr	r2, [r3, #36]	@ 0x24
1000314c:	4562      	cmp	r2, ip
1000314e:	d1fa      	bne.n	10003146 <busy_wait_ms+0x2a>
10003150:	1903      	adds	r3, r0, r4
10003152:	414a      	adcs	r2, r1
10003154:	f04f 0500 	mov.w	r5, #0
10003158:	bf28      	it	cs
1000315a:	2501      	movcs	r5, #1
1000315c:	b99d      	cbnz	r5, 10003186 <busy_wait_ms+0x6a>
1000315e:	4910      	ldr	r1, [pc, #64]	@ (100031a0 <busy_wait_ms+0x84>)
10003160:	6a49      	ldr	r1, [r1, #36]	@ 0x24
10003162:	428a      	cmp	r2, r1
10003164:	d903      	bls.n	1000316e <busy_wait_ms+0x52>
10003166:	480e      	ldr	r0, [pc, #56]	@ (100031a0 <busy_wait_ms+0x84>)
10003168:	6a41      	ldr	r1, [r0, #36]	@ 0x24
1000316a:	4291      	cmp	r1, r2
1000316c:	d3fc      	bcc.n	10003168 <busy_wait_ms+0x4c>
1000316e:	4291      	cmp	r1, r2
10003170:	d107      	bne.n	10003182 <busy_wait_ms+0x66>
10003172:	490b      	ldr	r1, [pc, #44]	@ (100031a0 <busy_wait_ms+0x84>)
10003174:	e002      	b.n	1000317c <busy_wait_ms+0x60>
10003176:	6a48      	ldr	r0, [r1, #36]	@ 0x24
10003178:	4290      	cmp	r0, r2
1000317a:	d102      	bne.n	10003182 <busy_wait_ms+0x66>
1000317c:	6a88      	ldr	r0, [r1, #40]	@ 0x28
1000317e:	4298      	cmp	r0, r3
10003180:	d3f9      	bcc.n	10003176 <busy_wait_ms+0x5a>
10003182:	bc30      	pop	{r4, r5}
10003184:	4770      	bx	lr
10003186:	4b06      	ldr	r3, [pc, #24]	@ (100031a0 <busy_wait_ms+0x84>)
10003188:	6a5a      	ldr	r2, [r3, #36]	@ 0x24
1000318a:	1c53      	adds	r3, r2, #1
1000318c:	bf08      	it	eq
1000318e:	4613      	moveq	r3, r2
10003190:	d0ef      	beq.n	10003172 <busy_wait_ms+0x56>
10003192:	f04f 32ff 	mov.w	r2, #4294967295
10003196:	4613      	mov	r3, r2
10003198:	e7e5      	b.n	10003166 <busy_wait_ms+0x4a>
1000319a:	bf00      	nop
1000319c:	0020c49b 	.word	0x0020c49b
100031a0:	400b0000 	.word	0x400b0000

100031a4 <busy_wait_until>:
100031a4:	4a07      	ldr	r2, [pc, #28]	@ (100031c4 <busy_wait_until+0x20>)
100031a6:	6a53      	ldr	r3, [r2, #36]	@ 0x24
100031a8:	4299      	cmp	r1, r3
100031aa:	d8fc      	bhi.n	100031a6 <busy_wait_until+0x2>
100031ac:	4299      	cmp	r1, r3
100031ae:	d107      	bne.n	100031c0 <busy_wait_until+0x1c>
100031b0:	4b04      	ldr	r3, [pc, #16]	@ (100031c4 <busy_wait_until+0x20>)
100031b2:	e002      	b.n	100031ba <busy_wait_until+0x16>
100031b4:	6a5a      	ldr	r2, [r3, #36]	@ 0x24
100031b6:	4291      	cmp	r1, r2
100031b8:	d102      	bne.n	100031c0 <busy_wait_until+0x1c>
100031ba:	6a9a      	ldr	r2, [r3, #40]	@ 0x28
100031bc:	4282      	cmp	r2, r0
100031be:	d3f9      	bcc.n	100031b4 <busy_wait_until+0x10>
100031c0:	4770      	bx	lr
100031c2:	bf00      	nop
100031c4:	400b0000 	.word	0x400b0000

100031c8 <uart_init>:
100031c8:	b5f8      	push	{r3, r4, r5, r6, r7, lr}
100031ca:	4605      	mov	r5, r0
100031cc:	2006      	movs	r0, #6
100031ce:	460e      	mov	r6, r1
100031d0:	f000 f8e4 	bl	1000339c <clock_get_hz>
100031d4:	2800      	cmp	r0, #0
100031d6:	d042      	beq.n	1000325e <uart_init+0x96>
100031d8:	4a35      	ldr	r2, [pc, #212]	@ (100032b0 <uart_init+0xe8>)
100031da:	4836      	ldr	r0, [pc, #216]	@ (100032b4 <uart_init+0xec>)
100031dc:	4295      	cmp	r5, r2
100031de:	bf14      	ite	ne
100031e0:	f04f 6280 	movne.w	r2, #67108864	@ 0x4000000
100031e4:	f04f 6200 	moveq.w	r2, #134217728	@ 0x8000000
100031e8:	4b33      	ldr	r3, [pc, #204]	@ (100032b8 <uart_init+0xf0>)
100031ea:	4934      	ldr	r1, [pc, #208]	@ (100032bc <uart_init+0xf4>)
100031ec:	6002      	str	r2, [r0, #0]
100031ee:	601a      	str	r2, [r3, #0]
100031f0:	688c      	ldr	r4, [r1, #8]
100031f2:	ea32 0404 	bics.w	r4, r2, r4
100031f6:	d1fb      	bne.n	100031f0 <uart_init+0x28>
100031f8:	4b2d      	ldr	r3, [pc, #180]	@ (100032b0 <uart_init+0xe8>)
100031fa:	f44f 7180 	mov.w	r1, #256	@ 0x100
100031fe:	1aeb      	subs	r3, r5, r3
10003200:	fab3 f383 	clz	r3, r3
10003204:	4a2e      	ldr	r2, [pc, #184]	@ (100032c0 <uart_init+0xf8>)
10003206:	095b      	lsrs	r3, r3, #5
10003208:	2006      	movs	r0, #6
1000320a:	f822 1013 	strh.w	r1, [r2, r3, lsl #1]
1000320e:	f000 f8c5 	bl	1000339c <clock_get_hz>
10003212:	00c3      	lsls	r3, r0, #3
10003214:	fbb3 f3f6 	udiv	r3, r3, r6
10003218:	3301      	adds	r3, #1
1000321a:	09da      	lsrs	r2, r3, #7
1000321c:	d120      	bne.n	10003260 <uart_init+0x98>
1000321e:	2640      	movs	r6, #64	@ 0x40
10003220:	2101      	movs	r1, #1
10003222:	6269      	str	r1, [r5, #36]	@ 0x24
10003224:	62aa      	str	r2, [r5, #40]	@ 0x28
10003226:	6b2f      	ldr	r7, [r5, #48]	@ 0x30
10003228:	07fb      	lsls	r3, r7, #31
1000322a:	d422      	bmi.n	10003272 <uart_init+0xaa>
1000322c:	462b      	mov	r3, r5
1000322e:	2200      	movs	r2, #0
10003230:	f853 1f2c 	ldr.w	r1, [r3, #44]!
10003234:	2006      	movs	r0, #6
10003236:	f503 5480 	add.w	r4, r3, #4096	@ 0x1000
1000323a:	6022      	str	r2, [r4, #0]
1000323c:	632f      	str	r7, [r5, #48]	@ 0x30
1000323e:	f000 f8ad 	bl	1000339c <clock_get_hz>
10003242:	f240 3101 	movw	r1, #769	@ 0x301
10003246:	2203      	movs	r2, #3
10003248:	0080      	lsls	r0, r0, #2
1000324a:	fbb0 f0f6 	udiv	r0, r0, r6
1000324e:	6aeb      	ldr	r3, [r5, #44]	@ 0x2c
10003250:	f083 0370 	eor.w	r3, r3, #112	@ 0x70
10003254:	f003 037e 	and.w	r3, r3, #126	@ 0x7e
10003258:	6023      	str	r3, [r4, #0]
1000325a:	6329      	str	r1, [r5, #48]	@ 0x30
1000325c:	64aa      	str	r2, [r5, #72]	@ 0x48
1000325e:	bdf8      	pop	{r3, r4, r5, r6, r7, pc}
10003260:	f64f 71fe 	movw	r1, #65534	@ 0xfffe
10003264:	428a      	cmp	r2, r1
10003266:	d91b      	bls.n	100032a0 <uart_init+0xd8>
10003268:	4622      	mov	r2, r4
1000326a:	f64f 71ff 	movw	r1, #65535	@ 0xffff
1000326e:	4e15      	ldr	r6, [pc, #84]	@ (100032c4 <uart_init+0xfc>)
10003270:	e7d7      	b.n	10003222 <uart_init+0x5a>
10003272:	f240 3201 	movw	r2, #769	@ 0x301
10003276:	f505 5340 	add.w	r3, r5, #12288	@ 0x3000
1000327a:	631a      	str	r2, [r3, #48]	@ 0x30
1000327c:	6a6b      	ldr	r3, [r5, #36]	@ 0x24
1000327e:	6aac      	ldr	r4, [r5, #40]	@ 0x28
10003280:	2006      	movs	r0, #6
10003282:	eb04 1483 	add.w	r4, r4, r3, lsl #6
10003286:	f000 f889 	bl	1000339c <clock_get_hz>
1000328a:	4b0f      	ldr	r3, [pc, #60]	@ (100032c8 <uart_init+0x100>)
1000328c:	02a4      	lsls	r4, r4, #10
1000328e:	fba3 2300 	umull	r2, r3, r3, r0
10003292:	0adb      	lsrs	r3, r3, #11
10003294:	2100      	movs	r1, #0
10003296:	fbb4 f0f3 	udiv	r0, r4, r3
1000329a:	f7ff ff0d 	bl	100030b8 <busy_wait_us>
1000329e:	e7c5      	b.n	1000322c <uart_init+0x64>
100032a0:	f3c3 0345 	ubfx	r3, r3, #1, #6
100032a4:	4611      	mov	r1, r2
100032a6:	eb03 1682 	add.w	r6, r3, r2, lsl #6
100032aa:	461a      	mov	r2, r3
100032ac:	e7b9      	b.n	10003222 <uart_init+0x5a>
100032ae:	bf00      	nop
100032b0:	40078000 	.word	0x40078000
100032b4:	40022000 	.word	0x40022000
100032b8:	40023000 	.word	0x40023000
100032bc:	40020000 	.word	0x40020000
100032c0:	2000138c 	.word	0x2000138c
100032c4:	003fffc0 	.word	0x003fffc0
100032c8:	8f2b7b75 	.word	0x8f2b7b75

100032cc <clock_configure_undivided>:
100032cc:	eb00 0c40 	add.w	ip, r0, r0, lsl #1
100032d0:	ea4f 0c8c 	mov.w	ip, ip, lsl #2
100032d4:	f10c 4c80 	add.w	ip, ip, #1073741824	@ 0x40000000
100032d8:	f50c 3c80 	add.w	ip, ip, #65536	@ 0x10000
100032dc:	b5f0      	push	{r4, r5, r6, r7, lr}
100032de:	4616      	mov	r6, r2
100032e0:	f8dc 2004 	ldr.w	r2, [ip, #4]
100032e4:	1f05      	subs	r5, r0, #4
100032e6:	f5b2 3f80 	cmp.w	r2, #65536	@ 0x10000
100032ea:	bf38      	it	cc
100032ec:	f44f 3280 	movcc.w	r2, #65536	@ 0x10000
100032f0:	b2ed      	uxtb	r5, r5
100032f2:	bf38      	it	cc
100032f4:	f8cc 2004 	strcc.w	r2, [ip, #4]
100032f8:	2d01      	cmp	r5, #1
100032fa:	d92a      	bls.n	10003352 <clock_configure_undivided+0x86>
100032fc:	f44f 6700 	mov.w	r7, #2048	@ 0x800
10003300:	4c25      	ldr	r4, [pc, #148]	@ (10003398 <clock_configure_undivided+0xcc>)
10003302:	f50c 5240 	add.w	r2, ip, #12288	@ 0x3000
10003306:	6017      	str	r7, [r2, #0]
10003308:	f854 2020 	ldr.w	r2, [r4, r0, lsl #2]
1000330c:	b9b2      	cbnz	r2, 1000333c <clock_configure_undivided+0x70>
1000330e:	f8dc 2000 	ldr.w	r2, [ip]
10003312:	2d01      	cmp	r5, #1
10003314:	ea82 1246 	eor.w	r2, r2, r6, lsl #5
10003318:	f002 02e0 	and.w	r2, r2, #224	@ 0xe0
1000331c:	f50c 5680 	add.w	r6, ip, #4096	@ 0x1000
10003320:	6032      	str	r2, [r6, #0]
10003322:	d92a      	bls.n	1000337a <clock_configure_undivided+0xae>
10003324:	f44f 6100 	mov.w	r1, #2048	@ 0x800
10003328:	f844 3020 	str.w	r3, [r4, r0, lsl #2]
1000332c:	f44f 3380 	mov.w	r3, #65536	@ 0x10000
10003330:	f50c 5200 	add.w	r2, ip, #8192	@ 0x2000
10003334:	6011      	str	r1, [r2, #0]
10003336:	f8cc 3004 	str.w	r3, [ip, #4]
1000333a:	bdf0      	pop	{r4, r5, r6, r7, pc}
1000333c:	6967      	ldr	r7, [r4, #20]
1000333e:	fbb7 fef2 	udiv	lr, r7, r2
10003342:	f10e 0e01 	add.w	lr, lr, #1
10003346:	eb0e 0e4e 	add.w	lr, lr, lr, lsl #1
1000334a:	f1be 0e03 	subs.w	lr, lr, #3
1000334e:	d2fc      	bcs.n	1000334a <clock_configure_undivided+0x7e>
10003350:	e7dd      	b.n	1000330e <clock_configure_undivided+0x42>
10003352:	2901      	cmp	r1, #1
10003354:	d1d2      	bne.n	100032fc <clock_configure_undivided+0x30>
10003356:	2403      	movs	r4, #3
10003358:	f50c 5240 	add.w	r2, ip, #12288	@ 0x3000
1000335c:	6014      	str	r4, [r2, #0]
1000335e:	f8dc 2008 	ldr.w	r2, [ip, #8]
10003362:	07d2      	lsls	r2, r2, #31
10003364:	d5fb      	bpl.n	1000335e <clock_configure_undivided+0x92>
10003366:	f8dc 2000 	ldr.w	r2, [ip]
1000336a:	4c0b      	ldr	r4, [pc, #44]	@ (10003398 <clock_configure_undivided+0xcc>)
1000336c:	ea82 1246 	eor.w	r2, r2, r6, lsl #5
10003370:	f002 02e0 	and.w	r2, r2, #224	@ 0xe0
10003374:	f50c 5680 	add.w	r6, ip, #4096	@ 0x1000
10003378:	6032      	str	r2, [r6, #0]
1000337a:	2201      	movs	r2, #1
1000337c:	f8dc 5000 	ldr.w	r5, [ip]
10003380:	404d      	eors	r5, r1
10003382:	f005 0503 	and.w	r5, r5, #3
10003386:	6035      	str	r5, [r6, #0]
10003388:	fa02 f101 	lsl.w	r1, r2, r1
1000338c:	f8dc 2008 	ldr.w	r2, [ip, #8]
10003390:	420a      	tst	r2, r1
10003392:	d0fb      	beq.n	1000338c <clock_configure_undivided+0xc0>
10003394:	e7c6      	b.n	10003324 <clock_configure_undivided+0x58>
10003396:	bf00      	nop
10003398:	200012cc 	.word	0x200012cc

1000339c <clock_get_hz>:
1000339c:	4b01      	ldr	r3, [pc, #4]	@ (100033a4 <clock_get_hz+0x8>)
1000339e:	f853 0020 	ldr.w	r0, [r3, r0, lsl #2]
100033a2:	4770      	bx	lr
100033a4:	200012cc 	.word	0x200012cc

100033a8 <pll_init>:
100033a8:	b470      	push	{r4, r5, r6}
100033aa:	9d03      	ldr	r5, [sp, #12]
100033ac:	6804      	ldr	r4, [r0, #0]
100033ae:	032d      	lsls	r5, r5, #12
100033b0:	ea45 4503 	orr.w	r5, r5, r3, lsl #16
100033b4:	4b1b      	ldr	r3, [pc, #108]	@ (10003424 <pll_init+0x7c>)
100033b6:	2c00      	cmp	r4, #0
100033b8:	fbb3 f3f1 	udiv	r3, r3, r1
100033bc:	fbb2 f6f3 	udiv	r6, r2, r3
100033c0:	db1f      	blt.n	10003402 <pll_init+0x5a>
100033c2:	4a19      	ldr	r2, [pc, #100]	@ (10003428 <pll_init+0x80>)
100033c4:	4b19      	ldr	r3, [pc, #100]	@ (1000342c <pll_init+0x84>)
100033c6:	4290      	cmp	r0, r2
100033c8:	bf14      	ite	ne
100033ca:	f44f 4280 	movne.w	r2, #16384	@ 0x4000
100033ce:	f44f 4200 	moveq.w	r2, #32768	@ 0x8000
100033d2:	4c17      	ldr	r4, [pc, #92]	@ (10003430 <pll_init+0x88>)
100033d4:	601a      	str	r2, [r3, #0]
100033d6:	f503 5380 	add.w	r3, r3, #4096	@ 0x1000
100033da:	601a      	str	r2, [r3, #0]
100033dc:	68a3      	ldr	r3, [r4, #8]
100033de:	ea32 0303 	bics.w	r3, r2, r3
100033e2:	d1fb      	bne.n	100033dc <pll_init+0x34>
100033e4:	2221      	movs	r2, #33	@ 0x21
100033e6:	f500 5340 	add.w	r3, r0, #12288	@ 0x3000
100033ea:	3304      	adds	r3, #4
100033ec:	6001      	str	r1, [r0, #0]
100033ee:	6086      	str	r6, [r0, #8]
100033f0:	601a      	str	r2, [r3, #0]
100033f2:	6802      	ldr	r2, [r0, #0]
100033f4:	2a00      	cmp	r2, #0
100033f6:	dafc      	bge.n	100033f2 <pll_init+0x4a>
100033f8:	2208      	movs	r2, #8
100033fa:	60c5      	str	r5, [r0, #12]
100033fc:	601a      	str	r2, [r3, #0]
100033fe:	bc70      	pop	{r4, r5, r6}
10003400:	4770      	bx	lr
10003402:	6803      	ldr	r3, [r0, #0]
10003404:	f003 033f 	and.w	r3, r3, #63	@ 0x3f
10003408:	428b      	cmp	r3, r1
1000340a:	d1da      	bne.n	100033c2 <pll_init+0x1a>
1000340c:	6883      	ldr	r3, [r0, #8]
1000340e:	f3c3 030b 	ubfx	r3, r3, #0, #12
10003412:	42b3      	cmp	r3, r6
10003414:	d1d5      	bne.n	100033c2 <pll_init+0x1a>
10003416:	68c3      	ldr	r3, [r0, #12]
10003418:	f403 23ee 	and.w	r3, r3, #487424	@ 0x77000
1000341c:	42ab      	cmp	r3, r5
1000341e:	d1d0      	bne.n	100033c2 <pll_init+0x1a>
10003420:	e7ed      	b.n	100033fe <pll_init+0x56>
10003422:	bf00      	nop
10003424:	00b71b00 	.word	0x00b71b00
10003428:	40058000 	.word	0x40058000
1000342c:	40022000 	.word	0x40022000
10003430:	40020000 	.word	0x40020000

10003434 <tick_start>:
10003434:	2301      	movs	r3, #1
10003436:	eb00 0040 	add.w	r0, r0, r0, lsl #1
1000343a:	0080      	lsls	r0, r0, #2
1000343c:	f100 4080 	add.w	r0, r0, #1073741824	@ 0x40000000
10003440:	f500 1084 	add.w	r0, r0, #1081344	@ 0x108000
10003444:	6041      	str	r1, [r0, #4]
10003446:	6003      	str	r3, [r0, #0]
10003448:	4770      	bx	lr
1000344a:	bf00      	nop

1000344c <rom_func_lookup>:
1000344c:	2300      	movs	r3, #0
1000344e:	8adb      	ldrh	r3, [r3, #22]
10003450:	2200      	movs	r2, #0
10003452:	e842 f200 	tt	r2, r2
10003456:	0252      	lsls	r2, r2, #9
10003458:	d401      	bmi.n	1000345e <rom_func_lookup+0x12>
1000345a:	2110      	movs	r1, #16
1000345c:	4718      	bx	r3
1000345e:	2104      	movs	r1, #4
10003460:	4718      	bx	r3
10003462:	bf00      	nop

10003464 <runtime_init_bootrom_locking_enable>:
10003464:	4a03      	ldr	r2, [pc, #12]	@ (10003474 <runtime_init_bootrom_locking_enable+0x10>)
10003466:	f8d2 3828 	ldr.w	r3, [r2, #2088]	@ 0x828
1000346a:	2b00      	cmp	r3, #0
1000346c:	d0fb      	beq.n	10003466 <runtime_init_bootrom_locking_enable+0x2>
1000346e:	f3bf 8f5f 	dmb	sy
10003472:	4770      	bx	lr
10003474:	400e0000 	.word	0x400e0000

10003478 <runtime_init_boot_locks_reset>:
10003478:	2100      	movs	r1, #0
1000347a:	4b04      	ldr	r3, [pc, #16]	@ (1000348c <runtime_init_boot_locks_reset+0x14>)
1000347c:	4a04      	ldr	r2, [pc, #16]	@ (10003490 <runtime_init_boot_locks_reset+0x18>)
1000347e:	f3bf 8f5f 	dmb	sy
10003482:	f843 1b04 	str.w	r1, [r3], #4
10003486:	4293      	cmp	r3, r2
10003488:	d1f9      	bne.n	1000347e <runtime_init_boot_locks_reset+0x6>
1000348a:	4770      	bx	lr
1000348c:	400e080c 	.word	0x400e080c
10003490:	400e082c 	.word	0x400e082c

10003494 <xosc_init>:
10003494:	b410      	push	{r4}
10003496:	202f      	movs	r0, #47	@ 0x2f
10003498:	f44f 642a 	mov.w	r4, #2720	@ 0xaa0
1000349c:	4a05      	ldr	r2, [pc, #20]	@ (100034b4 <xosc_init+0x20>)
1000349e:	4b06      	ldr	r3, [pc, #24]	@ (100034b8 <xosc_init+0x24>)
100034a0:	4906      	ldr	r1, [pc, #24]	@ (100034bc <xosc_init+0x28>)
100034a2:	6014      	str	r4, [r2, #0]
100034a4:	60d0      	str	r0, [r2, #12]
100034a6:	6019      	str	r1, [r3, #0]
100034a8:	6853      	ldr	r3, [r2, #4]
100034aa:	2b00      	cmp	r3, #0
100034ac:	dafc      	bge.n	100034a8 <xosc_init+0x14>
100034ae:	f85d 4b04 	ldr.w	r4, [sp], #4
100034b2:	4770      	bx	lr
100034b4:	40048000 	.word	0x40048000
100034b8:	4004a000 	.word	0x4004a000
100034bc:	00fab000 	.word	0x00fab000

100034c0 <first_per_core_initializer>:
100034c0:	4770      	bx	lr
100034c2:	bf00      	nop

100034c4 <hard_assertion_failure>:
100034c4:	b508      	push	{r3, lr}
100034c6:	4801      	ldr	r0, [pc, #4]	@ (100034cc <hard_assertion_failure+0x8>)
100034c8:	f7fe ffcc 	bl	10002464 <panic>
100034cc:	1000c548 	.word	0x1000c548

100034d0 <runtime_run_initializers>:
100034d0:	b538      	push	{r3, r4, r5, lr}
100034d2:	4c05      	ldr	r4, [pc, #20]	@ (100034e8 <runtime_run_initializers+0x18>)
100034d4:	4d05      	ldr	r5, [pc, #20]	@ (100034ec <runtime_run_initializers+0x1c>)
100034d6:	42ac      	cmp	r4, r5
100034d8:	d204      	bcs.n	100034e4 <runtime_run_initializers+0x14>
100034da:	f854 3b04 	ldr.w	r3, [r4], #4
100034de:	4798      	blx	r3
100034e0:	42ac      	cmp	r4, r5
100034e2:	d3fa      	bcc.n	100034da <runtime_run_initializers+0xa>
100034e4:	bd38      	pop	{r3, r4, r5, pc}
100034e6:	bf00      	nop
100034e8:	1000c0c8 	.word	0x1000c0c8
100034ec:	1000c108 	.word	0x1000c108

100034f0 <runtime_init_early_resets>:
100034f0:	b410      	push	{r4}
100034f2:	4807      	ldr	r0, [pc, #28]	@ (10003510 <runtime_init_early_resets+0x20>)
100034f4:	4c07      	ldr	r4, [pc, #28]	@ (10003514 <runtime_init_early_resets+0x24>)
100034f6:	4b08      	ldr	r3, [pc, #32]	@ (10003518 <runtime_init_early_resets+0x28>)
100034f8:	4a08      	ldr	r2, [pc, #32]	@ (1000351c <runtime_init_early_resets+0x2c>)
100034fa:	4909      	ldr	r1, [pc, #36]	@ (10003520 <runtime_init_early_resets+0x30>)
100034fc:	6004      	str	r4, [r0, #0]
100034fe:	601a      	str	r2, [r3, #0]
10003500:	688b      	ldr	r3, [r1, #8]
10003502:	ea32 0303 	bics.w	r3, r2, r3
10003506:	d1fb      	bne.n	10003500 <runtime_init_early_resets+0x10>
10003508:	f85d 4b04 	ldr.w	r4, [sp], #4
1000350c:	4770      	bx	lr
1000350e:	bf00      	nop
10003510:	40022000 	.word	0x40022000
10003514:	efef3b7f 	.word	0xefef3b7f
10003518:	40023000 	.word	0x40023000
1000351c:	03f3fff6 	.word	0x03f3fff6
10003520:	40020000 	.word	0x40020000

10003524 <runtime_init_usb_power_down>:
10003524:	4b04      	ldr	r3, [pc, #16]	@ (10003538 <runtime_init_usb_power_down+0x14>)
10003526:	6cdb      	ldr	r3, [r3, #76]	@ 0x4c
10003528:	f5b3 4f00 	cmp.w	r3, #32768	@ 0x8000
1000352c:	d103      	bne.n	10003536 <runtime_init_usb_power_down+0x12>
1000352e:	f44f 2280 	mov.w	r2, #262144	@ 0x40000
10003532:	4b02      	ldr	r3, [pc, #8]	@ (1000353c <runtime_init_usb_power_down+0x18>)
10003534:	64da      	str	r2, [r3, #76]	@ 0x4c
10003536:	4770      	bx	lr
10003538:	50110000 	.word	0x50110000
1000353c:	50112000 	.word	0x50112000

10003540 <runtime_init_per_core_enable_coprocessors>:
10003540:	f04f 22e0 	mov.w	r2, #3758153728	@ 0xe000e000
10003544:	4b04      	ldr	r3, [pc, #16]	@ (10003558 <runtime_init_per_core_enable_coprocessors+0x18>)
10003546:	f8d2 1d88 	ldr.w	r1, [r2, #3464]	@ 0xd88
1000354a:	430b      	orrs	r3, r1
1000354c:	f8c2 3d88 	str.w	r3, [r2, #3464]	@ 0xd88
10003550:	ee10 0430 	dcp_rcmp r0
10003554:	4770      	bx	lr
10003556:	bf00      	nop
10003558:	00300303 	.word	0x00300303

1000355c <runtime_init_post_clock_resets>:
1000355c:	f06f 4160 	mvn.w	r1, #3758096384	@ 0xe0000000
10003560:	4b04      	ldr	r3, [pc, #16]	@ (10003574 <runtime_init_post_clock_resets+0x18>)
10003562:	4a05      	ldr	r2, [pc, #20]	@ (10003578 <runtime_init_post_clock_resets+0x1c>)
10003564:	6019      	str	r1, [r3, #0]
10003566:	6893      	ldr	r3, [r2, #8]
10003568:	43db      	mvns	r3, r3
1000356a:	f033 4360 	bics.w	r3, r3, #3758096384	@ 0xe0000000
1000356e:	d1fa      	bne.n	10003566 <runtime_init_post_clock_resets+0xa>
10003570:	4770      	bx	lr
10003572:	bf00      	nop
10003574:	40023000 	.word	0x40023000
10003578:	40020000 	.word	0x40020000

1000357c <runtime_init_bootrom_reset>:
1000357c:	b510      	push	{r4, lr}
1000357e:	f245 2053 	movw	r0, #21075	@ 0x5253
10003582:	f7ff ff63 	bl	1000344c <rom_func_lookup>
10003586:	e8bd 4010 	ldmia.w	sp!, {r4, lr}
1000358a:	4603      	mov	r3, r0
1000358c:	2004      	movs	r0, #4
1000358e:	4718      	bx	r3

10003590 <runtime_init_per_core_bootrom_reset>:
10003590:	b510      	push	{r4, lr}
10003592:	f245 2053 	movw	r0, #21075	@ 0x5253
10003596:	f7ff ff59 	bl	1000344c <rom_func_lookup>
1000359a:	e8bd 4010 	ldmia.w	sp!, {r4, lr}
1000359e:	4603      	mov	r3, r0
100035a0:	2001      	movs	r0, #1
100035a2:	4718      	bx	r3

100035a4 <runtime_init_spin_locks_reset>:
100035a4:	f7fe bfb6 	b.w	10002514 <spin_locks_reset>

100035a8 <runtime_init_install_ram_vector_table>:
100035a8:	b510      	push	{r4, lr}
100035aa:	4b05      	ldr	r3, [pc, #20]	@ (100035c0 <runtime_init_install_ram_vector_table+0x18>)
100035ac:	4c05      	ldr	r4, [pc, #20]	@ (100035c4 <runtime_init_install_ram_vector_table+0x1c>)
100035ae:	f44f 7288 	mov.w	r2, #272	@ 0x110
100035b2:	4618      	mov	r0, r3
100035b4:	68a1      	ldr	r1, [r4, #8]
100035b6:	f003 fb0d 	bl	10006bd4 <memcpy>
100035ba:	60a0      	str	r0, [r4, #8]
100035bc:	bd10      	pop	{r4, pc}
100035be:	bf00      	nop
100035c0:	20000000 	.word	0x20000000
100035c4:	e000ed00 	.word	0xe000ed00

100035c8 <runtime_init_clocks>:
100035c8:	2300      	movs	r3, #0
100035ca:	b570      	push	{r4, r5, r6, lr}
100035cc:	4c2b      	ldr	r4, [pc, #172]	@ (1000367c <runtime_init_clocks+0xb4>)
100035ce:	b082      	sub	sp, #8
100035d0:	f8c4 3084 	str.w	r3, [r4, #132]	@ 0x84
100035d4:	f7ff ff5e 	bl	10003494 <xosc_init>
100035d8:	2201      	movs	r2, #1
100035da:	4b29      	ldr	r3, [pc, #164]	@ (10003680 <runtime_init_clocks+0xb8>)
100035dc:	63da      	str	r2, [r3, #60]	@ 0x3c
100035de:	6c63      	ldr	r3, [r4, #68]	@ 0x44
100035e0:	2b01      	cmp	r3, #1
100035e2:	d1fc      	bne.n	100035de <runtime_init_clocks+0x16>
100035e4:	2103      	movs	r1, #3
100035e6:	4a26      	ldr	r2, [pc, #152]	@ (10003680 <runtime_init_clocks+0xb8>)
100035e8:	4b24      	ldr	r3, [pc, #144]	@ (1000367c <runtime_init_clocks+0xb4>)
100035ea:	6311      	str	r1, [r2, #48]	@ 0x30
100035ec:	6b9c      	ldr	r4, [r3, #56]	@ 0x38
100035ee:	2c01      	cmp	r4, #1
100035f0:	d1fc      	bne.n	100035ec <runtime_init_clocks+0x24>
100035f2:	2602      	movs	r6, #2
100035f4:	2505      	movs	r5, #5
100035f6:	4621      	mov	r1, r4
100035f8:	2305      	movs	r3, #5
100035fa:	4a22      	ldr	r2, [pc, #136]	@ (10003684 <runtime_init_clocks+0xbc>)
100035fc:	4822      	ldr	r0, [pc, #136]	@ (10003688 <runtime_init_clocks+0xc0>)
100035fe:	9600      	str	r6, [sp, #0]
10003600:	f7ff fed2 	bl	100033a8 <pll_init>
10003604:	4621      	mov	r1, r4
10003606:	462b      	mov	r3, r5
10003608:	4a20      	ldr	r2, [pc, #128]	@ (1000368c <runtime_init_clocks+0xc4>)
1000360a:	4821      	ldr	r0, [pc, #132]	@ (10003690 <runtime_init_clocks+0xc8>)
1000360c:	9500      	str	r5, [sp, #0]
1000360e:	f7ff fecb 	bl	100033a8 <pll_init>
10003612:	2200      	movs	r2, #0
10003614:	2004      	movs	r0, #4
10003616:	4631      	mov	r1, r6
10003618:	4b1e      	ldr	r3, [pc, #120]	@ (10003694 <runtime_init_clocks+0xcc>)
1000361a:	f7ff fe57 	bl	100032cc <clock_configure_undivided>
1000361e:	4621      	mov	r1, r4
10003620:	4628      	mov	r0, r5
10003622:	2200      	movs	r2, #0
10003624:	4b1c      	ldr	r3, [pc, #112]	@ (10003698 <runtime_init_clocks+0xd0>)
10003626:	f7ff fe51 	bl	100032cc <clock_configure_undivided>
1000362a:	2200      	movs	r2, #0
1000362c:	2008      	movs	r0, #8
1000362e:	4611      	mov	r1, r2
10003630:	4b1a      	ldr	r3, [pc, #104]	@ (1000369c <runtime_init_clocks+0xd4>)
10003632:	f7ff fe4b 	bl	100032cc <clock_configure_undivided>
10003636:	2200      	movs	r2, #0
10003638:	2009      	movs	r0, #9
1000363a:	4611      	mov	r1, r2
1000363c:	4b17      	ldr	r3, [pc, #92]	@ (1000369c <runtime_init_clocks+0xd4>)
1000363e:	f7ff fe45 	bl	100032cc <clock_configure_undivided>
10003642:	2200      	movs	r2, #0
10003644:	2006      	movs	r0, #6
10003646:	4611      	mov	r1, r2
10003648:	4b13      	ldr	r3, [pc, #76]	@ (10003698 <runtime_init_clocks+0xd0>)
1000364a:	f7ff fe3f 	bl	100032cc <clock_configure_undivided>
1000364e:	2200      	movs	r2, #0
10003650:	4b11      	ldr	r3, [pc, #68]	@ (10003698 <runtime_init_clocks+0xd0>)
10003652:	2007      	movs	r0, #7
10003654:	4611      	mov	r1, r2
10003656:	f7ff fe39 	bl	100032cc <clock_configure_undivided>
1000365a:	2004      	movs	r0, #4
1000365c:	f7ff fe9e 	bl	1000339c <clock_get_hz>
10003660:	2400      	movs	r4, #0
10003662:	4b0f      	ldr	r3, [pc, #60]	@ (100036a0 <runtime_init_clocks+0xd8>)
10003664:	fba3 3500 	umull	r3, r5, r3, r0
10003668:	0cad      	lsrs	r5, r5, #18
1000366a:	b2e0      	uxtb	r0, r4
1000366c:	4629      	mov	r1, r5
1000366e:	3401      	adds	r4, #1
10003670:	f7ff fee0 	bl	10003434 <tick_start>
10003674:	2c06      	cmp	r4, #6
10003676:	d1f8      	bne.n	1000366a <runtime_init_clocks+0xa2>
10003678:	b002      	add	sp, #8
1000367a:	bd70      	pop	{r4, r5, r6, pc}
1000367c:	40010000 	.word	0x40010000
10003680:	40013000 	.word	0x40013000
10003684:	59682f00 	.word	0x59682f00
10003688:	40050000 	.word	0x40050000
1000368c:	47868c00 	.word	0x47868c00
10003690:	40058000 	.word	0x40058000
10003694:	00b71b00 	.word	0x00b71b00
10003698:	08f0d180 	.word	0x08f0d180
1000369c:	02dc6c00 	.word	0x02dc6c00
100036a0:	431bde83 	.word	0x431bde83

100036a4 <generic_save_state>:
100036a4:	b086      	sub	sp, #24
100036a6:	b403      	push	{r0, r1}
100036a8:	fc51 0408 	dcp_pxmd r0, r1
100036ac:	e9cd 0102 	strd	r0, r1, [sp, #8]
100036b0:	fc51 0409 	dcp_pymd r0, r1
100036b4:	e9cd 0104 	strd	r0, r1, [sp, #16]
100036b8:	ec51 040a 	dcp_refd r0, r1
100036bc:	e9cd 0106 	strd	r0, r1, [sp, #24]
100036c0:	bc03      	pop	{r0, r1}
100036c2:	47f0      	blx	lr

100036c4 <generic_restore_state>:
100036c4:	e8bd 5000 	ldmia.w	sp!, {ip, lr}
100036c8:	ec4e c400 	dcp_wxmd ip, lr
100036cc:	e8bd 5000 	ldmia.w	sp!, {ip, lr}
100036d0:	ec4e c401 	dcp_wymd ip, lr
100036d4:	e8bd 5000 	ldmia.w	sp!, {ip, lr}
100036d8:	ec4e c402 	dcp_wefd ip, lr
100036dc:	bd00      	pop	{pc}
100036de:	0000      	movs	r0, r0
100036e0:	b500      	push	{lr}
100036e2:	f7ff ffdf 	bl	100036a4 <generic_save_state>
100036e6:	e002      	b.n	100036ee <__wrap___aeabi_dadd+0x6>

100036e8 <__wrap___aeabi_dadd>:
100036e8:	fe10 f430 	dcp_pcmp APSR_nzcv
100036ec:	d4f8      	bmi.n	100036e0 <generic_restore_state+0x1c>
100036ee:	ec41 0410 	dcp_wxup r0, r1
100036f2:	ec43 2411 	dcp_wyup r2, r3
100036f6:	ee00 0401 	dcp_add0
100036fa:	ee10 0401 	dcp_add1
100036fe:	ee80 0420 	dcp_nrdd
10003702:	ec51 0410 	dcp_rdda r0, r1
10003706:	4770      	bx	lr
10003708:	b500      	push	{lr}
1000370a:	f7ff ffcb 	bl	100036a4 <generic_save_state>
1000370e:	e002      	b.n	10003716 <__wrap___aeabi_dsub+0x6>

10003710 <__wrap___aeabi_dsub>:
10003710:	fe10 f430 	dcp_pcmp APSR_nzcv
10003714:	d4f8      	bmi.n	10003708 <__wrap___aeabi_dadd+0x20>
10003716:	ec41 0410 	dcp_wxup r0, r1
1000371a:	ec43 2411 	dcp_wyup r2, r3
1000371e:	ee00 0401 	dcp_add0
10003722:	ee10 0421 	dcp_sub1
10003726:	ee80 0420 	dcp_nrdd
1000372a:	ec51 0430 	dcp_rdds r0, r1
1000372e:	4770      	bx	lr
10003730:	b500      	push	{lr}
10003732:	f7ff ffb7 	bl	100036a4 <generic_save_state>
10003736:	e002      	b.n	1000373e <__wrap___aeabi_dmul+0x6>

10003738 <__wrap___aeabi_dmul>:
10003738:	fe10 f430 	dcp_pcmp APSR_nzcv
1000373c:	d4f8      	bmi.n	10003730 <__wrap___aeabi_dsub+0x20>
1000373e:	b510      	push	{r4, lr}
10003740:	ec41 0410 	dcp_wxup r0, r1
10003744:	ec43 2411 	dcp_wyup r2, r3
10003748:	ec51 0404 	dcp_rxms r0, r1, #0x0
1000374c:	ec53 2405 	dcp_ryms r2, r3, #0x0
10003750:	fba0 4c02 	umull	r4, ip, r0, r2
10003754:	f05f 0e00 	movs.w	lr, #0
10003758:	fbe0 ce03 	umlal	ip, lr, r0, r3
1000375c:	fbe1 ce02 	umlal	ip, lr, r1, r2
10003760:	ec4c 4420 	dcp_wxms r4, ip
10003764:	2400      	movs	r4, #0
10003766:	fbe1 e403 	umlal	lr, r4, r1, r3
1000376a:	ec44 e430 	dcp_wxmo lr, r4
1000376e:	ee80 0420 	dcp_nrdd
10003772:	ec51 0450 	dcp_rddm r0, r1
10003776:	e8bd 4010 	ldmia.w	sp!, {r4, lr}
1000377a:	4770      	bx	lr
1000377c:	b500      	push	{lr}
1000377e:	f7ff ff91 	bl	100036a4 <generic_save_state>
10003782:	e002      	b.n	1000378a <__wrap___aeabi_ddiv+0x6>

10003784 <__wrap___aeabi_ddiv>:
10003784:	fe10 f430 	dcp_pcmp APSR_nzcv
10003788:	d4f8      	bmi.n	1000377c <__wrap___aeabi_dmul+0x44>
1000378a:	ec41 0410 	dcp_wxup r0, r1
1000378e:	ec43 2411 	dcp_wyup r2, r3
10003792:	ec51 0421 	dcp_rymr r0, r1
10003796:	fba0 1201 	umull	r1, r2, r0, r1
1000379a:	ea6f 0282 	mvn.w	r2, r2, lsl #2
1000379e:	fb52 0010 	smmlar	r0, r2, r0, r0
100037a2:	fb52 f212 	smmulr	r2, r2, r2
100037a6:	fb52 0010 	smmlar	r0, r2, r0, r0
100037aa:	eba0 7cd0 	sub.w	ip, r0, r0, lsr #31
100037ae:	ec53 2404 	dcp_rxms r2, r3, #0x0
100037b2:	fb5c f113 	smmulr	r1, ip, r3
100037b6:	ec53 2415 	dcp_ryms r2, r3, #0x1
100037ba:	fba1 2002 	umull	r2, r0, r1, r2
100037be:	fb01 0003 	mla	r0, r1, r3, r0
100037c2:	ec53 2444 	dcp_rxms r2, r3, #0x4
100037c6:	eba2 0000 	sub.w	r0, r2, r0
100037ca:	fb50 f21c 	smmulr	r2, r0, ip
100037ce:	ea4f 1311 	mov.w	r3, r1, lsr #4
100037d2:	eb12 7001 	adds.w	r0, r2, r1, lsl #28
100037d6:	eb43 71e2 	adc.w	r1, r3, r2, asr #31
100037da:	ea40 5051 	orr.w	r0, r0, r1, lsr #21
100037de:	ea20 5091 	bic.w	r0, r0, r1, lsr #22
100037e2:	f020 0007 	bic.w	r0, r0, #7
100037e6:	ec53 2475 	dcp_ryms r2, r3, #0x7
100037ea:	fba0 3c02 	umull	r3, ip, r0, r2
100037ee:	ec53 2475 	dcp_ryms r2, r3, #0x7
100037f2:	fb00 cc03 	mla	ip, r0, r3, ip
100037f6:	fb01 cc02 	mla	ip, r1, r2, ip
100037fa:	ec53 2404 	dcp_rxms r2, r3, #0x0
100037fe:	ebac 4c82 	sub.w	ip, ip, r2, lsl #18
10003802:	ea40 705c 	orr.w	r0, r0, ip, lsr #29
10003806:	f1a0 0001 	sub.w	r0, r0, #1
1000380a:	ec41 0440 	dcp_wxdd r0, r1
1000380e:	ee80 0420 	dcp_nrdd
10003812:	ec51 0470 	dcp_rddd r0, r1
10003816:	4770      	bx	lr
10003818:	b500      	push	{lr}
1000381a:	f7ff ff43 	bl	100036a4 <generic_save_state>
1000381e:	e002      	b.n	10003826 <__wrap___aeabi_d2f+0x6>

10003820 <__wrap___aeabi_d2f>:
10003820:	fe10 f430 	dcp_pcmp APSR_nzcv
10003824:	d4f8      	bmi.n	10003818 <__wrap___aeabi_ddiv+0x94>
10003826:	ec41 0410 	dcp_wxup r0, r1
1000382a:	ee80 0422 	dcp_nrdf
1000382e:	ee10 04b2 	dcp_rdfg r0
10003832:	4770      	bx	lr
10003834:	b500      	push	{lr}
10003836:	f7ff ff35 	bl	100036a4 <generic_save_state>
1000383a:	e002      	b.n	10003842 <__wrap___aeabi_i2d+0x6>

1000383c <__wrap___aeabi_i2d>:
1000383c:	fe10 f430 	dcp_pcmp APSR_nzcv
10003840:	d4f8      	bmi.n	10003834 <__wrap___aeabi_d2f+0x14>
10003842:	ec40 0470 	dcp_wxic r0, r0
10003846:	ee00 0401 	dcp_add0
1000384a:	ee10 0421 	dcp_sub1
1000384e:	ee80 0420 	dcp_nrdd
10003852:	ec51 0430 	dcp_rdds r0, r1
10003856:	4770      	bx	lr
10003858:	b500      	push	{lr}
1000385a:	f7ff ff23 	bl	100036a4 <generic_save_state>
1000385e:	e002      	b.n	10003866 <__wrap___aeabi_ui2d+0x6>

10003860 <__wrap___aeabi_ui2d>:
10003860:	fe10 f430 	dcp_pcmp APSR_nzcv
10003864:	d4f8      	bmi.n	10003858 <__wrap___aeabi_i2d+0x1c>
10003866:	ec40 0460 	dcp_wxuc r0, r0
1000386a:	ee00 0401 	dcp_add0
1000386e:	ee10 0421 	dcp_sub1
10003872:	ee80 0420 	dcp_nrdd
10003876:	ec51 0430 	dcp_rdds r0, r1
1000387a:	4770      	bx	lr
1000387c:	b500      	push	{lr}
1000387e:	f7ff ff11 	bl	100036a4 <generic_save_state>
10003882:	e002      	b.n	1000388a <__wrap___aeabi_d2iz+0x6>

10003884 <__wrap___aeabi_d2iz>:
10003884:	fe10 f430 	dcp_pcmp APSR_nzcv
10003888:	d4f8      	bmi.n	1000387c <__wrap___aeabi_ui2d+0x1c>
1000388a:	ec41 0480 	dcp_wxdc r0, r1
1000388e:	ee00 0401 	dcp_add0
10003892:	ee10 0401 	dcp_add1
10003896:	ee80 0440 	dcp_ntdc
1000389a:	ee10 0413 	dcp_rdic r0
1000389e:	4770      	bx	lr
100038a0:	b500      	push	{lr}
100038a2:	f7ff feff 	bl	100036a4 <generic_save_state>
100038a6:	e002      	b.n	100038ae <__wrap___aeabi_d2uiz+0x6>

100038a8 <__wrap___aeabi_d2uiz>:
100038a8:	fe10 f430 	dcp_pcmp APSR_nzcv
100038ac:	d4f8      	bmi.n	100038a0 <__wrap___aeabi_d2iz+0x1c>
100038ae:	ec41 0480 	dcp_wxdc r0, r1
100038b2:	ee00 0401 	dcp_add0
100038b6:	ee10 0401 	dcp_add1
100038ba:	ee80 0440 	dcp_ntdc
100038be:	ee10 0433 	dcp_rduc r0
100038c2:	4770      	bx	lr
100038c4:	b500      	push	{lr}
100038c6:	f7ff feed 	bl	100036a4 <generic_save_state>
100038ca:	e002      	b.n	100038d2 <__wrap___aeabi_dcmpun+0x6>

100038cc <__wrap___aeabi_dcmpun>:
100038cc:	fe10 f430 	dcp_pcmp APSR_nzcv
100038d0:	d4f8      	bmi.n	100038c4 <__wrap___aeabi_d2uiz+0x1c>
100038d2:	ec41 0410 	dcp_wxup r0, r1
100038d6:	ec43 2411 	dcp_wyup r2, r3
100038da:	ee00 0401 	dcp_add0
100038de:	ee10 0430 	dcp_rcmp r0
100038e2:	f3c0 7000 	ubfx	r0, r0, #28, #1
100038e6:	4770      	bx	lr
100038e8:	b500      	push	{lr}
100038ea:	f7ff fedb 	bl	100036a4 <generic_save_state>
100038ee:	e002      	b.n	100038f6 <__wrap___aeabi_dcmpeq+0x6>

100038f0 <__wrap___aeabi_dcmpeq>:
100038f0:	fe10 f430 	dcp_pcmp APSR_nzcv
100038f4:	d4f8      	bmi.n	100038e8 <__wrap___aeabi_dcmpun+0x1c>
100038f6:	ec41 0410 	dcp_wxup r0, r1
100038fa:	ec43 2411 	dcp_wyup r2, r3
100038fe:	ee00 0401 	dcp_add0
10003902:	ee10 0430 	dcp_rcmp r0
10003906:	f3c0 7080 	ubfx	r0, r0, #30, #1
1000390a:	4770      	bx	lr
1000390c:	b500      	push	{lr}
1000390e:	f7ff fec9 	bl	100036a4 <generic_save_state>
10003912:	e002      	b.n	1000391a <__wrap___aeabi_dcmplt+0x6>

10003914 <__wrap___aeabi_dcmplt>:
10003914:	fe10 f430 	dcp_pcmp APSR_nzcv
10003918:	d4f8      	bmi.n	1000390c <__wrap___aeabi_dcmpeq+0x1c>
1000391a:	ec43 2410 	dcp_wxup r2, r3
1000391e:	ec41 0411 	dcp_wyup r0, r1
10003922:	ee00 0401 	dcp_add0
10003926:	ee10 f430 	dcp_rcmp APSR_nzcv
1000392a:	bf8c      	ite	hi
1000392c:	2001      	movhi	r0, #1
1000392e:	2000      	movls	r0, #0
10003930:	4770      	bx	lr
10003932:	bf00      	nop
10003934:	b500      	push	{lr}
10003936:	f7ff feb5 	bl	100036a4 <generic_save_state>
1000393a:	e002      	b.n	10003942 <__wrap___aeabi_dcmple+0x6>

1000393c <__wrap___aeabi_dcmple>:
1000393c:	fe10 f430 	dcp_pcmp APSR_nzcv
10003940:	d4f8      	bmi.n	10003934 <__wrap___aeabi_dcmplt+0x20>
10003942:	ec43 2410 	dcp_wxup r2, r3
10003946:	ec41 0411 	dcp_wyup r0, r1
1000394a:	ee00 0401 	dcp_add0
1000394e:	ee10 f430 	dcp_rcmp APSR_nzcv
10003952:	bf2c      	ite	cs
10003954:	2001      	movcs	r0, #1
10003956:	2000      	movcc	r0, #0
10003958:	4770      	bx	lr
1000395a:	bf00      	nop
1000395c:	b500      	push	{lr}
1000395e:	f7ff fea1 	bl	100036a4 <generic_save_state>
10003962:	e002      	b.n	1000396a <__wrap___aeabi_dcmpge+0x6>

10003964 <__wrap___aeabi_dcmpge>:
10003964:	fe10 f430 	dcp_pcmp APSR_nzcv
10003968:	d4f8      	bmi.n	1000395c <__wrap___aeabi_dcmple+0x20>
1000396a:	ec41 0410 	dcp_wxup r0, r1
1000396e:	ec43 2411 	dcp_wyup r2, r3
10003972:	ee00 0401 	dcp_add0
10003976:	ee10 f430 	dcp_rcmp APSR_nzcv
1000397a:	bf2c      	ite	cs
1000397c:	2001      	movcs	r0, #1
1000397e:	2000      	movcc	r0, #0
10003980:	4770      	bx	lr
10003982:	bf00      	nop
10003984:	b500      	push	{lr}
10003986:	f7ff fe8d 	bl	100036a4 <generic_save_state>
1000398a:	e002      	b.n	10003992 <__wrap___aeabi_dcmpgt+0x6>

1000398c <__wrap___aeabi_dcmpgt>:
1000398c:	fe10 f430 	dcp_pcmp APSR_nzcv
10003990:	d4f8      	bmi.n	10003984 <__wrap___aeabi_dcmpge+0x20>
10003992:	ec41 0410 	dcp_wxup r0, r1
10003996:	ec43 2411 	dcp_wyup r2, r3
1000399a:	ee00 0401 	dcp_add0
1000399e:	ee10 f430 	dcp_rcmp APSR_nzcv
100039a2:	bf8c      	ite	hi
100039a4:	2001      	movhi	r0, #1
100039a6:	2000      	movls	r0, #0
100039a8:	4770      	bx	lr
100039aa:	bf00      	nop

100039ac <__wrap___aeabi_l2d>:
100039ac:	2200      	movs	r2, #0

100039ae <fix642double>:
100039ae:	2900      	cmp	r1, #0
100039b0:	da50      	bge.n	10003a54 <ufix642double>
100039b2:	4240      	negs	r0, r0
100039b4:	eb61 0141 	sbc.w	r1, r1, r1, lsl #1
100039b8:	b1c9      	cbz	r1, 100039ee <fix642double+0x40>
100039ba:	fab1 f381 	clz	r3, r1
100039be:	3b0b      	subs	r3, #11
100039c0:	d417      	bmi.n	100039f2 <fix642double+0x44>
100039c2:	f1d3 0c20 	rsbs	ip, r3, #32
100039c6:	fa30 fc0c 	lsrs.w	ip, r0, ip
100039ca:	4098      	lsls	r0, r3
100039cc:	4099      	lsls	r1, r3
100039ce:	ea51 010c 	orrs.w	r1, r1, ip
100039d2:	441a      	add	r2, r3
100039d4:	4252      	negs	r2, r2
100039d6:	f202 4232 	addw	r2, r2, #1074	@ 0x432
100039da:	eb01 5102 	add.w	r1, r1, r2, lsl #20
100039de:	f041 4100 	orr.w	r1, r1, #2147483648	@ 0x80000000
100039e2:	f240 73fe 	movw	r3, #2046	@ 0x7fe
100039e6:	429a      	cmp	r2, r3
100039e8:	bf38      	it	cc
100039ea:	4770      	bxcc	lr
100039ec:	e021      	b.n	10003a32 <fix642double+0x84>
100039ee:	4611      	mov	r1, r2
100039f0:	e07e      	b.n	10003af0 <fix2double_neg>
100039f2:	f103 0321 	add.w	r3, r3, #33	@ 0x21
100039f6:	fa10 fc03 	lsls.w	ip, r0, r3
100039fa:	f1a3 0301 	sub.w	r3, r3, #1
100039fe:	fa01 fc03 	lsl.w	ip, r1, r3
10003a02:	f1c3 0320 	rsb	r3, r3, #32
10003a06:	fa20 f003 	lsr.w	r0, r0, r3
10003a0a:	fa21 f103 	lsr.w	r1, r1, r3
10003a0e:	ea40 000c 	orr.w	r0, r0, ip
10003a12:	eba3 0202 	sub.w	r2, r3, r2
10003a16:	f202 4232 	addw	r2, r2, #1074	@ 0x432
10003a1a:	d014      	beq.n	10003a46 <fix642double+0x98>
10003a1c:	f150 0000 	adcs.w	r0, r0, #0
10003a20:	eb41 5102 	adc.w	r1, r1, r2, lsl #20
10003a24:	f041 4100 	orr.w	r1, r1, #2147483648	@ 0x80000000
10003a28:	f240 73fe 	movw	r3, #2046	@ 0x7fe
10003a2c:	429a      	cmp	r2, r3
10003a2e:	bf38      	it	cc
10003a30:	4770      	bxcc	lr
10003a32:	f04f 0100 	mov.w	r1, #0
10003a36:	bfa8      	it	ge
10003a38:	f6c7 71f0 	movtge	r1, #32752	@ 0x7ff0
10003a3c:	f04f 0000 	mov.w	r0, #0
10003a40:	4770      	bx	lr
10003a42:	2100      	movs	r1, #0
10003a44:	4770      	bx	lr
10003a46:	d3eb      	bcc.n	10003a20 <fix642double+0x72>
10003a48:	f150 0000 	adcs.w	r0, r0, #0
10003a4c:	f020 0001 	bic.w	r0, r0, #1
10003a50:	e7e6      	b.n	10003a20 <fix642double+0x72>

10003a52 <__wrap___aeabi_ul2d>:
10003a52:	2200      	movs	r2, #0

10003a54 <ufix642double>:
10003a54:	b1b9      	cbz	r1, 10003a86 <ufix642double+0x32>
10003a56:	fab1 f381 	clz	r3, r1
10003a5a:	3b0b      	subs	r3, #11
10003a5c:	d416      	bmi.n	10003a8c <ufix642double+0x38>
10003a5e:	f1d3 0c20 	rsbs	ip, r3, #32
10003a62:	fa30 fc0c 	lsrs.w	ip, r0, ip
10003a66:	4098      	lsls	r0, r3
10003a68:	4099      	lsls	r1, r3
10003a6a:	ea51 010c 	orrs.w	r1, r1, ip
10003a6e:	441a      	add	r2, r3
10003a70:	4252      	negs	r2, r2
10003a72:	f202 4232 	addw	r2, r2, #1074	@ 0x432
10003a76:	eb01 5102 	add.w	r1, r1, r2, lsl #20
10003a7a:	f240 73fe 	movw	r3, #2046	@ 0x7fe
10003a7e:	429a      	cmp	r2, r3
10003a80:	bf38      	it	cc
10003a82:	4770      	bxcc	lr
10003a84:	e020      	b.n	10003ac8 <ufix642double+0x74>
10003a86:	4611      	mov	r1, r2
10003a88:	f000 b866 	b.w	10003b58 <ufix2double>
10003a8c:	f103 0321 	add.w	r3, r3, #33	@ 0x21
10003a90:	fa10 fc03 	lsls.w	ip, r0, r3
10003a94:	f1a3 0301 	sub.w	r3, r3, #1
10003a98:	fa01 fc03 	lsl.w	ip, r1, r3
10003a9c:	f1c3 0320 	rsb	r3, r3, #32
10003aa0:	fa20 f003 	lsr.w	r0, r0, r3
10003aa4:	fa21 f103 	lsr.w	r1, r1, r3
10003aa8:	ea40 000c 	orr.w	r0, r0, ip
10003aac:	eba3 0202 	sub.w	r2, r3, r2
10003ab0:	f202 4232 	addw	r2, r2, #1074	@ 0x432
10003ab4:	d012      	beq.n	10003adc <ufix642double+0x88>
10003ab6:	f150 0000 	adcs.w	r0, r0, #0
10003aba:	eb41 5102 	adc.w	r1, r1, r2, lsl #20
10003abe:	f240 73fe 	movw	r3, #2046	@ 0x7fe
10003ac2:	429a      	cmp	r2, r3
10003ac4:	bf38      	it	cc
10003ac6:	4770      	bxcc	lr
10003ac8:	f04f 0100 	mov.w	r1, #0
10003acc:	bfa8      	it	ge
10003ace:	f6c7 71f0 	movtge	r1, #32752	@ 0x7ff0
10003ad2:	f04f 0000 	mov.w	r0, #0
10003ad6:	4770      	bx	lr
10003ad8:	2100      	movs	r1, #0
10003ada:	4770      	bx	lr
10003adc:	d3ed      	bcc.n	10003aba <ufix642double+0x66>
10003ade:	f150 0000 	adcs.w	r0, r0, #0
10003ae2:	f020 0001 	bic.w	r0, r0, #1
10003ae6:	e7e8      	b.n	10003aba <ufix642double+0x66>

10003ae8 <fix2double>:
10003ae8:	2800      	cmp	r0, #0
10003aea:	f280 8035 	bge.w	10003b58 <ufix2double>
10003aee:	4240      	negs	r0, r0

10003af0 <fix2double_neg>:
10003af0:	fab0 f380 	clz	r3, r0
10003af4:	3b0b      	subs	r3, #11
10003af6:	d411      	bmi.n	10003b1c <fix2double_neg+0x2c>
10003af8:	4098      	lsls	r0, r3
10003afa:	eb01 0203 	add.w	r2, r1, r3
10003afe:	4252      	negs	r2, r2
10003b00:	f202 4212 	addw	r2, r2, #1042	@ 0x412
10003b04:	eb00 5102 	add.w	r1, r0, r2, lsl #20
10003b08:	f041 4100 	orr.w	r1, r1, #2147483648	@ 0x80000000
10003b0c:	f04f 0000 	mov.w	r0, #0
10003b10:	f240 73fe 	movw	r3, #2046	@ 0x7fe
10003b14:	429a      	cmp	r2, r3
10003b16:	bf38      	it	cc
10003b18:	4770      	bxcc	lr
10003b1a:	e013      	b.n	10003b44 <fix2double_neg+0x54>
10003b1c:	f1c3 0300 	rsb	r3, r3, #0
10003b20:	fa30 fc03 	lsrs.w	ip, r0, r3
10003b24:	f1c3 0220 	rsb	r2, r3, #32
10003b28:	4090      	lsls	r0, r2
10003b2a:	eba3 0201 	sub.w	r2, r3, r1
10003b2e:	f202 4212 	addw	r2, r2, #1042	@ 0x412
10003b32:	eb0c 5102 	add.w	r1, ip, r2, lsl #20
10003b36:	f041 4100 	orr.w	r1, r1, #2147483648	@ 0x80000000
10003b3a:	f240 73fe 	movw	r3, #2046	@ 0x7fe
10003b3e:	429a      	cmp	r2, r3
10003b40:	bf38      	it	cc
10003b42:	4770      	bxcc	lr
10003b44:	f04f 4100 	mov.w	r1, #2147483648	@ 0x80000000
10003b48:	bfa8      	it	ge
10003b4a:	f6cf 71f0 	movtge	r1, #65520	@ 0xfff0
10003b4e:	f04f 0000 	mov.w	r0, #0
10003b52:	4770      	bx	lr
10003b54:	2100      	movs	r1, #0
10003b56:	4770      	bx	lr

10003b58 <ufix2double>:
10003b58:	b360      	cbz	r0, 10003bb4 <ufix2double+0x5c>
10003b5a:	fab0 f380 	clz	r3, r0
10003b5e:	3b0b      	subs	r3, #11
10003b60:	d40f      	bmi.n	10003b82 <ufix2double+0x2a>
10003b62:	4098      	lsls	r0, r3
10003b64:	eb01 0203 	add.w	r2, r1, r3
10003b68:	4252      	negs	r2, r2
10003b6a:	f202 4212 	addw	r2, r2, #1042	@ 0x412
10003b6e:	eb00 5102 	add.w	r1, r0, r2, lsl #20
10003b72:	f04f 0000 	mov.w	r0, #0
10003b76:	f240 73fe 	movw	r3, #2046	@ 0x7fe
10003b7a:	429a      	cmp	r2, r3
10003b7c:	bf38      	it	cc
10003b7e:	4770      	bxcc	lr
10003b80:	e010      	b.n	10003ba4 <ufix2double+0x4c>
10003b82:	425b      	negs	r3, r3
10003b84:	fa30 fc03 	lsrs.w	ip, r0, r3
10003b88:	f1c3 0220 	rsb	r2, r3, #32
10003b8c:	4090      	lsls	r0, r2
10003b8e:	eba3 0201 	sub.w	r2, r3, r1
10003b92:	f202 4212 	addw	r2, r2, #1042	@ 0x412
10003b96:	eb0c 5102 	add.w	r1, ip, r2, lsl #20
10003b9a:	f240 73fe 	movw	r3, #2046	@ 0x7fe
10003b9e:	429a      	cmp	r2, r3
10003ba0:	bf38      	it	cc
10003ba2:	4770      	bxcc	lr
10003ba4:	f04f 0100 	mov.w	r1, #0
10003ba8:	bfa8      	it	ge
10003baa:	f6c7 71f0 	movtge	r1, #32752	@ 0x7ff0
10003bae:	f04f 0000 	mov.w	r0, #0
10003bb2:	4770      	bx	lr
10003bb4:	2100      	movs	r1, #0
10003bb6:	4770      	bx	lr

10003bb8 <__wrap___aeabi_d2lz>:
10003bb8:	2200      	movs	r2, #0

10003bba <double2fix64_z>:
10003bba:	f2a2 4232 	subw	r2, r2, #1074	@ 0x432
10003bbe:	ea5f 5c21 	movs.w	ip, r1, asr #20
10003bc2:	f1ac 0301 	sub.w	r3, ip, #1
10003bc6:	eba1 5103 	sub.w	r1, r1, r3, lsl #20
10003bca:	055b      	lsls	r3, r3, #21
10003bcc:	f513 0f80 	cmn.w	r3, #4194304	@ 0x400000
10003bd0:	d232      	bcs.n	10003c38 <double2fix64_z+0x7e>
10003bd2:	eb12 5253 	adds.w	r2, r2, r3, lsr #21
10003bd6:	d410      	bmi.n	10003bfa <double2fix64_z+0x40>
10003bd8:	2a0b      	cmp	r2, #11
10003bda:	da36      	bge.n	10003c4a <double2fix64_z+0x90>
10003bdc:	4091      	lsls	r1, r2
10003bde:	f1d2 0320 	rsbs	r3, r2, #32
10003be2:	fa30 f303 	lsrs.w	r3, r0, r3
10003be6:	4319      	orrs	r1, r3
10003be8:	4090      	lsls	r0, r2
10003bea:	f1bc 0f00 	cmp.w	ip, #0
10003bee:	bfa8      	it	ge
10003bf0:	4770      	bxge	lr
10003bf2:	4240      	negs	r0, r0
10003bf4:	eb61 0141 	sbc.w	r1, r1, r1, lsl #1
10003bf8:	4770      	bx	lr
10003bfa:	3220      	adds	r2, #32
10003bfc:	dd0e      	ble.n	10003c1c <double2fix64_z+0x62>
10003bfe:	fa01 f302 	lsl.w	r3, r1, r2
10003c02:	f1d2 0220 	rsbs	r2, r2, #32
10003c06:	40d1      	lsrs	r1, r2
10003c08:	40d0      	lsrs	r0, r2
10003c0a:	4318      	orrs	r0, r3
10003c0c:	f1bc 0f00 	cmp.w	ip, #0
10003c10:	bfa8      	it	ge
10003c12:	4770      	bxge	lr
10003c14:	4240      	negs	r0, r0
10003c16:	eb61 0141 	sbc.w	r1, r1, r1, lsl #1
10003c1a:	4770      	bx	lr
10003c1c:	4252      	negs	r2, r2
10003c1e:	f382 0205 	usat	r2, #5, r2
10003c22:	fa31 f002 	lsrs.w	r0, r1, r2
10003c26:	2100      	movs	r1, #0
10003c28:	f1bc 0f00 	cmp.w	ip, #0
10003c2c:	bfa8      	it	ge
10003c2e:	4770      	bxge	lr
10003c30:	4240      	negs	r0, r0
10003c32:	eb61 0141 	sbc.w	r1, r1, r1, lsl #1
10003c36:	4770      	bx	lr
10003c38:	d002      	beq.n	10003c40 <double2fix64_z+0x86>
10003c3a:	2000      	movs	r0, #0
10003c3c:	2100      	movs	r1, #0
10003c3e:	4770      	bx	lr
10003c40:	ea50 3101 	orrs.w	r1, r0, r1, lsl #12
10003c44:	bf18      	it	ne
10003c46:	f04f 0c00 	movne.w	ip, #0
10003c4a:	f06f 4100 	mvn.w	r1, #2147483648	@ 0x80000000
10003c4e:	eb01 71dc 	add.w	r1, r1, ip, lsr #31
10003c52:	ea6f 70ec 	mvn.w	r0, ip, asr #31
10003c56:	4770      	bx	lr

10003c58 <__wrap_malloc>:
10003c58:	b510      	push	{r4, lr}
10003c5a:	4604      	mov	r4, r0
10003c5c:	f002 f91e 	bl	10005e9c <malloc>
10003c60:	b128      	cbz	r0, 10003c6e <__wrap_malloc+0x16>
10003c62:	4603      	mov	r3, r0
10003c64:	4a03      	ldr	r2, [pc, #12]	@ (10003c74 <__wrap_malloc+0x1c>)
10003c66:	4423      	add	r3, r4
10003c68:	4293      	cmp	r3, r2
10003c6a:	d800      	bhi.n	10003c6e <__wrap_malloc+0x16>
10003c6c:	bd10      	pop	{r4, pc}
10003c6e:	4802      	ldr	r0, [pc, #8]	@ (10003c78 <__wrap_malloc+0x20>)
10003c70:	f7fe fbf8 	bl	10002464 <panic>
10003c74:	20080000 	.word	0x20080000
10003c78:	1000c554 	.word	0x1000c554

10003c7c <__wrap_realloc>:
10003c7c:	b510      	push	{r4, lr}
10003c7e:	460c      	mov	r4, r1
10003c80:	f002 fbd2 	bl	10006428 <realloc>
10003c84:	b128      	cbz	r0, 10003c92 <__wrap_realloc+0x16>
10003c86:	4603      	mov	r3, r0
10003c88:	4a03      	ldr	r2, [pc, #12]	@ (10003c98 <__wrap_realloc+0x1c>)
10003c8a:	4423      	add	r3, r4
10003c8c:	4293      	cmp	r3, r2
10003c8e:	d800      	bhi.n	10003c92 <__wrap_realloc+0x16>
10003c90:	bd10      	pop	{r4, pc}
10003c92:	4802      	ldr	r0, [pc, #8]	@ (10003c9c <__wrap_realloc+0x20>)
10003c94:	f7fe fbe6 	bl	10002464 <panic>
10003c98:	20080000 	.word	0x20080000
10003c9c:	1000c554 	.word	0x1000c554

10003ca0 <__wrap_free>:
10003ca0:	f002 b904 	b.w	10005eac <free>

10003ca4 <_out_buffer>:
10003ca4:	429a      	cmp	r2, r3
10003ca6:	bf38      	it	cc
10003ca8:	5488      	strbcc	r0, [r1, r2]
10003caa:	4770      	bx	lr

10003cac <_out_null>:
10003cac:	4770      	bx	lr
10003cae:	bf00      	nop

10003cb0 <_out_rev>:
10003cb0:	e92d 4ff0 	stmdb	sp!, {r4, r5, r6, r7, r8, r9, sl, fp, lr}
10003cb4:	b083      	sub	sp, #12
10003cb6:	4699      	mov	r9, r3
10003cb8:	e9dd ab0d 	ldrd	sl, fp, [sp, #52]	@ 0x34
10003cbc:	9b0f      	ldr	r3, [sp, #60]	@ 0x3c
10003cbe:	4688      	mov	r8, r1
10003cc0:	4611      	mov	r1, r2
10003cc2:	079a      	lsls	r2, r3, #30
10003cc4:	4607      	mov	r7, r0
10003cc6:	d116      	bne.n	10003cf6 <_out_rev+0x46>
10003cc8:	45da      	cmp	sl, fp
10003cca:	d23a      	bcs.n	10003d42 <_out_rev+0x92>
10003ccc:	460c      	mov	r4, r1
10003cce:	460d      	mov	r5, r1
10003cd0:	ebab 060a 	sub.w	r6, fp, sl
10003cd4:	440e      	add	r6, r1
10003cd6:	4622      	mov	r2, r4
10003cd8:	464b      	mov	r3, r9
10003cda:	4641      	mov	r1, r8
10003cdc:	2020      	movs	r0, #32
10003cde:	3401      	adds	r4, #1
10003ce0:	47b8      	blx	r7
10003ce2:	42b4      	cmp	r4, r6
10003ce4:	d1f7      	bne.n	10003cd6 <_out_rev+0x26>
10003ce6:	4629      	mov	r1, r5
10003ce8:	f1ba 0f00 	cmp.w	sl, #0
10003cec:	d108      	bne.n	10003d00 <_out_rev+0x50>
10003cee:	4620      	mov	r0, r4
10003cf0:	b003      	add	sp, #12
10003cf2:	e8bd 8ff0 	ldmia.w	sp!, {r4, r5, r6, r7, r8, r9, sl, fp, pc}
10003cf6:	460c      	mov	r4, r1
10003cf8:	f1ba 0f00 	cmp.w	sl, #0
10003cfc:	d010      	beq.n	10003d20 <_out_rev+0x70>
10003cfe:	460e      	mov	r6, r1
10003d00:	4655      	mov	r5, sl
10003d02:	9b0c      	ldr	r3, [sp, #48]	@ 0x30
10003d04:	442e      	add	r6, r5
10003d06:	449a      	add	sl, r3
10003d08:	9101      	str	r1, [sp, #4]
10003d0a:	1b72      	subs	r2, r6, r5
10003d0c:	464b      	mov	r3, r9
10003d0e:	3d01      	subs	r5, #1
10003d10:	4641      	mov	r1, r8
10003d12:	f81a 0d01 	ldrb.w	r0, [sl, #-1]!
10003d16:	4634      	mov	r4, r6
10003d18:	47b8      	blx	r7
10003d1a:	2d00      	cmp	r5, #0
10003d1c:	d1f5      	bne.n	10003d0a <_out_rev+0x5a>
10003d1e:	9901      	ldr	r1, [sp, #4]
10003d20:	9b0f      	ldr	r3, [sp, #60]	@ 0x3c
10003d22:	079b      	lsls	r3, r3, #30
10003d24:	d5e3      	bpl.n	10003cee <_out_rev+0x3e>
10003d26:	1a65      	subs	r5, r4, r1
10003d28:	45ab      	cmp	fp, r5
10003d2a:	d9e0      	bls.n	10003cee <_out_rev+0x3e>
10003d2c:	4622      	mov	r2, r4
10003d2e:	464b      	mov	r3, r9
10003d30:	4641      	mov	r1, r8
10003d32:	2020      	movs	r0, #32
10003d34:	3501      	adds	r5, #1
10003d36:	47b8      	blx	r7
10003d38:	455d      	cmp	r5, fp
10003d3a:	f104 0401 	add.w	r4, r4, #1
10003d3e:	d3f5      	bcc.n	10003d2c <_out_rev+0x7c>
10003d40:	e7d5      	b.n	10003cee <_out_rev+0x3e>
10003d42:	f1ba 0f00 	cmp.w	sl, #0
10003d46:	d1da      	bne.n	10003cfe <_out_rev+0x4e>
10003d48:	460c      	mov	r4, r1
10003d4a:	e7d0      	b.n	10003cee <_out_rev+0x3e>

10003d4c <_ntoa_format>:
10003d4c:	e92d 4ff0 	stmdb	sp!, {r4, r5, r6, r7, r8, r9, sl, fp, lr}
10003d50:	9f0f      	ldr	r7, [sp, #60]	@ 0x3c
10003d52:	f8dd e024 	ldr.w	lr, [sp, #36]	@ 0x24
10003d56:	f017 0f02 	tst.w	r7, #2
10003d5a:	9c0a      	ldr	r4, [sp, #40]	@ 0x28
10003d5c:	f89d 902c 	ldrb.w	r9, [sp, #44]	@ 0x2c
10003d60:	9d0e      	ldr	r5, [sp, #56]	@ 0x38
10003d62:	e9dd 860c 	ldrd	r8, r6, [sp, #48]	@ 0x30
10003d66:	d129      	bne.n	10003dbc <_ntoa_format+0x70>
10003d68:	2d00      	cmp	r5, #0
10003d6a:	d16f      	bne.n	10003e4c <_ntoa_format+0x100>
10003d6c:	42b4      	cmp	r4, r6
10003d6e:	d225      	bcs.n	10003dbc <_ntoa_format+0x70>
10003d70:	2c20      	cmp	r4, #32
10003d72:	f007 0b01 	and.w	fp, r7, #1
10003d76:	f000 8112 	beq.w	10003f9e <_ntoa_format+0x252>
10003d7a:	f104 3cff 	add.w	ip, r4, #4294967295
10003d7e:	f04f 0a30 	mov.w	sl, #48	@ 0x30
10003d82:	44f4      	add	ip, lr
10003d84:	e001      	b.n	10003d8a <_ntoa_format+0x3e>
10003d86:	2c20      	cmp	r4, #32
10003d88:	d07a      	beq.n	10003e80 <_ntoa_format+0x134>
10003d8a:	3401      	adds	r4, #1
10003d8c:	42a6      	cmp	r6, r4
10003d8e:	f80c af01 	strb.w	sl, [ip, #1]!
10003d92:	d8f8      	bhi.n	10003d86 <_ntoa_format+0x3a>
10003d94:	f1bb 0f00 	cmp.w	fp, #0
10003d98:	d010      	beq.n	10003dbc <_ntoa_format+0x70>
10003d9a:	42ac      	cmp	r4, r5
10003d9c:	d20e      	bcs.n	10003dbc <_ntoa_format+0x70>
10003d9e:	2c20      	cmp	r4, #32
10003da0:	d074      	beq.n	10003e8c <_ntoa_format+0x140>
10003da2:	f104 3cff 	add.w	ip, r4, #4294967295
10003da6:	f04f 0a30 	mov.w	sl, #48	@ 0x30
10003daa:	44f4      	add	ip, lr
10003dac:	e001      	b.n	10003db2 <_ntoa_format+0x66>
10003dae:	2c20      	cmp	r4, #32
10003db0:	d029      	beq.n	10003e06 <_ntoa_format+0xba>
10003db2:	3401      	adds	r4, #1
10003db4:	42ac      	cmp	r4, r5
10003db6:	f80c af01 	strb.w	sl, [ip, #1]!
10003dba:	d1f8      	bne.n	10003dae <_ntoa_format+0x62>
10003dbc:	f017 0f10 	tst.w	r7, #16
10003dc0:	d03a      	beq.n	10003e38 <_ntoa_format+0xec>
10003dc2:	f417 6f80 	tst.w	r7, #1024	@ 0x400
10003dc6:	d128      	bne.n	10003e1a <_ntoa_format+0xce>
10003dc8:	bb1c      	cbnz	r4, 10003e12 <_ntoa_format+0xc6>
10003dca:	f1b8 0f10 	cmp.w	r8, #16
10003dce:	f000 80ca 	beq.w	10003f66 <_ntoa_format+0x21a>
10003dd2:	f1b8 0f02 	cmp.w	r8, #2
10003dd6:	f000 80d4 	beq.w	10003f82 <_ntoa_format+0x236>
10003dda:	2430      	movs	r4, #48	@ 0x30
10003ddc:	f88e 4000 	strb.w	r4, [lr]
10003de0:	2401      	movs	r4, #1
10003de2:	f1b9 0f00 	cmp.w	r9, #0
10003de6:	d167      	bne.n	10003eb8 <_ntoa_format+0x16c>
10003de8:	077e      	lsls	r6, r7, #29
10003dea:	f140 80aa 	bpl.w	10003f42 <_ntoa_format+0x1f6>
10003dee:	262b      	movs	r6, #43	@ 0x2b
10003df0:	f80e 6004 	strb.w	r6, [lr, r4]
10003df4:	3401      	adds	r4, #1
10003df6:	e9cd 570b 	strd	r5, r7, [sp, #44]	@ 0x2c
10003dfa:	e9cd e409 	strd	lr, r4, [sp, #36]	@ 0x24
10003dfe:	e8bd 4ff0 	ldmia.w	sp!, {r4, r5, r6, r7, r8, r9, sl, fp, lr}
10003e02:	f7ff bf55 	b.w	10003cb0 <_out_rev>
10003e06:	06fc      	lsls	r4, r7, #27
10003e08:	f140 8089 	bpl.w	10003f1e <_ntoa_format+0x1d2>
10003e0c:	057c      	lsls	r4, r7, #21
10003e0e:	d435      	bmi.n	10003e7c <_ntoa_format+0x130>
10003e10:	2420      	movs	r4, #32
10003e12:	42a6      	cmp	r6, r4
10003e14:	d06a      	beq.n	10003eec <_ntoa_format+0x1a0>
10003e16:	42ac      	cmp	r4, r5
10003e18:	d068      	beq.n	10003eec <_ntoa_format+0x1a0>
10003e1a:	f1b8 0f10 	cmp.w	r8, #16
10003e1e:	f000 8087 	beq.w	10003f30 <_ntoa_format+0x1e4>
10003e22:	f1b8 0f02 	cmp.w	r8, #2
10003e26:	d05a      	beq.n	10003ede <_ntoa_format+0x192>
10003e28:	2c20      	cmp	r4, #32
10003e2a:	d0e4      	beq.n	10003df6 <_ntoa_format+0xaa>
10003e2c:	4626      	mov	r6, r4
10003e2e:	3401      	adds	r4, #1
10003e30:	f04f 0c30 	mov.w	ip, #48	@ 0x30
10003e34:	f80e c006 	strb.w	ip, [lr, r6]
10003e38:	2c20      	cmp	r4, #32
10003e3a:	d1d2      	bne.n	10003de2 <_ntoa_format+0x96>
10003e3c:	e9cd 570b 	strd	r5, r7, [sp, #44]	@ 0x2c
10003e40:	e9cd e409 	strd	lr, r4, [sp, #36]	@ 0x24
10003e44:	e8bd 4ff0 	ldmia.w	sp!, {r4, r5, r6, r7, r8, r9, sl, fp, lr}
10003e48:	f7ff bf32 	b.w	10003cb0 <_out_rev>
10003e4c:	f017 0b01 	ands.w	fp, r7, #1
10003e50:	d03e      	beq.n	10003ed0 <_ntoa_format+0x184>
10003e52:	f1b9 0f00 	cmp.w	r9, #0
10003e56:	d147      	bne.n	10003ee8 <_ntoa_format+0x19c>
10003e58:	f017 0f0c 	tst.w	r7, #12
10003e5c:	d144      	bne.n	10003ee8 <_ntoa_format+0x19c>
10003e5e:	42b4      	cmp	r4, r6
10003e60:	d29b      	bcs.n	10003d9a <_ntoa_format+0x4e>
10003e62:	2c20      	cmp	r4, #32
10003e64:	d189      	bne.n	10003d7a <_ntoa_format+0x2e>
10003e66:	2d20      	cmp	r5, #32
10003e68:	d810      	bhi.n	10003e8c <_ntoa_format+0x140>
10003e6a:	06fc      	lsls	r4, r7, #27
10003e6c:	d557      	bpl.n	10003f1e <_ntoa_format+0x1d2>
10003e6e:	057c      	lsls	r4, r7, #21
10003e70:	d455      	bmi.n	10003f1e <_ntoa_format+0x1d2>
10003e72:	2e20      	cmp	r6, #32
10003e74:	f000 80b9 	beq.w	10003fea <_ntoa_format+0x29e>
10003e78:	2d20      	cmp	r5, #32
10003e7a:	d010      	beq.n	10003e9e <_ntoa_format+0x152>
10003e7c:	2420      	movs	r4, #32
10003e7e:	e7cc      	b.n	10003e1a <_ntoa_format+0xce>
10003e80:	f1bb 0f00 	cmp.w	fp, #0
10003e84:	f000 80a5 	beq.w	10003fd2 <_ntoa_format+0x286>
10003e88:	2d20      	cmp	r5, #32
10003e8a:	d9bc      	bls.n	10003e06 <_ntoa_format+0xba>
10003e8c:	06fc      	lsls	r4, r7, #27
10003e8e:	d546      	bpl.n	10003f1e <_ntoa_format+0x1d2>
10003e90:	057c      	lsls	r4, r7, #21
10003e92:	d444      	bmi.n	10003f1e <_ntoa_format+0x1d2>
10003e94:	2e20      	cmp	r6, #32
10003e96:	f000 80a8 	beq.w	10003fea <_ntoa_format+0x29e>
10003e9a:	2d20      	cmp	r5, #32
10003e9c:	d13f      	bne.n	10003f1e <_ntoa_format+0x1d2>
10003e9e:	462c      	mov	r4, r5
10003ea0:	261f      	movs	r6, #31
10003ea2:	f1b8 0f10 	cmp.w	r8, #16
10003ea6:	d07f      	beq.n	10003fa8 <_ntoa_format+0x25c>
10003ea8:	f1b8 0f02 	cmp.w	r8, #2
10003eac:	d1c0      	bne.n	10003e30 <_ntoa_format+0xe4>
10003eae:	f04f 0c62 	mov.w	ip, #98	@ 0x62
10003eb2:	f80e c006 	strb.w	ip, [lr, r6]
10003eb6:	e7b7      	b.n	10003e28 <_ntoa_format+0xdc>
10003eb8:	262d      	movs	r6, #45	@ 0x2d
10003eba:	f80e 6004 	strb.w	r6, [lr, r4]
10003ebe:	3401      	adds	r4, #1
10003ec0:	e9cd 570b 	strd	r5, r7, [sp, #44]	@ 0x2c
10003ec4:	e9cd e409 	strd	lr, r4, [sp, #36]	@ 0x24
10003ec8:	e8bd 4ff0 	ldmia.w	sp!, {r4, r5, r6, r7, r8, r9, sl, fp, lr}
10003ecc:	f7ff bef0 	b.w	10003cb0 <_out_rev>
10003ed0:	42b4      	cmp	r4, r6
10003ed2:	f4bf af73 	bcs.w	10003dbc <_ntoa_format+0x70>
10003ed6:	2c20      	cmp	r4, #32
10003ed8:	f47f af4f 	bne.w	10003d7a <_ntoa_format+0x2e>
10003edc:	e7d6      	b.n	10003e8c <_ntoa_format+0x140>
10003ede:	2c20      	cmp	r4, #32
10003ee0:	d089      	beq.n	10003df6 <_ntoa_format+0xaa>
10003ee2:	4626      	mov	r6, r4
10003ee4:	3401      	adds	r4, #1
10003ee6:	e7e2      	b.n	10003eae <_ntoa_format+0x162>
10003ee8:	3d01      	subs	r5, #1
10003eea:	e7b8      	b.n	10003e5e <_ntoa_format+0x112>
10003eec:	1e66      	subs	r6, r4, #1
10003eee:	d1d8      	bne.n	10003ea2 <_ntoa_format+0x156>
10003ef0:	f1b8 0f10 	cmp.w	r8, #16
10003ef4:	d064      	beq.n	10003fc0 <_ntoa_format+0x274>
10003ef6:	f1b8 0f02 	cmp.w	r8, #2
10003efa:	f47f af6e 	bne.w	10003dda <_ntoa_format+0x8e>
10003efe:	2662      	movs	r6, #98	@ 0x62
10003f00:	f88e 6000 	strb.w	r6, [lr]
10003f04:	2630      	movs	r6, #48	@ 0x30
10003f06:	4644      	mov	r4, r8
10003f08:	f88e 6001 	strb.w	r6, [lr, #1]
10003f0c:	f1b9 0f00 	cmp.w	r9, #0
10003f10:	f43f af6a 	beq.w	10003de8 <_ntoa_format+0x9c>
10003f14:	e7d0      	b.n	10003eb8 <_ntoa_format+0x16c>
10003f16:	f1b8 0f10 	cmp.w	r8, #16
10003f1a:	f47f af6c 	bne.w	10003df6 <_ntoa_format+0xaa>
10003f1e:	2420      	movs	r4, #32
10003f20:	e9cd 570b 	strd	r5, r7, [sp, #44]	@ 0x2c
10003f24:	e9cd e409 	strd	lr, r4, [sp, #36]	@ 0x24
10003f28:	e8bd 4ff0 	ldmia.w	sp!, {r4, r5, r6, r7, r8, r9, sl, fp, lr}
10003f2c:	f7ff bec0 	b.w	10003cb0 <_out_rev>
10003f30:	06be      	lsls	r6, r7, #26
10003f32:	d40e      	bmi.n	10003f52 <_ntoa_format+0x206>
10003f34:	2c20      	cmp	r4, #32
10003f36:	d0f2      	beq.n	10003f1e <_ntoa_format+0x1d2>
10003f38:	2678      	movs	r6, #120	@ 0x78
10003f3a:	f80e 6004 	strb.w	r6, [lr, r4]
10003f3e:	3401      	adds	r4, #1
10003f40:	e772      	b.n	10003e28 <_ntoa_format+0xdc>
10003f42:	073e      	lsls	r6, r7, #28
10003f44:	f57f af57 	bpl.w	10003df6 <_ntoa_format+0xaa>
10003f48:	2620      	movs	r6, #32
10003f4a:	f80e 6004 	strb.w	r6, [lr, r4]
10003f4e:	3401      	adds	r4, #1
10003f50:	e751      	b.n	10003df6 <_ntoa_format+0xaa>
10003f52:	2c20      	cmp	r4, #32
10003f54:	d0e3      	beq.n	10003f1e <_ntoa_format+0x1d2>
10003f56:	f04f 0c58 	mov.w	ip, #88	@ 0x58
10003f5a:	eb0e 0604 	add.w	r6, lr, r4
10003f5e:	f886 c000 	strb.w	ip, [r6]
10003f62:	3401      	adds	r4, #1
10003f64:	e760      	b.n	10003e28 <_ntoa_format+0xdc>
10003f66:	06be      	lsls	r6, r7, #26
10003f68:	d517      	bpl.n	10003f9a <_ntoa_format+0x24e>
10003f6a:	2458      	movs	r4, #88	@ 0x58
10003f6c:	f88e 4000 	strb.w	r4, [lr]
10003f70:	2430      	movs	r4, #48	@ 0x30
10003f72:	f88e 4001 	strb.w	r4, [lr, #1]
10003f76:	2402      	movs	r4, #2
10003f78:	f1b9 0f00 	cmp.w	r9, #0
10003f7c:	f43f af34 	beq.w	10003de8 <_ntoa_format+0x9c>
10003f80:	e79a      	b.n	10003eb8 <_ntoa_format+0x16c>
10003f82:	2462      	movs	r4, #98	@ 0x62
10003f84:	f88e 4000 	strb.w	r4, [lr]
10003f88:	2430      	movs	r4, #48	@ 0x30
10003f8a:	f88e 4001 	strb.w	r4, [lr, #1]
10003f8e:	2402      	movs	r4, #2
10003f90:	f1b9 0f00 	cmp.w	r9, #0
10003f94:	f43f af28 	beq.w	10003de8 <_ntoa_format+0x9c>
10003f98:	e78e      	b.n	10003eb8 <_ntoa_format+0x16c>
10003f9a:	2478      	movs	r4, #120	@ 0x78
10003f9c:	e7f2      	b.n	10003f84 <_ntoa_format+0x238>
10003f9e:	f1bb 0f00 	cmp.w	fp, #0
10003fa2:	f47f af62 	bne.w	10003e6a <_ntoa_format+0x11e>
10003fa6:	e771      	b.n	10003e8c <_ntoa_format+0x140>
10003fa8:	f017 0f20 	tst.w	r7, #32
10003fac:	bf0c      	ite	eq
10003fae:	f04f 0c78 	moveq.w	ip, #120	@ 0x78
10003fb2:	f04f 0c58 	movne.w	ip, #88	@ 0x58
10003fb6:	1ea6      	subs	r6, r4, #2
10003fb8:	f80e c006 	strb.w	ip, [lr, r6]
10003fbc:	3c01      	subs	r4, #1
10003fbe:	e735      	b.n	10003e2c <_ntoa_format+0xe0>
10003fc0:	06bc      	lsls	r4, r7, #26
10003fc2:	d5ea      	bpl.n	10003f9a <_ntoa_format+0x24e>
10003fc4:	2458      	movs	r4, #88	@ 0x58
10003fc6:	f88e 4000 	strb.w	r4, [lr]
10003fca:	2430      	movs	r4, #48	@ 0x30
10003fcc:	f88e 4001 	strb.w	r4, [lr, #1]
10003fd0:	e7dd      	b.n	10003f8e <_ntoa_format+0x242>
10003fd2:	f017 0f10 	tst.w	r7, #16
10003fd6:	f43f af0e 	beq.w	10003df6 <_ntoa_format+0xaa>
10003fda:	f417 6f80 	tst.w	r7, #1024	@ 0x400
10003fde:	d19a      	bne.n	10003f16 <_ntoa_format+0x1ca>
10003fe0:	2e20      	cmp	r6, #32
10003fe2:	f47f af18 	bne.w	10003e16 <_ntoa_format+0xca>
10003fe6:	261f      	movs	r6, #31
10003fe8:	e75b      	b.n	10003ea2 <_ntoa_format+0x156>
10003fea:	4634      	mov	r4, r6
10003fec:	261f      	movs	r6, #31
10003fee:	e758      	b.n	10003ea2 <_ntoa_format+0x156>

10003ff0 <_out_char>:
10003ff0:	b900      	cbnz	r0, 10003ff4 <_out_char+0x4>
10003ff2:	4770      	bx	lr
10003ff4:	f001 bba8 	b.w	10005748 <__wrap_putchar>

10003ff8 <_out_fct>:
10003ff8:	b110      	cbz	r0, 10004000 <_out_fct+0x8>
10003ffa:	e9d1 3100 	ldrd	r3, r1, [r1]
10003ffe:	4718      	bx	r3
10004000:	4770      	bx	lr
10004002:	bf00      	nop
10004004:	0000      	movs	r0, r0
	...

10004008 <_etoa>:
10004008:	e92d 4ff0 	stmdb	sp!, {r4, r5, r6, r7, r8, r9, sl, fp, lr}
1000400c:	b09f      	sub	sp, #124	@ 0x7c
1000400e:	ed9d 7b28 	vldr	d7, [sp, #160]	@ 0xa0
10004012:	e9dd a52a 	ldrd	sl, r5, [sp, #168]	@ 0xa8
10004016:	ec58 7b17 	vmov	r7, r8, d7
1000401a:	4683      	mov	fp, r0
1000401c:	461e      	mov	r6, r3
1000401e:	910d      	str	r1, [sp, #52]	@ 0x34
10004020:	9210      	str	r2, [sp, #64]	@ 0x40
10004022:	4643      	mov	r3, r8
10004024:	463a      	mov	r2, r7
10004026:	4638      	mov	r0, r7
10004028:	4641      	mov	r1, r8
1000402a:	ed8d 7b08 	vstr	d7, [sp, #32]
1000402e:	9c2c      	ldr	r4, [sp, #176]	@ 0xb0
10004030:	f7ff fc4c 	bl	100038cc <__wrap___aeabi_dcmpun>
10004034:	2800      	cmp	r0, #0
10004036:	f040 80d8 	bne.w	100041ea <_etoa+0x1e2>
1000403a:	4638      	mov	r0, r7
1000403c:	4641      	mov	r1, r8
1000403e:	f04f 32ff 	mov.w	r2, #4294967295
10004042:	4b75      	ldr	r3, [pc, #468]	@ (10004218 <_etoa+0x210>)
10004044:	f7ff fca2 	bl	1000398c <__wrap___aeabi_dcmpgt>
10004048:	2800      	cmp	r0, #0
1000404a:	f040 80ce 	bne.w	100041ea <_etoa+0x1e2>
1000404e:	4638      	mov	r0, r7
10004050:	4641      	mov	r1, r8
10004052:	f04f 32ff 	mov.w	r2, #4294967295
10004056:	f46f 1380 	mvn.w	r3, #1048576	@ 0x100000
1000405a:	f7ff fc5b 	bl	10003914 <__wrap___aeabi_dcmplt>
1000405e:	2800      	cmp	r0, #0
10004060:	f040 80c3 	bne.w	100041ea <_etoa+0x1e2>
10004064:	e9dd 7808 	ldrd	r7, r8, [sp, #32]
10004068:	2200      	movs	r2, #0
1000406a:	4638      	mov	r0, r7
1000406c:	4641      	mov	r1, r8
1000406e:	2300      	movs	r3, #0
10004070:	f7ff fc50 	bl	10003914 <__wrap___aeabi_dcmplt>
10004074:	2800      	cmp	r0, #0
10004076:	f040 81c0 	bne.w	100043fa <_etoa+0x3f2>
1000407a:	e9cd 780a 	strd	r7, r8, [sp, #40]	@ 0x28
1000407e:	e9dd 230a 	ldrd	r2, r3, [sp, #40]	@ 0x28
10004082:	4690      	mov	r8, r2
10004084:	461f      	mov	r7, r3
10004086:	f414 6380 	ands.w	r3, r4, #1024	@ 0x400
1000408a:	bf08      	it	eq
1000408c:	f04f 0a06 	moveq.w	sl, #6
10004090:	9313      	str	r3, [sp, #76]	@ 0x4c
10004092:	f404 6200 	and.w	r2, r4, #2048	@ 0x800
10004096:	ea58 0307 	orrs.w	r3, r8, r7
1000409a:	9211      	str	r2, [sp, #68]	@ 0x44
1000409c:	f040 80c0 	bne.w	10004220 <_etoa+0x218>
100040a0:	2a00      	cmp	r2, #0
100040a2:	f000 81a2 	beq.w	100043ea <_etoa+0x3e2>
100040a6:	ed9f 7b5a 	vldr	d7, [pc, #360]	@ 10004210 <_etoa+0x208>
100040aa:	2700      	movs	r7, #0
100040ac:	ed8d 7b0e 	vstr	d7, [sp, #56]	@ 0x38
100040b0:	f04f 0900 	mov.w	r9, #0
100040b4:	45ba      	cmp	sl, r7
100040b6:	bfcc      	ite	gt
100040b8:	ebaa 0a07 	subgt.w	sl, sl, r7
100040bc:	f04f 0a00 	movle.w	sl, #0
100040c0:	464f      	mov	r7, r9
100040c2:	bfc8      	it	gt
100040c4:	f10a 3aff 	addgt.w	sl, sl, #4294967295
100040c8:	f444 6480 	orr.w	r4, r4, #1024	@ 0x400
100040cc:	454d      	cmp	r5, r9
100040ce:	bf94      	ite	ls
100040d0:	f04f 0800 	movls.w	r8, #0
100040d4:	eba5 0809 	subhi.w	r8, r5, r9
100040d8:	f014 0302 	ands.w	r3, r4, #2
100040dc:	9311      	str	r3, [sp, #68]	@ 0x44
100040de:	d004      	beq.n	100040ea <_etoa+0xe2>
100040e0:	f1b9 0f00 	cmp.w	r9, #0
100040e4:	bf18      	it	ne
100040e6:	f04f 0800 	movne.w	r8, #0
100040ea:	b13f      	cbz	r7, 100040fc <_etoa+0xf4>
100040ec:	e9dd 010a 	ldrd	r0, r1, [sp, #40]	@ 0x28
100040f0:	e9dd 230e 	ldrd	r2, r3, [sp, #56]	@ 0x38
100040f4:	f7ff fb46 	bl	10003784 <__wrap___aeabi_ddiv>
100040f8:	e9cd 010a 	strd	r0, r1, [sp, #40]	@ 0x28
100040fc:	e9dd 0108 	ldrd	r0, r1, [sp, #32]
10004100:	2200      	movs	r2, #0
10004102:	2300      	movs	r3, #0
10004104:	f7ff fc06 	bl	10003914 <__wrap___aeabi_dcmplt>
10004108:	b130      	cbz	r0, 10004118 <_etoa+0x110>
1000410a:	e9dd 010a 	ldrd	r0, r1, [sp, #40]	@ 0x28
1000410e:	4602      	mov	r2, r0
10004110:	f101 4300 	add.w	r3, r1, #2147483648	@ 0x80000000
10004114:	e9cd 230a 	strd	r2, r3, [sp, #40]	@ 0x28
10004118:	ed9d 7b0a 	vldr	d7, [sp, #40]	@ 0x28
1000411c:	e9cd a802 	strd	sl, r8, [sp, #8]
10004120:	f8dd a034 	ldr.w	sl, [sp, #52]	@ 0x34
10004124:	f424 6300 	bic.w	r3, r4, #2048	@ 0x800
10004128:	9304      	str	r3, [sp, #16]
1000412a:	ed8d 7b00 	vstr	d7, [sp]
1000412e:	4633      	mov	r3, r6
10004130:	4651      	mov	r1, sl
10004132:	4658      	mov	r0, fp
10004134:	9a10      	ldr	r2, [sp, #64]	@ 0x40
10004136:	f000 f997 	bl	10004468 <_ftoa>
1000413a:	4680      	mov	r8, r0
1000413c:	f1b9 0f00 	cmp.w	r9, #0
10004140:	d04f      	beq.n	100041e2 <_etoa+0x1da>
10004142:	f014 0f20 	tst.w	r4, #32
10004146:	4602      	mov	r2, r0
10004148:	f100 0401 	add.w	r4, r0, #1
1000414c:	4633      	mov	r3, r6
1000414e:	bf0c      	ite	eq
10004150:	2065      	moveq	r0, #101	@ 0x65
10004152:	2045      	movne	r0, #69	@ 0x45
10004154:	4651      	mov	r1, sl
10004156:	47d8      	blx	fp
10004158:	f109 30ff 	add.w	r0, r9, #4294967295
1000415c:	ea87 7ce7 	eor.w	ip, r7, r7, asr #31
10004160:	f10d 0958 	add.w	r9, sp, #88	@ 0x58
10004164:	2200      	movs	r2, #0
10004166:	464b      	mov	r3, r9
10004168:	f8df 80b0 	ldr.w	r8, [pc, #176]	@ 1000421c <_etoa+0x214>
1000416c:	ebac 7ce7 	sub.w	ip, ip, r7, asr #31
10004170:	ea4f 7ed7 	mov.w	lr, r7, lsr #31
10004174:	e001      	b.n	1000417a <_etoa+0x172>
10004176:	2a20      	cmp	r2, #32
10004178:	d010      	beq.n	1000419c <_etoa+0x194>
1000417a:	46e2      	mov	sl, ip
1000417c:	fba8 710c 	umull	r7, r1, r8, ip
10004180:	08c9      	lsrs	r1, r1, #3
10004182:	eb01 0781 	add.w	r7, r1, r1, lsl #2
10004186:	ebac 0747 	sub.w	r7, ip, r7, lsl #1
1000418a:	3730      	adds	r7, #48	@ 0x30
1000418c:	f1ba 0f09 	cmp.w	sl, #9
10004190:	468c      	mov	ip, r1
10004192:	f102 0201 	add.w	r2, r2, #1
10004196:	f803 7b01 	strb.w	r7, [r3], #1
1000419a:	d8ec      	bhi.n	10004176 <_etoa+0x16e>
1000419c:	2305      	movs	r3, #5
1000419e:	9005      	str	r0, [sp, #20]
100041a0:	9306      	str	r3, [sp, #24]
100041a2:	2000      	movs	r0, #0
100041a4:	230a      	movs	r3, #10
100041a6:	9f0d      	ldr	r7, [sp, #52]	@ 0x34
100041a8:	e9cd 3003 	strd	r3, r0, [sp, #12]
100041ac:	e9cd 2e01 	strd	r2, lr, [sp, #4]
100041b0:	4633      	mov	r3, r6
100041b2:	4622      	mov	r2, r4
100041b4:	4639      	mov	r1, r7
100041b6:	4658      	mov	r0, fp
100041b8:	f8cd 9000 	str.w	r9, [sp]
100041bc:	f7ff fdc6 	bl	10003d4c <_ntoa_format>
100041c0:	9b11      	ldr	r3, [sp, #68]	@ 0x44
100041c2:	4680      	mov	r8, r0
100041c4:	b16b      	cbz	r3, 100041e2 <_etoa+0x1da>
100041c6:	9b10      	ldr	r3, [sp, #64]	@ 0x40
100041c8:	1ac4      	subs	r4, r0, r3
100041ca:	42a5      	cmp	r5, r4
100041cc:	d909      	bls.n	100041e2 <_etoa+0x1da>
100041ce:	4642      	mov	r2, r8
100041d0:	4633      	mov	r3, r6
100041d2:	4639      	mov	r1, r7
100041d4:	2020      	movs	r0, #32
100041d6:	3401      	adds	r4, #1
100041d8:	47d8      	blx	fp
100041da:	42a5      	cmp	r5, r4
100041dc:	f108 0801 	add.w	r8, r8, #1
100041e0:	d8f5      	bhi.n	100041ce <_etoa+0x1c6>
100041e2:	4640      	mov	r0, r8
100041e4:	b01f      	add	sp, #124	@ 0x7c
100041e6:	e8bd 8ff0 	ldmia.w	sp!, {r4, r5, r6, r7, r8, r9, sl, fp, pc}
100041ea:	ed9d 7b08 	vldr	d7, [sp, #32]
100041ee:	4633      	mov	r3, r6
100041f0:	4658      	mov	r0, fp
100041f2:	9a10      	ldr	r2, [sp, #64]	@ 0x40
100041f4:	990d      	ldr	r1, [sp, #52]	@ 0x34
100041f6:	ed8d 7b28 	vstr	d7, [sp, #160]	@ 0xa0
100041fa:	e9cd 542b 	strd	r5, r4, [sp, #172]	@ 0xac
100041fe:	f8cd a0a8 	str.w	sl, [sp, #168]	@ 0xa8
10004202:	b01f      	add	sp, #124	@ 0x7c
10004204:	e8bd 4ff0 	ldmia.w	sp!, {r4, r5, r6, r7, r8, r9, sl, fp, lr}
10004208:	f000 b92e 	b.w	10004468 <_ftoa>
1000420c:	f3af 8000 	nop.w
	...
10004218:	7fefffff 	.word	0x7fefffff
1000421c:	cccccccd 	.word	0xcccccccd
10004220:	f3c7 500a 	ubfx	r0, r7, #20, #11
10004224:	f2a0 30ff 	subw	r0, r0, #1023	@ 0x3ff
10004228:	f7ff fb08 	bl	1000383c <__wrap___aeabi_i2d>
1000422c:	a38a      	add	r3, pc, #552	@ (adr r3, 10004458 <_etoa+0x450>)
1000422e:	e9d3 2300 	ldrd	r2, r3, [r3]
10004232:	f7ff fa81 	bl	10003738 <__wrap___aeabi_dmul>
10004236:	a38a      	add	r3, pc, #552	@ (adr r3, 10004460 <_etoa+0x458>)
10004238:	e9d3 2300 	ldrd	r2, r3, [r3]
1000423c:	f7ff fa54 	bl	100036e8 <__wrap___aeabi_dadd>
10004240:	f3c7 0713 	ubfx	r7, r7, #0, #20
10004244:	e9cd 010e 	strd	r0, r1, [sp, #56]	@ 0x38
10004248:	f047 517f 	orr.w	r1, r7, #1069547520	@ 0x3fc00000
1000424c:	4640      	mov	r0, r8
1000424e:	2200      	movs	r2, #0
10004250:	4b7b      	ldr	r3, [pc, #492]	@ (10004440 <_etoa+0x438>)
10004252:	f441 1140 	orr.w	r1, r1, #3145728	@ 0x300000
10004256:	f7ff fa5b 	bl	10003710 <__wrap___aeabi_dsub>
1000425a:	a36b      	add	r3, pc, #428	@ (adr r3, 10004408 <_etoa+0x400>)
1000425c:	e9d3 2300 	ldrd	r2, r3, [r3]
10004260:	f7ff fa6a 	bl	10003738 <__wrap___aeabi_dmul>
10004264:	4602      	mov	r2, r0
10004266:	460b      	mov	r3, r1
10004268:	e9dd 010e 	ldrd	r0, r1, [sp, #56]	@ 0x38
1000426c:	f7ff fa3c 	bl	100036e8 <__wrap___aeabi_dadd>
10004270:	f7ff fb08 	bl	10003884 <__wrap___aeabi_d2iz>
10004274:	4607      	mov	r7, r0
10004276:	f7ff fae1 	bl	1000383c <__wrap___aeabi_i2d>
1000427a:	a365      	add	r3, pc, #404	@ (adr r3, 10004410 <_etoa+0x408>)
1000427c:	e9d3 2300 	ldrd	r2, r3, [r3]
10004280:	4680      	mov	r8, r0
10004282:	4689      	mov	r9, r1
10004284:	f7ff fa58 	bl	10003738 <__wrap___aeabi_dmul>
10004288:	2200      	movs	r2, #0
1000428a:	4b6e      	ldr	r3, [pc, #440]	@ (10004444 <_etoa+0x43c>)
1000428c:	f7ff fa2c 	bl	100036e8 <__wrap___aeabi_dadd>
10004290:	f7ff faf8 	bl	10003884 <__wrap___aeabi_d2iz>
10004294:	4603      	mov	r3, r0
10004296:	4649      	mov	r1, r9
10004298:	4640      	mov	r0, r8
1000429a:	9312      	str	r3, [sp, #72]	@ 0x48
1000429c:	a35e      	add	r3, pc, #376	@ (adr r3, 10004418 <_etoa+0x410>)
1000429e:	e9d3 2300 	ldrd	r2, r3, [r3]
100042a2:	f7ff fa49 	bl	10003738 <__wrap___aeabi_dmul>
100042a6:	4680      	mov	r8, r0
100042a8:	9812      	ldr	r0, [sp, #72]	@ 0x48
100042aa:	4689      	mov	r9, r1
100042ac:	f7ff fac6 	bl	1000383c <__wrap___aeabi_i2d>
100042b0:	a35b      	add	r3, pc, #364	@ (adr r3, 10004420 <_etoa+0x418>)
100042b2:	e9d3 2300 	ldrd	r2, r3, [r3]
100042b6:	f7ff fa3f 	bl	10003738 <__wrap___aeabi_dmul>
100042ba:	4602      	mov	r2, r0
100042bc:	460b      	mov	r3, r1
100042be:	4640      	mov	r0, r8
100042c0:	4649      	mov	r1, r9
100042c2:	f7ff fa25 	bl	10003710 <__wrap___aeabi_dsub>
100042c6:	4602      	mov	r2, r0
100042c8:	460b      	mov	r3, r1
100042ca:	4680      	mov	r8, r0
100042cc:	4689      	mov	r9, r1
100042ce:	f7ff fa33 	bl	10003738 <__wrap___aeabi_dmul>
100042d2:	4642      	mov	r2, r8
100042d4:	464b      	mov	r3, r9
100042d6:	e9cd 010e 	strd	r0, r1, [sp, #56]	@ 0x38
100042da:	4640      	mov	r0, r8
100042dc:	4649      	mov	r1, r9
100042de:	f7ff fa03 	bl	100036e8 <__wrap___aeabi_dadd>
100042e2:	2200      	movs	r2, #0
100042e4:	e9cd 0114 	strd	r0, r1, [sp, #80]	@ 0x50
100042e8:	e9dd 010e 	ldrd	r0, r1, [sp, #56]	@ 0x38
100042ec:	4b56      	ldr	r3, [pc, #344]	@ (10004448 <_etoa+0x440>)
100042ee:	f7ff fa49 	bl	10003784 <__wrap___aeabi_ddiv>
100042f2:	2200      	movs	r2, #0
100042f4:	4b55      	ldr	r3, [pc, #340]	@ (1000444c <_etoa+0x444>)
100042f6:	f7ff f9f7 	bl	100036e8 <__wrap___aeabi_dadd>
100042fa:	4602      	mov	r2, r0
100042fc:	460b      	mov	r3, r1
100042fe:	e9dd 010e 	ldrd	r0, r1, [sp, #56]	@ 0x38
10004302:	f7ff fa3f 	bl	10003784 <__wrap___aeabi_ddiv>
10004306:	2200      	movs	r2, #0
10004308:	4b51      	ldr	r3, [pc, #324]	@ (10004450 <_etoa+0x448>)
1000430a:	f7ff f9ed 	bl	100036e8 <__wrap___aeabi_dadd>
1000430e:	4602      	mov	r2, r0
10004310:	460b      	mov	r3, r1
10004312:	e9dd 010e 	ldrd	r0, r1, [sp, #56]	@ 0x38
10004316:	f7ff fa35 	bl	10003784 <__wrap___aeabi_ddiv>
1000431a:	4642      	mov	r2, r8
1000431c:	464b      	mov	r3, r9
1000431e:	4680      	mov	r8, r0
10004320:	4689      	mov	r9, r1
10004322:	2000      	movs	r0, #0
10004324:	f04f 4180 	mov.w	r1, #1073741824	@ 0x40000000
10004328:	f7ff f9f2 	bl	10003710 <__wrap___aeabi_dsub>
1000432c:	4602      	mov	r2, r0
1000432e:	460b      	mov	r3, r1
10004330:	4640      	mov	r0, r8
10004332:	4649      	mov	r1, r9
10004334:	f7ff f9d8 	bl	100036e8 <__wrap___aeabi_dadd>
10004338:	4602      	mov	r2, r0
1000433a:	460b      	mov	r3, r1
1000433c:	e9dd 0114 	ldrd	r0, r1, [sp, #80]	@ 0x50
10004340:	f7ff fa20 	bl	10003784 <__wrap___aeabi_ddiv>
10004344:	2200      	movs	r2, #0
10004346:	4b43      	ldr	r3, [pc, #268]	@ (10004454 <_etoa+0x44c>)
10004348:	f7ff f9ce 	bl	100036e8 <__wrap___aeabi_dadd>
1000434c:	9b12      	ldr	r3, [sp, #72]	@ 0x48
1000434e:	2200      	movs	r2, #0
10004350:	f203 3cff 	addw	ip, r3, #1023	@ 0x3ff
10004354:	ea4f 530c 	mov.w	r3, ip, lsl #20
10004358:	f7ff f9ee 	bl	10003738 <__wrap___aeabi_dmul>
1000435c:	4680      	mov	r8, r0
1000435e:	4689      	mov	r9, r1
10004360:	e9dd 010a 	ldrd	r0, r1, [sp, #40]	@ 0x28
10004364:	4642      	mov	r2, r8
10004366:	464b      	mov	r3, r9
10004368:	e9cd 890e 	strd	r8, r9, [sp, #56]	@ 0x38
1000436c:	f7ff fad2 	bl	10003914 <__wrap___aeabi_dcmplt>
10004370:	bb68      	cbnz	r0, 100043ce <_etoa+0x3c6>
10004372:	4643      	mov	r3, r8
10004374:	4649      	mov	r1, r9
10004376:	f107 0263 	add.w	r2, r7, #99	@ 0x63
1000437a:	2ac6      	cmp	r2, #198	@ 0xc6
1000437c:	9a11      	ldr	r2, [sp, #68]	@ 0x44
1000437e:	bf8c      	ite	hi
10004380:	f04f 0905 	movhi.w	r9, #5
10004384:	f04f 0904 	movls.w	r9, #4
10004388:	2a00      	cmp	r2, #0
1000438a:	f43f ae9f 	beq.w	100040cc <_etoa+0xc4>
1000438e:	430b      	orrs	r3, r1
10004390:	f43f ae8e 	beq.w	100040b0 <_etoa+0xa8>
10004394:	e9dd 010a 	ldrd	r0, r1, [sp, #40]	@ 0x28
10004398:	a323      	add	r3, pc, #140	@ (adr r3, 10004428 <_etoa+0x420>)
1000439a:	e9d3 2300 	ldrd	r2, r3, [r3]
1000439e:	f7ff fae1 	bl	10003964 <__wrap___aeabi_dcmpge>
100043a2:	b148      	cbz	r0, 100043b8 <_etoa+0x3b0>
100043a4:	e9dd 010a 	ldrd	r0, r1, [sp, #40]	@ 0x28
100043a8:	a321      	add	r3, pc, #132	@ (adr r3, 10004430 <_etoa+0x428>)
100043aa:	e9d3 2300 	ldrd	r2, r3, [r3]
100043ae:	f7ff fab1 	bl	10003914 <__wrap___aeabi_dcmplt>
100043b2:	2800      	cmp	r0, #0
100043b4:	f47f ae7c 	bne.w	100040b0 <_etoa+0xa8>
100043b8:	f1ba 0f00 	cmp.w	sl, #0
100043bc:	f43f ae86 	beq.w	100040cc <_etoa+0xc4>
100043c0:	9b13      	ldr	r3, [sp, #76]	@ 0x4c
100043c2:	2b00      	cmp	r3, #0
100043c4:	f43f ae82 	beq.w	100040cc <_etoa+0xc4>
100043c8:	f10a 3aff 	add.w	sl, sl, #4294967295
100043cc:	e67e      	b.n	100040cc <_etoa+0xc4>
100043ce:	2200      	movs	r2, #0
100043d0:	4b1e      	ldr	r3, [pc, #120]	@ (1000444c <_etoa+0x444>)
100043d2:	4640      	mov	r0, r8
100043d4:	4649      	mov	r1, r9
100043d6:	f7ff f9d5 	bl	10003784 <__wrap___aeabi_ddiv>
100043da:	460a      	mov	r2, r1
100043dc:	4601      	mov	r1, r0
100043de:	4603      	mov	r3, r0
100043e0:	e9cd 120e 	strd	r1, r2, [sp, #56]	@ 0x38
100043e4:	3f01      	subs	r7, #1
100043e6:	4611      	mov	r1, r2
100043e8:	e7c5      	b.n	10004376 <_etoa+0x36e>
100043ea:	ed9f 7b13 	vldr	d7, [pc, #76]	@ 10004438 <_etoa+0x430>
100043ee:	4617      	mov	r7, r2
100043f0:	f04f 0904 	mov.w	r9, #4
100043f4:	ed8d 7b0e 	vstr	d7, [sp, #56]	@ 0x38
100043f8:	e668      	b.n	100040cc <_etoa+0xc4>
100043fa:	f108 4300 	add.w	r3, r8, #2147483648	@ 0x80000000
100043fe:	970a      	str	r7, [sp, #40]	@ 0x28
10004400:	930b      	str	r3, [sp, #44]	@ 0x2c
10004402:	e63c      	b.n	1000407e <_etoa+0x76>
10004404:	f3af 8000 	nop.w
10004408:	636f4361 	.word	0x636f4361
1000440c:	3fd287a7 	.word	0x3fd287a7
10004410:	0979a371 	.word	0x0979a371
10004414:	400a934f 	.word	0x400a934f
10004418:	bbb55516 	.word	0xbbb55516
1000441c:	40026bb1 	.word	0x40026bb1
10004420:	fefa39ef 	.word	0xfefa39ef
10004424:	3fe62e42 	.word	0x3fe62e42
10004428:	eb1c432d 	.word	0xeb1c432d
1000442c:	3f1a36e2 	.word	0x3f1a36e2
10004430:	00000000 	.word	0x00000000
10004434:	412e8480 	.word	0x412e8480
	...
10004440:	3ff80000 	.word	0x3ff80000
10004444:	3fe00000 	.word	0x3fe00000
10004448:	402c0000 	.word	0x402c0000
1000444c:	40240000 	.word	0x40240000
10004450:	40180000 	.word	0x40180000
10004454:	3ff00000 	.word	0x3ff00000
10004458:	509f79fb 	.word	0x509f79fb
1000445c:	3fd34413 	.word	0x3fd34413
10004460:	8b60c8b3 	.word	0x8b60c8b3
10004464:	3fc68a28 	.word	0x3fc68a28

10004468 <_ftoa>:
10004468:	e92d 4ff0 	stmdb	sp!, {r4, r5, r6, r7, r8, r9, sl, fp, lr}
1000446c:	b097      	sub	sp, #92	@ 0x5c
1000446e:	e9dd 8920 	ldrd	r8, r9, [sp, #128]	@ 0x80
10004472:	e9cd 0104 	strd	r0, r1, [sp, #16]
10004476:	e9dd 4b22 	ldrd	r4, fp, [sp, #136]	@ 0x88
1000447a:	e9cd 2306 	strd	r2, r3, [sp, #24]
1000447e:	4640      	mov	r0, r8
10004480:	4642      	mov	r2, r8
10004482:	464b      	mov	r3, r9
10004484:	4649      	mov	r1, r9
10004486:	f8dd a090 	ldr.w	sl, [sp, #144]	@ 0x90
1000448a:	f7ff fa1f 	bl	100038cc <__wrap___aeabi_dcmpun>
1000448e:	2800      	cmp	r0, #0
10004490:	f040 81c5 	bne.w	1000481e <_ftoa+0x3b6>
10004494:	4640      	mov	r0, r8
10004496:	4649      	mov	r1, r9
10004498:	f04f 32ff 	mov.w	r2, #4294967295
1000449c:	f46f 1380 	mvn.w	r3, #1048576	@ 0x100000
100044a0:	f7ff fa38 	bl	10003914 <__wrap___aeabi_dcmplt>
100044a4:	2800      	cmp	r0, #0
100044a6:	f040 811d 	bne.w	100046e4 <_ftoa+0x27c>
100044aa:	4640      	mov	r0, r8
100044ac:	4649      	mov	r1, r9
100044ae:	f04f 32ff 	mov.w	r2, #4294967295
100044b2:	4bc1      	ldr	r3, [pc, #772]	@ (100047b8 <_ftoa+0x350>)
100044b4:	f7ff fa6a 	bl	1000398c <__wrap___aeabi_dcmpgt>
100044b8:	2800      	cmp	r0, #0
100044ba:	f040 80e3 	bne.w	10004684 <_ftoa+0x21c>
100044be:	a3b8      	add	r3, pc, #736	@ (adr r3, 100047a0 <_ftoa+0x338>)
100044c0:	e9d3 2300 	ldrd	r2, r3, [r3]
100044c4:	4640      	mov	r0, r8
100044c6:	4649      	mov	r1, r9
100044c8:	f7ff fa60 	bl	1000398c <__wrap___aeabi_dcmpgt>
100044cc:	2800      	cmp	r0, #0
100044ce:	f040 80cb 	bne.w	10004668 <_ftoa+0x200>
100044d2:	a3b5      	add	r3, pc, #724	@ (adr r3, 100047a8 <_ftoa+0x340>)
100044d4:	e9d3 2300 	ldrd	r2, r3, [r3]
100044d8:	4640      	mov	r0, r8
100044da:	4649      	mov	r1, r9
100044dc:	f7ff fa1a 	bl	10003914 <__wrap___aeabi_dcmplt>
100044e0:	2800      	cmp	r0, #0
100044e2:	f040 80c1 	bne.w	10004668 <_ftoa+0x200>
100044e6:	4640      	mov	r0, r8
100044e8:	4649      	mov	r1, r9
100044ea:	2200      	movs	r2, #0
100044ec:	2300      	movs	r3, #0
100044ee:	f7ff fa11 	bl	10003914 <__wrap___aeabi_dcmplt>
100044f2:	2800      	cmp	r0, #0
100044f4:	f040 80e0 	bne.w	100046b8 <_ftoa+0x250>
100044f8:	f41a 6580 	ands.w	r5, sl, #1024	@ 0x400
100044fc:	900d      	str	r0, [sp, #52]	@ 0x34
100044fe:	f000 80e9 	beq.w	100046d4 <_ftoa+0x26c>
10004502:	2c09      	cmp	r4, #9
10004504:	f240 8196 	bls.w	10004834 <_ftoa+0x3cc>
10004508:	ab0e      	add	r3, sp, #56	@ 0x38
1000450a:	461a      	mov	r2, r3
1000450c:	930c      	str	r3, [sp, #48]	@ 0x30
1000450e:	2130      	movs	r1, #48	@ 0x30
10004510:	2300      	movs	r3, #0
10004512:	f1a4 0509 	sub.w	r5, r4, #9
10004516:	3301      	adds	r3, #1
10004518:	2b20      	cmp	r3, #32
1000451a:	f802 1b01 	strb.w	r1, [r2], #1
1000451e:	eba4 0603 	sub.w	r6, r4, r3
10004522:	f000 813a 	beq.w	1000479a <_ftoa+0x332>
10004526:	42ab      	cmp	r3, r5
10004528:	d1f5      	bne.n	10004516 <_ftoa+0xae>
1000452a:	ed9f 7b9d 	vldr	d7, [pc, #628]	@ 100047a0 <_ftoa+0x338>
1000452e:	ed8d 7b08 	vstr	d7, [sp, #32]
10004532:	4649      	mov	r1, r9
10004534:	4640      	mov	r0, r8
10004536:	f7ff f9a5 	bl	10003884 <__wrap___aeabi_d2iz>
1000453a:	4604      	mov	r4, r0
1000453c:	f7ff f97e 	bl	1000383c <__wrap___aeabi_i2d>
10004540:	4602      	mov	r2, r0
10004542:	460b      	mov	r3, r1
10004544:	4640      	mov	r0, r8
10004546:	4649      	mov	r1, r9
10004548:	f7ff f8e2 	bl	10003710 <__wrap___aeabi_dsub>
1000454c:	e9dd 2308 	ldrd	r2, r3, [sp, #32]
10004550:	f7ff f8f2 	bl	10003738 <__wrap___aeabi_dmul>
10004554:	4602      	mov	r2, r0
10004556:	460b      	mov	r3, r1
10004558:	e9cd 230a 	strd	r2, r3, [sp, #40]	@ 0x28
1000455c:	f7ff f9a4 	bl	100038a8 <__wrap___aeabi_d2uiz>
10004560:	4607      	mov	r7, r0
10004562:	f7ff f97d 	bl	10003860 <__wrap___aeabi_ui2d>
10004566:	4602      	mov	r2, r0
10004568:	460b      	mov	r3, r1
1000456a:	e9dd 010a 	ldrd	r0, r1, [sp, #40]	@ 0x28
1000456e:	f7ff f8cf 	bl	10003710 <__wrap___aeabi_dsub>
10004572:	4602      	mov	r2, r0
10004574:	460b      	mov	r3, r1
10004576:	e9cd 230a 	strd	r2, r3, [sp, #40]	@ 0x28
1000457a:	2200      	movs	r2, #0
1000457c:	4b8f      	ldr	r3, [pc, #572]	@ (100047bc <_ftoa+0x354>)
1000457e:	f7ff fa05 	bl	1000398c <__wrap___aeabi_dcmpgt>
10004582:	2800      	cmp	r0, #0
10004584:	f000 80db 	beq.w	1000473e <_ftoa+0x2d6>
10004588:	3701      	adds	r7, #1
1000458a:	4638      	mov	r0, r7
1000458c:	f7ff f968 	bl	10003860 <__wrap___aeabi_ui2d>
10004590:	e9dd 2308 	ldrd	r2, r3, [sp, #32]
10004594:	f7ff f9e6 	bl	10003964 <__wrap___aeabi_dcmpge>
10004598:	b108      	cbz	r0, 1000459e <_ftoa+0x136>
1000459a:	2700      	movs	r7, #0
1000459c:	3401      	adds	r4, #1
1000459e:	2e00      	cmp	r6, #0
100045a0:	f040 80b1 	bne.w	10004706 <_ftoa+0x29e>
100045a4:	4620      	mov	r0, r4
100045a6:	f7ff f949 	bl	1000383c <__wrap___aeabi_i2d>
100045aa:	4602      	mov	r2, r0
100045ac:	460b      	mov	r3, r1
100045ae:	4640      	mov	r0, r8
100045b0:	4649      	mov	r1, r9
100045b2:	f7ff f8ad 	bl	10003710 <__wrap___aeabi_dsub>
100045b6:	2200      	movs	r2, #0
100045b8:	4b80      	ldr	r3, [pc, #512]	@ (100047bc <_ftoa+0x354>)
100045ba:	4606      	mov	r6, r0
100045bc:	460f      	mov	r7, r1
100045be:	f7ff f9a9 	bl	10003914 <__wrap___aeabi_dcmplt>
100045c2:	b940      	cbnz	r0, 100045d6 <_ftoa+0x16e>
100045c4:	4630      	mov	r0, r6
100045c6:	4639      	mov	r1, r7
100045c8:	2200      	movs	r2, #0
100045ca:	4b7c      	ldr	r3, [pc, #496]	@ (100047bc <_ftoa+0x354>)
100045cc:	f7ff f9de 	bl	1000398c <__wrap___aeabi_dcmpgt>
100045d0:	2800      	cmp	r0, #0
100045d2:	f000 8115 	beq.w	10004800 <_ftoa+0x398>
100045d6:	9b0c      	ldr	r3, [sp, #48]	@ 0x30
100045d8:	1e69      	subs	r1, r5, #1
100045da:	4879      	ldr	r0, [pc, #484]	@ (100047c0 <_ftoa+0x358>)
100045dc:	4419      	add	r1, r3
100045de:	e010      	b.n	10004602 <_ftoa+0x19a>
100045e0:	fb80 6204 	smull	r6, r2, r0, r4
100045e4:	ebc3 03a2 	rsb	r3, r3, r2, asr #2
100045e8:	eb03 0283 	add.w	r2, r3, r3, lsl #2
100045ec:	eba4 0442 	sub.w	r4, r4, r2, lsl #1
100045f0:	f104 0230 	add.w	r2, r4, #48	@ 0x30
100045f4:	3501      	adds	r5, #1
100045f6:	461c      	mov	r4, r3
100045f8:	f801 2f01 	strb.w	r2, [r1, #1]!
100045fc:	2b00      	cmp	r3, #0
100045fe:	f000 80ab 	beq.w	10004758 <_ftoa+0x2f0>
10004602:	2d20      	cmp	r5, #32
10004604:	ea4f 73e4 	mov.w	r3, r4, asr #31
10004608:	d1ea      	bne.n	100045e0 <_ftoa+0x178>
1000460a:	f00a 0303 	and.w	r3, sl, #3
1000460e:	2b01      	cmp	r3, #1
10004610:	d11c      	bne.n	1000464c <_ftoa+0x1e4>
10004612:	f1bb 0f00 	cmp.w	fp, #0
10004616:	d019      	beq.n	1000464c <_ftoa+0x1e4>
10004618:	9b0d      	ldr	r3, [sp, #52]	@ 0x34
1000461a:	2b00      	cmp	r3, #0
1000461c:	f040 80f9 	bne.w	10004812 <_ftoa+0x3aa>
10004620:	f01a 0f0c 	tst.w	sl, #12
10004624:	f040 80f5 	bne.w	10004812 <_ftoa+0x3aa>
10004628:	45ab      	cmp	fp, r5
1000462a:	f240 80d3 	bls.w	100047d4 <_ftoa+0x36c>
1000462e:	2d20      	cmp	r5, #32
10004630:	d00b      	beq.n	1000464a <_ftoa+0x1e2>
10004632:	2230      	movs	r2, #48	@ 0x30
10004634:	990c      	ldr	r1, [sp, #48]	@ 0x30
10004636:	1e6b      	subs	r3, r5, #1
10004638:	440b      	add	r3, r1
1000463a:	3501      	adds	r5, #1
1000463c:	455d      	cmp	r5, fp
1000463e:	f803 2f01 	strb.w	r2, [r3, #1]!
10004642:	f000 808d 	beq.w	10004760 <_ftoa+0x2f8>
10004646:	2d20      	cmp	r5, #32
10004648:	d1f7      	bne.n	1000463a <_ftoa+0x1d2>
1000464a:	2520      	movs	r5, #32
1000464c:	e9dd 2306 	ldrd	r2, r3, [sp, #24]
10004650:	e9dd 0104 	ldrd	r0, r1, [sp, #16]
10004654:	9c0c      	ldr	r4, [sp, #48]	@ 0x30
10004656:	e9cd ba02 	strd	fp, sl, [sp, #8]
1000465a:	9501      	str	r5, [sp, #4]
1000465c:	9400      	str	r4, [sp, #0]
1000465e:	f7ff fb27 	bl	10003cb0 <_out_rev>
10004662:	b017      	add	sp, #92	@ 0x5c
10004664:	e8bd 8ff0 	ldmia.w	sp!, {r4, r5, r6, r7, r8, r9, sl, fp, pc}
10004668:	e9cd 8920 	strd	r8, r9, [sp, #128]	@ 0x80
1000466c:	e9dd 2306 	ldrd	r2, r3, [sp, #24]
10004670:	e9dd 0104 	ldrd	r0, r1, [sp, #16]
10004674:	e9cd ba23 	strd	fp, sl, [sp, #140]	@ 0x8c
10004678:	9422      	str	r4, [sp, #136]	@ 0x88
1000467a:	b017      	add	sp, #92	@ 0x5c
1000467c:	e8bd 4ff0 	ldmia.w	sp!, {r4, r5, r6, r7, r8, r9, sl, fp, lr}
10004680:	f7ff bcc2 	b.w	10004008 <_etoa>
10004684:	4d4f      	ldr	r5, [pc, #316]	@ (100047c4 <_ftoa+0x35c>)
10004686:	f8cd a08c 	str.w	sl, [sp, #140]	@ 0x8c
1000468a:	f00a 0a04 	and.w	sl, sl, #4
1000468e:	f1ba 0f00 	cmp.w	sl, #0
10004692:	4c4d      	ldr	r4, [pc, #308]	@ (100047c8 <_ftoa+0x360>)
10004694:	bf18      	it	ne
10004696:	462c      	movne	r4, r5
10004698:	e9dd 2306 	ldrd	r2, r3, [sp, #24]
1000469c:	e9dd 0104 	ldrd	r0, r1, [sp, #16]
100046a0:	9420      	str	r4, [sp, #128]	@ 0x80
100046a2:	bf0c      	ite	eq
100046a4:	2403      	moveq	r4, #3
100046a6:	2404      	movne	r4, #4
100046a8:	f8cd b088 	str.w	fp, [sp, #136]	@ 0x88
100046ac:	9421      	str	r4, [sp, #132]	@ 0x84
100046ae:	b017      	add	sp, #92	@ 0x5c
100046b0:	e8bd 4ff0 	ldmia.w	sp!, {r4, r5, r6, r7, r8, r9, sl, fp, lr}
100046b4:	f7ff bafc 	b.w	10003cb0 <_out_rev>
100046b8:	464b      	mov	r3, r9
100046ba:	4642      	mov	r2, r8
100046bc:	2000      	movs	r0, #0
100046be:	2100      	movs	r1, #0
100046c0:	f7ff f826 	bl	10003710 <__wrap___aeabi_dsub>
100046c4:	2301      	movs	r3, #1
100046c6:	f41a 6580 	ands.w	r5, sl, #1024	@ 0x400
100046ca:	4680      	mov	r8, r0
100046cc:	4689      	mov	r9, r1
100046ce:	930d      	str	r3, [sp, #52]	@ 0x34
100046d0:	f47f af17 	bne.w	10004502 <_ftoa+0x9a>
100046d4:	ed9f 7b36 	vldr	d7, [pc, #216]	@ 100047b0 <_ftoa+0x348>
100046d8:	ab0e      	add	r3, sp, #56	@ 0x38
100046da:	2606      	movs	r6, #6
100046dc:	ed8d 7b08 	vstr	d7, [sp, #32]
100046e0:	930c      	str	r3, [sp, #48]	@ 0x30
100046e2:	e726      	b.n	10004532 <_ftoa+0xca>
100046e4:	2404      	movs	r4, #4
100046e6:	e9dd 2306 	ldrd	r2, r3, [sp, #24]
100046ea:	e9dd 0104 	ldrd	r0, r1, [sp, #16]
100046ee:	4d37      	ldr	r5, [pc, #220]	@ (100047cc <_ftoa+0x364>)
100046f0:	f8cd a08c 	str.w	sl, [sp, #140]	@ 0x8c
100046f4:	f8cd b088 	str.w	fp, [sp, #136]	@ 0x88
100046f8:	9520      	str	r5, [sp, #128]	@ 0x80
100046fa:	9421      	str	r4, [sp, #132]	@ 0x84
100046fc:	b017      	add	sp, #92	@ 0x5c
100046fe:	e8bd 4ff0 	ldmia.w	sp!, {r4, r5, r6, r7, r8, r9, sl, fp, lr}
10004702:	f7ff bad5 	b.w	10003cb0 <_out_rev>
10004706:	9b0c      	ldr	r3, [sp, #48]	@ 0x30
10004708:	1e68      	subs	r0, r5, #1
1000470a:	f8df c0c4 	ldr.w	ip, [pc, #196]	@ 100047d0 <_ftoa+0x368>
1000470e:	4418      	add	r0, r3
10004710:	e00d      	b.n	1000472e <_ftoa+0x2c6>
10004712:	fbac 2107 	umull	r2, r1, ip, r7
10004716:	08c9      	lsrs	r1, r1, #3
10004718:	eb01 0281 	add.w	r2, r1, r1, lsl #2
1000471c:	eba7 0242 	sub.w	r2, r7, r2, lsl #1
10004720:	3230      	adds	r2, #48	@ 0x30
10004722:	2f09      	cmp	r7, #9
10004724:	f800 2f01 	strb.w	r2, [r0, #1]!
10004728:	d927      	bls.n	1000477a <_ftoa+0x312>
1000472a:	460f      	mov	r7, r1
1000472c:	461d      	mov	r5, r3
1000472e:	2d20      	cmp	r5, #32
10004730:	f105 0301 	add.w	r3, r5, #1
10004734:	f106 36ff 	add.w	r6, r6, #4294967295
10004738:	d1eb      	bne.n	10004712 <_ftoa+0x2aa>
1000473a:	2520      	movs	r5, #32
1000473c:	e74b      	b.n	100045d6 <_ftoa+0x16e>
1000473e:	2200      	movs	r2, #0
10004740:	e9dd 010a 	ldrd	r0, r1, [sp, #40]	@ 0x28
10004744:	4b1d      	ldr	r3, [pc, #116]	@ (100047bc <_ftoa+0x354>)
10004746:	f7ff f8e5 	bl	10003914 <__wrap___aeabi_dcmplt>
1000474a:	2800      	cmp	r0, #0
1000474c:	f47f af27 	bne.w	1000459e <_ftoa+0x136>
10004750:	2f00      	cmp	r7, #0
10004752:	d15a      	bne.n	1000480a <_ftoa+0x3a2>
10004754:	3701      	adds	r7, #1
10004756:	e722      	b.n	1000459e <_ftoa+0x136>
10004758:	f00a 0303 	and.w	r3, sl, #3
1000475c:	2b01      	cmp	r3, #1
1000475e:	d075      	beq.n	1000484c <_ftoa+0x3e4>
10004760:	2d20      	cmp	r5, #32
10004762:	f43f af73 	beq.w	1000464c <_ftoa+0x1e4>
10004766:	9b0d      	ldr	r3, [sp, #52]	@ 0x34
10004768:	b3bb      	cbz	r3, 100047da <_ftoa+0x372>
1000476a:	222d      	movs	r2, #45	@ 0x2d
1000476c:	f105 0358 	add.w	r3, r5, #88	@ 0x58
10004770:	446b      	add	r3, sp
10004772:	f803 2c20 	strb.w	r2, [r3, #-32]
10004776:	3501      	adds	r5, #1
10004778:	e768      	b.n	1000464c <_ftoa+0x1e4>
1000477a:	2b20      	cmp	r3, #32
1000477c:	d0dd      	beq.n	1000473a <_ftoa+0x2d2>
1000477e:	b3ae      	cbz	r6, 100047ec <_ftoa+0x384>
10004780:	9a0c      	ldr	r2, [sp, #48]	@ 0x30
10004782:	441e      	add	r6, r3
10004784:	4415      	add	r5, r2
10004786:	2230      	movs	r2, #48	@ 0x30
10004788:	e001      	b.n	1000478e <_ftoa+0x326>
1000478a:	42b3      	cmp	r3, r6
1000478c:	d02e      	beq.n	100047ec <_ftoa+0x384>
1000478e:	3301      	adds	r3, #1
10004790:	2b20      	cmp	r3, #32
10004792:	f805 2f01 	strb.w	r2, [r5, #1]!
10004796:	d1f8      	bne.n	1000478a <_ftoa+0x322>
10004798:	e7cf      	b.n	1000473a <_ftoa+0x2d2>
1000479a:	461d      	mov	r5, r3
1000479c:	e6c5      	b.n	1000452a <_ftoa+0xc2>
1000479e:	bf00      	nop
100047a0:	00000000 	.word	0x00000000
100047a4:	41cdcd65 	.word	0x41cdcd65
100047a8:	00000000 	.word	0x00000000
100047ac:	c1cdcd65 	.word	0xc1cdcd65
100047b0:	00000000 	.word	0x00000000
100047b4:	412e8480 	.word	0x412e8480
100047b8:	7fefffff 	.word	0x7fefffff
100047bc:	3fe00000 	.word	0x3fe00000
100047c0:	66666667 	.word	0x66666667
100047c4:	1000c5a0 	.word	0x1000c5a0
100047c8:	1000c5a8 	.word	0x1000c5a8
100047cc:	1000c5b0 	.word	0x1000c5b0
100047d0:	cccccccd 	.word	0xcccccccd
100047d4:	2d20      	cmp	r5, #32
100047d6:	f43f af39 	beq.w	1000464c <_ftoa+0x1e4>
100047da:	f01a 0f04 	tst.w	sl, #4
100047de:	d10d      	bne.n	100047fc <_ftoa+0x394>
100047e0:	f01a 0f08 	tst.w	sl, #8
100047e4:	f43f af32 	beq.w	1000464c <_ftoa+0x1e4>
100047e8:	2220      	movs	r2, #32
100047ea:	e7bf      	b.n	1000476c <_ftoa+0x304>
100047ec:	212e      	movs	r1, #46	@ 0x2e
100047ee:	f103 0258 	add.w	r2, r3, #88	@ 0x58
100047f2:	446a      	add	r2, sp
100047f4:	f802 1c20 	strb.w	r1, [r2, #-32]
100047f8:	1c5d      	adds	r5, r3, #1
100047fa:	e6ec      	b.n	100045d6 <_ftoa+0x16e>
100047fc:	222b      	movs	r2, #43	@ 0x2b
100047fe:	e7b5      	b.n	1000476c <_ftoa+0x304>
10004800:	07e3      	lsls	r3, r4, #31
10004802:	f57f aee8 	bpl.w	100045d6 <_ftoa+0x16e>
10004806:	3401      	adds	r4, #1
10004808:	e6e5      	b.n	100045d6 <_ftoa+0x16e>
1000480a:	07fa      	lsls	r2, r7, #31
1000480c:	f57f aec7 	bpl.w	1000459e <_ftoa+0x136>
10004810:	e7a0      	b.n	10004754 <_ftoa+0x2ec>
10004812:	f10b 3bff 	add.w	fp, fp, #4294967295
10004816:	45ab      	cmp	fp, r5
10004818:	f63f af09 	bhi.w	1000462e <_ftoa+0x1c6>
1000481c:	e7a0      	b.n	10004760 <_ftoa+0x2f8>
1000481e:	2403      	movs	r4, #3
10004820:	e9dd 2306 	ldrd	r2, r3, [sp, #24]
10004824:	e9dd 0104 	ldrd	r0, r1, [sp, #16]
10004828:	4d0a      	ldr	r5, [pc, #40]	@ (10004854 <_ftoa+0x3ec>)
1000482a:	f8cd a08c 	str.w	sl, [sp, #140]	@ 0x8c
1000482e:	f8cd b088 	str.w	fp, [sp, #136]	@ 0x88
10004832:	e761      	b.n	100046f8 <_ftoa+0x290>
10004834:	4b08      	ldr	r3, [pc, #32]	@ (10004858 <_ftoa+0x3f0>)
10004836:	4626      	mov	r6, r4
10004838:	eb03 03c4 	add.w	r3, r3, r4, lsl #3
1000483c:	ed93 7b00 	vldr	d7, [r3]
10004840:	ab0e      	add	r3, sp, #56	@ 0x38
10004842:	ed8d 7b08 	vstr	d7, [sp, #32]
10004846:	2500      	movs	r5, #0
10004848:	930c      	str	r3, [sp, #48]	@ 0x30
1000484a:	e672      	b.n	10004532 <_ftoa+0xca>
1000484c:	f1bb 0f00 	cmp.w	fp, #0
10004850:	d086      	beq.n	10004760 <_ftoa+0x2f8>
10004852:	e6e1      	b.n	10004618 <_ftoa+0x1b0>
10004854:	1000c5ac 	.word	0x1000c5ac
10004858:	1000c7f8 	.word	0x1000c7f8

1000485c <_vsnprintf>:
1000485c:	e92d 4ff0 	stmdb	sp!, {r4, r5, r6, r7, r8, r9, sl, fp, lr}
10004860:	469a      	mov	sl, r3
10004862:	b09b      	sub	sp, #108	@ 0x6c
10004864:	9c24      	ldr	r4, [sp, #144]	@ 0x90
10004866:	4d96      	ldr	r5, [pc, #600]	@ (10004ac0 <_vsnprintf+0x264>)
10004868:	940b      	str	r4, [sp, #44]	@ 0x2c
1000486a:	4c96      	ldr	r4, [pc, #600]	@ (10004ac4 <_vsnprintf+0x268>)
1000486c:	1e0b      	subs	r3, r1, #0
1000486e:	bf18      	it	ne
10004870:	4683      	movne	fp, r0
10004872:	6025      	str	r5, [r4, #0]
10004874:	f89a 0000 	ldrb.w	r0, [sl]
10004878:	4c93      	ldr	r4, [pc, #588]	@ (10004ac8 <_vsnprintf+0x26c>)
1000487a:	930a      	str	r3, [sp, #40]	@ 0x28
1000487c:	bf08      	it	eq
1000487e:	46a3      	moveq	fp, r4
10004880:	9209      	str	r2, [sp, #36]	@ 0x24
10004882:	2800      	cmp	r0, #0
10004884:	f000 82bc 	beq.w	10004e00 <_vsnprintf+0x5a4>
10004888:	f04f 0900 	mov.w	r9, #0
1000488c:	e00a      	b.n	100048a4 <_vsnprintf+0x48>
1000488e:	464a      	mov	r2, r9
10004890:	9b09      	ldr	r3, [sp, #36]	@ 0x24
10004892:	990a      	ldr	r1, [sp, #40]	@ 0x28
10004894:	f109 0901 	add.w	r9, r9, #1
10004898:	47d8      	blx	fp
1000489a:	f89a 0000 	ldrb.w	r0, [sl]
1000489e:	2800      	cmp	r0, #0
100048a0:	f000 80ce 	beq.w	10004a40 <_vsnprintf+0x1e4>
100048a4:	2825      	cmp	r0, #37	@ 0x25
100048a6:	f10a 0a01 	add.w	sl, sl, #1
100048aa:	d1f0      	bne.n	1000488e <_vsnprintf+0x32>
100048ac:	2300      	movs	r3, #0
100048ae:	4652      	mov	r2, sl
100048b0:	f812 0b01 	ldrb.w	r0, [r2], #1
100048b4:	f1a0 0120 	sub.w	r1, r0, #32
100048b8:	2910      	cmp	r1, #16
100048ba:	d80a      	bhi.n	100048d2 <_vsnprintf+0x76>
100048bc:	e8df f001 	tbb	[pc, r1]
100048c0:	3c090940 	.word	0x3c090940
100048c4:	09090909 	.word	0x09090909
100048c8:	38090909 	.word	0x38090909
100048cc:	09093409 	.word	0x09093409
100048d0:	30          	.byte	0x30
100048d1:	00          	.byte	0x00
100048d2:	f1a0 0130 	sub.w	r1, r0, #48	@ 0x30
100048d6:	2909      	cmp	r1, #9
100048d8:	f240 808c 	bls.w	100049f4 <_vsnprintf+0x198>
100048dc:	282a      	cmp	r0, #42	@ 0x2a
100048de:	f000 80f5 	beq.w	10004acc <_vsnprintf+0x270>
100048e2:	2100      	movs	r1, #0
100048e4:	910c      	str	r1, [sp, #48]	@ 0x30
100048e6:	282e      	cmp	r0, #46	@ 0x2e
100048e8:	f000 8099 	beq.w	10004a1e <_vsnprintf+0x1c2>
100048ec:	2700      	movs	r7, #0
100048ee:	f1a0 0168 	sub.w	r1, r0, #104	@ 0x68
100048f2:	2912      	cmp	r1, #18
100048f4:	d82d      	bhi.n	10004952 <_vsnprintf+0xf6>
100048f6:	e8df f011 	tbh	[pc, r1, lsl #1]
100048fa:	0157      	.short	0x0157
100048fc:	0151002c 	.word	0x0151002c
10004900:	0145002c 	.word	0x0145002c
10004904:	002c002c 	.word	0x002c002c
10004908:	002c002c 	.word	0x002c002c
1000490c:	002c002c 	.word	0x002c002c
10004910:	0027002c 	.word	0x0027002c
10004914:	002c002c 	.word	0x002c002c
10004918:	002c002c 	.word	0x002c002c
1000491c:	0027002c 	.word	0x0027002c
10004920:	4692      	mov	sl, r2
10004922:	f043 0301 	orr.w	r3, r3, #1
10004926:	e7c2      	b.n	100048ae <_vsnprintf+0x52>
10004928:	4692      	mov	sl, r2
1000492a:	f043 0302 	orr.w	r3, r3, #2
1000492e:	e7be      	b.n	100048ae <_vsnprintf+0x52>
10004930:	4692      	mov	sl, r2
10004932:	f043 0304 	orr.w	r3, r3, #4
10004936:	e7ba      	b.n	100048ae <_vsnprintf+0x52>
10004938:	4692      	mov	sl, r2
1000493a:	f043 0310 	orr.w	r3, r3, #16
1000493e:	e7b6      	b.n	100048ae <_vsnprintf+0x52>
10004940:	4692      	mov	sl, r2
10004942:	f043 0308 	orr.w	r3, r3, #8
10004946:	e7b2      	b.n	100048ae <_vsnprintf+0x52>
10004948:	f89a 0001 	ldrb.w	r0, [sl, #1]
1000494c:	f443 7380 	orr.w	r3, r3, #256	@ 0x100
10004950:	3201      	adds	r2, #1
10004952:	2867      	cmp	r0, #103	@ 0x67
10004954:	4692      	mov	sl, r2
10004956:	f200 8082 	bhi.w	10004a5e <_vsnprintf+0x202>
1000495a:	2824      	cmp	r0, #36	@ 0x24
1000495c:	f240 80c6 	bls.w	10004aec <_vsnprintf+0x290>
10004960:	f1a0 0225 	sub.w	r2, r0, #37	@ 0x25
10004964:	2a42      	cmp	r2, #66	@ 0x42
10004966:	f200 80c1 	bhi.w	10004aec <_vsnprintf+0x290>
1000496a:	e8df f012 	tbh	[pc, r2, lsl #1]
1000496e:	015f      	.short	0x015f
10004970:	00bf00bf 	.word	0x00bf00bf
10004974:	00bf00bf 	.word	0x00bf00bf
10004978:	00bf00bf 	.word	0x00bf00bf
1000497c:	00bf00bf 	.word	0x00bf00bf
10004980:	00bf00bf 	.word	0x00bf00bf
10004984:	00bf00bf 	.word	0x00bf00bf
10004988:	00bf00bf 	.word	0x00bf00bf
1000498c:	00bf00bf 	.word	0x00bf00bf
10004990:	00bf00bf 	.word	0x00bf00bf
10004994:	00bf00bf 	.word	0x00bf00bf
10004998:	00bf00bf 	.word	0x00bf00bf
1000499c:	00bf00bf 	.word	0x00bf00bf
100049a0:	00bf00bf 	.word	0x00bf00bf
100049a4:	00bf00bf 	.word	0x00bf00bf
100049a8:	00bf00bf 	.word	0x00bf00bf
100049ac:	012600bf 	.word	0x012600bf
100049b0:	01260145 	.word	0x01260145
100049b4:	00bf00bf 	.word	0x00bf00bf
100049b8:	00bf00bf 	.word	0x00bf00bf
100049bc:	00bf00bf 	.word	0x00bf00bf
100049c0:	00bf00bf 	.word	0x00bf00bf
100049c4:	00bf00bf 	.word	0x00bf00bf
100049c8:	00bf00bf 	.word	0x00bf00bf
100049cc:	00bf00bf 	.word	0x00bf00bf
100049d0:	00bf00bf 	.word	0x00bf00bf
100049d4:	00bf01d3 	.word	0x00bf01d3
100049d8:	00bf00bf 	.word	0x00bf00bf
100049dc:	00bf00bf 	.word	0x00bf00bf
100049e0:	00bf00bf 	.word	0x00bf00bf
100049e4:	00bf00bf 	.word	0x00bf00bf
100049e8:	016701d3 	.word	0x016701d3
100049ec:	012601d3 	.word	0x012601d3
100049f0:	01260145 	.word	0x01260145
100049f4:	2100      	movs	r1, #0
100049f6:	e000      	b.n	100049fa <_vsnprintf+0x19e>
100049f8:	3201      	adds	r2, #1
100049fa:	eb01 0181 	add.w	r1, r1, r1, lsl #2
100049fe:	eb00 0141 	add.w	r1, r0, r1, lsl #1
10004a02:	7810      	ldrb	r0, [r2, #0]
10004a04:	4692      	mov	sl, r2
10004a06:	f1a0 0430 	sub.w	r4, r0, #48	@ 0x30
10004a0a:	2c09      	cmp	r4, #9
10004a0c:	f1a1 0130 	sub.w	r1, r1, #48	@ 0x30
10004a10:	d9f2      	bls.n	100049f8 <_vsnprintf+0x19c>
10004a12:	282e      	cmp	r0, #46	@ 0x2e
10004a14:	910c      	str	r1, [sp, #48]	@ 0x30
10004a16:	f102 0201 	add.w	r2, r2, #1
10004a1a:	f47f af67 	bne.w	100048ec <_vsnprintf+0x90>
10004a1e:	f89a 0001 	ldrb.w	r0, [sl, #1]
10004a22:	4611      	mov	r1, r2
10004a24:	f1a0 0630 	sub.w	r6, r0, #48	@ 0x30
10004a28:	2e09      	cmp	r6, #9
10004a2a:	f443 6380 	orr.w	r3, r3, #1024	@ 0x400
10004a2e:	f240 8131 	bls.w	10004c94 <_vsnprintf+0x438>
10004a32:	282a      	cmp	r0, #42	@ 0x2a
10004a34:	f000 813e 	beq.w	10004cb4 <_vsnprintf+0x458>
10004a38:	4692      	mov	sl, r2
10004a3a:	2700      	movs	r7, #0
10004a3c:	3201      	adds	r2, #1
10004a3e:	e756      	b.n	100048ee <_vsnprintf+0x92>
10004a40:	464c      	mov	r4, r9
10004a42:	9b09      	ldr	r3, [sp, #36]	@ 0x24
10004a44:	4599      	cmp	r9, r3
10004a46:	d301      	bcc.n	10004a4c <_vsnprintf+0x1f0>
10004a48:	f103 39ff 	add.w	r9, r3, #4294967295
10004a4c:	464a      	mov	r2, r9
10004a4e:	2000      	movs	r0, #0
10004a50:	9b09      	ldr	r3, [sp, #36]	@ 0x24
10004a52:	990a      	ldr	r1, [sp, #40]	@ 0x28
10004a54:	47d8      	blx	fp
10004a56:	4620      	mov	r0, r4
10004a58:	b01b      	add	sp, #108	@ 0x6c
10004a5a:	e8bd 8ff0 	ldmia.w	sp!, {r4, r5, r6, r7, r8, r9, sl, fp, pc}
10004a5e:	f1a0 0269 	sub.w	r2, r0, #105	@ 0x69
10004a62:	b2d2      	uxtb	r2, r2
10004a64:	2a0f      	cmp	r2, #15
10004a66:	d841      	bhi.n	10004aec <_vsnprintf+0x290>
10004a68:	2601      	movs	r6, #1
10004a6a:	f249 0141 	movw	r1, #36929	@ 0x9041
10004a6e:	4096      	lsls	r6, r2
10004a70:	400e      	ands	r6, r1
10004a72:	f040 8101 	bne.w	10004c78 <_vsnprintf+0x41c>
10004a76:	2a0a      	cmp	r2, #10
10004a78:	d03f      	beq.n	10004afa <_vsnprintf+0x29e>
10004a7a:	2a07      	cmp	r2, #7
10004a7c:	d136      	bne.n	10004aec <_vsnprintf+0x290>
10004a7e:	9c0b      	ldr	r4, [sp, #44]	@ 0x2c
10004a80:	f854 2b04 	ldr.w	r2, [r4], #4
10004a84:	2a00      	cmp	r2, #0
10004a86:	f000 8128 	beq.w	10004cda <_vsnprintf+0x47e>
10004a8a:	f043 0121 	orr.w	r1, r3, #33	@ 0x21
10004a8e:	f10d 0e48 	add.w	lr, sp, #72	@ 0x48
10004a92:	4670      	mov	r0, lr
10004a94:	e003      	b.n	10004a9e <_vsnprintf+0x242>
10004a96:	2e20      	cmp	r6, #32
10004a98:	f000 8129 	beq.w	10004cee <_vsnprintf+0x492>
10004a9c:	461a      	mov	r2, r3
10004a9e:	f002 050f 	and.w	r5, r2, #15
10004aa2:	462b      	mov	r3, r5
10004aa4:	2d09      	cmp	r5, #9
10004aa6:	bf94      	ite	ls
10004aa8:	3330      	addls	r3, #48	@ 0x30
10004aaa:	3337      	addhi	r3, #55	@ 0x37
10004aac:	2a0f      	cmp	r2, #15
10004aae:	f800 3b01 	strb.w	r3, [r0], #1
10004ab2:	f106 0601 	add.w	r6, r6, #1
10004ab6:	ea4f 1312 	mov.w	r3, r2, lsr #4
10004aba:	d8ec      	bhi.n	10004a96 <_vsnprintf+0x23a>
10004abc:	e117      	b.n	10004cee <_vsnprintf+0x492>
10004abe:	bf00      	nop
10004ac0:	1000485d 	.word	0x1000485d
10004ac4:	20001304 	.word	0x20001304
10004ac8:	10003cad 	.word	0x10003cad
10004acc:	9c0b      	ldr	r4, [sp, #44]	@ 0x2c
10004ace:	f89a 0001 	ldrb.w	r0, [sl, #1]
10004ad2:	f854 5b04 	ldr.w	r5, [r4], #4
10004ad6:	4692      	mov	sl, r2
10004ad8:	2d00      	cmp	r5, #0
10004ada:	bfbd      	ittte	lt
10004adc:	4269      	neglt	r1, r5
10004ade:	f043 0302 	orrlt.w	r3, r3, #2
10004ae2:	910c      	strlt	r1, [sp, #48]	@ 0x30
10004ae4:	950c      	strge	r5, [sp, #48]	@ 0x30
10004ae6:	940b      	str	r4, [sp, #44]	@ 0x2c
10004ae8:	3201      	adds	r2, #1
10004aea:	e6fc      	b.n	100048e6 <_vsnprintf+0x8a>
10004aec:	464a      	mov	r2, r9
10004aee:	9b09      	ldr	r3, [sp, #36]	@ 0x24
10004af0:	990a      	ldr	r1, [sp, #40]	@ 0x28
10004af2:	f109 0901 	add.w	r9, r9, #1
10004af6:	47d8      	blx	fp
10004af8:	e6cf      	b.n	1000489a <_vsnprintf+0x3e>
10004afa:	990b      	ldr	r1, [sp, #44]	@ 0x2c
10004afc:	f851 8b04 	ldr.w	r8, [r1], #4
10004b00:	f898 2000 	ldrb.w	r2, [r8]
10004b04:	4610      	mov	r0, r2
10004b06:	2f00      	cmp	r7, #0
10004b08:	f040 80e1 	bne.w	10004cce <_vsnprintf+0x472>
10004b0c:	b172      	cbz	r2, 10004b2c <_vsnprintf+0x2d0>
10004b0e:	f06f 0c01 	mvn.w	ip, #1
10004b12:	f10c 0c01 	add.w	ip, ip, #1
10004b16:	4646      	mov	r6, r8
10004b18:	44c4      	add	ip, r8
10004b1a:	e001      	b.n	10004b20 <_vsnprintf+0x2c4>
10004b1c:	4566      	cmp	r6, ip
10004b1e:	d003      	beq.n	10004b28 <_vsnprintf+0x2cc>
10004b20:	f816 4f01 	ldrb.w	r4, [r6, #1]!
10004b24:	2c00      	cmp	r4, #0
10004b26:	d1f9      	bne.n	10004b1c <_vsnprintf+0x2c0>
10004b28:	eba6 0608 	sub.w	r6, r6, r8
10004b2c:	f413 6c80 	ands.w	ip, r3, #1024	@ 0x400
10004b30:	d002      	beq.n	10004b38 <_vsnprintf+0x2dc>
10004b32:	42be      	cmp	r6, r7
10004b34:	bf28      	it	cs
10004b36:	463e      	movcs	r6, r7
10004b38:	f013 0402 	ands.w	r4, r3, #2
10004b3c:	f000 8187 	beq.w	10004e4e <_vsnprintf+0x5f2>
10004b40:	2a00      	cmp	r2, #0
10004b42:	f000 812b 	beq.w	10004d9c <_vsnprintf+0x540>
10004b46:	f1bc 0f00 	cmp.w	ip, #0
10004b4a:	f000 8141 	beq.w	10004dd0 <_vsnprintf+0x574>
10004b4e:	940b      	str	r4, [sp, #44]	@ 0x2c
10004b50:	960d      	str	r6, [sp, #52]	@ 0x34
10004b52:	464a      	mov	r2, r9
10004b54:	e9dd 5409 	ldrd	r5, r4, [sp, #36]	@ 0x24
10004b58:	460e      	mov	r6, r1
10004b5a:	444f      	add	r7, r9
10004b5c:	e008      	b.n	10004b70 <_vsnprintf+0x314>
10004b5e:	462b      	mov	r3, r5
10004b60:	4621      	mov	r1, r4
10004b62:	47d8      	blx	fp
10004b64:	f818 0f01 	ldrb.w	r0, [r8, #1]!
10004b68:	f109 0901 	add.w	r9, r9, #1
10004b6c:	b110      	cbz	r0, 10004b74 <_vsnprintf+0x318>
10004b6e:	464a      	mov	r2, r9
10004b70:	454f      	cmp	r7, r9
10004b72:	d1f4      	bne.n	10004b5e <_vsnprintf+0x302>
10004b74:	4631      	mov	r1, r6
10004b76:	9c0b      	ldr	r4, [sp, #44]	@ 0x2c
10004b78:	9e0d      	ldr	r6, [sp, #52]	@ 0x34
10004b7a:	2c00      	cmp	r4, #0
10004b7c:	f040 810e 	bne.w	10004d9c <_vsnprintf+0x540>
10004b80:	910b      	str	r1, [sp, #44]	@ 0x2c
10004b82:	e68a      	b.n	1000489a <_vsnprintf+0x3e>
10004b84:	f89a 0001 	ldrb.w	r0, [sl, #1]
10004b88:	286c      	cmp	r0, #108	@ 0x6c
10004b8a:	f47f aedf 	bne.w	1000494c <_vsnprintf+0xf0>
10004b8e:	f89a 0002 	ldrb.w	r0, [sl, #2]
10004b92:	f443 7340 	orr.w	r3, r3, #768	@ 0x300
10004b96:	f10a 0203 	add.w	r2, sl, #3
10004b9a:	e6da      	b.n	10004952 <_vsnprintf+0xf6>
10004b9c:	f89a 0001 	ldrb.w	r0, [sl, #1]
10004ba0:	f443 7300 	orr.w	r3, r3, #512	@ 0x200
10004ba4:	3201      	adds	r2, #1
10004ba6:	e6d4      	b.n	10004952 <_vsnprintf+0xf6>
10004ba8:	f89a 0001 	ldrb.w	r0, [sl, #1]
10004bac:	2868      	cmp	r0, #104	@ 0x68
10004bae:	f000 8120 	beq.w	10004df2 <_vsnprintf+0x596>
10004bb2:	f043 0380 	orr.w	r3, r3, #128	@ 0x80
10004bb6:	3201      	adds	r2, #1
10004bb8:	e6cb      	b.n	10004952 <_vsnprintf+0xf6>
10004bba:	2867      	cmp	r0, #103	@ 0x67
10004bbc:	f000 80e7 	beq.w	10004d8e <_vsnprintf+0x532>
10004bc0:	2847      	cmp	r0, #71	@ 0x47
10004bc2:	f000 8100 	beq.w	10004dc6 <_vsnprintf+0x56a>
10004bc6:	2845      	cmp	r0, #69	@ 0x45
10004bc8:	f000 80ff 	beq.w	10004dca <_vsnprintf+0x56e>
10004bcc:	9c0b      	ldr	r4, [sp, #44]	@ 0x2c
10004bce:	9304      	str	r3, [sp, #16]
10004bd0:	9b0c      	ldr	r3, [sp, #48]	@ 0x30
10004bd2:	3407      	adds	r4, #7
10004bd4:	e9cd 7302 	strd	r7, r3, [sp, #8]
10004bd8:	f024 0307 	bic.w	r3, r4, #7
10004bdc:	461c      	mov	r4, r3
10004bde:	e9dd 3109 	ldrd	r3, r1, [sp, #36]	@ 0x24
10004be2:	e8f4 6702 	ldrd	r6, r7, [r4], #8
10004be6:	464a      	mov	r2, r9
10004be8:	4658      	mov	r0, fp
10004bea:	e9cd 6700 	strd	r6, r7, [sp]
10004bee:	940b      	str	r4, [sp, #44]	@ 0x2c
10004bf0:	f7ff fa0a 	bl	10004008 <_etoa>
10004bf4:	4681      	mov	r9, r0
10004bf6:	e650      	b.n	1000489a <_vsnprintf+0x3e>
10004bf8:	2846      	cmp	r0, #70	@ 0x46
10004bfa:	9c0b      	ldr	r4, [sp, #44]	@ 0x2c
10004bfc:	bf08      	it	eq
10004bfe:	f043 0320 	orreq.w	r3, r3, #32
10004c02:	9304      	str	r3, [sp, #16]
10004c04:	9b0c      	ldr	r3, [sp, #48]	@ 0x30
10004c06:	3407      	adds	r4, #7
10004c08:	e9cd 7302 	strd	r7, r3, [sp, #8]
10004c0c:	f024 0307 	bic.w	r3, r4, #7
10004c10:	461c      	mov	r4, r3
10004c12:	e9dd 3109 	ldrd	r3, r1, [sp, #36]	@ 0x24
10004c16:	e8f4 6702 	ldrd	r6, r7, [r4], #8
10004c1a:	464a      	mov	r2, r9
10004c1c:	4658      	mov	r0, fp
10004c1e:	e9cd 6700 	strd	r6, r7, [sp]
10004c22:	940b      	str	r4, [sp, #44]	@ 0x2c
10004c24:	f7ff fc20 	bl	10004468 <_ftoa>
10004c28:	4681      	mov	r9, r0
10004c2a:	e636      	b.n	1000489a <_vsnprintf+0x3e>
10004c2c:	464a      	mov	r2, r9
10004c2e:	2025      	movs	r0, #37	@ 0x25
10004c30:	9b09      	ldr	r3, [sp, #36]	@ 0x24
10004c32:	990a      	ldr	r1, [sp, #40]	@ 0x28
10004c34:	f109 0901 	add.w	r9, r9, #1
10004c38:	47d8      	blx	fp
10004c3a:	e62e      	b.n	1000489a <_vsnprintf+0x3e>
10004c3c:	9a0b      	ldr	r2, [sp, #44]	@ 0x2c
10004c3e:	079c      	lsls	r4, r3, #30
10004c40:	f102 0704 	add.w	r7, r2, #4
10004c44:	f109 0601 	add.w	r6, r9, #1
10004c48:	f140 80e6 	bpl.w	10004e18 <_vsnprintf+0x5bc>
10004c4c:	7810      	ldrb	r0, [r2, #0]
10004c4e:	9b09      	ldr	r3, [sp, #36]	@ 0x24
10004c50:	464a      	mov	r2, r9
10004c52:	990a      	ldr	r1, [sp, #40]	@ 0x28
10004c54:	47d8      	blx	fp
10004c56:	9b0c      	ldr	r3, [sp, #48]	@ 0x30
10004c58:	2b01      	cmp	r3, #1
10004c5a:	f240 812c 	bls.w	10004eb6 <_vsnprintf+0x65a>
10004c5e:	e9dd 5409 	ldrd	r5, r4, [sp, #36]	@ 0x24
10004c62:	4499      	add	r9, r3
10004c64:	4632      	mov	r2, r6
10004c66:	462b      	mov	r3, r5
10004c68:	4621      	mov	r1, r4
10004c6a:	2020      	movs	r0, #32
10004c6c:	3601      	adds	r6, #1
10004c6e:	47d8      	blx	fp
10004c70:	454e      	cmp	r6, r9
10004c72:	d1f7      	bne.n	10004c64 <_vsnprintf+0x408>
10004c74:	970b      	str	r7, [sp, #44]	@ 0x2c
10004c76:	e610      	b.n	1000489a <_vsnprintf+0x3e>
10004c78:	286f      	cmp	r0, #111	@ 0x6f
10004c7a:	f000 808b 	beq.w	10004d94 <_vsnprintf+0x538>
10004c7e:	f240 8165 	bls.w	10004f4c <_vsnprintf+0x6f0>
10004c82:	2878      	cmp	r0, #120	@ 0x78
10004c84:	f000 8108 	beq.w	10004e98 <_vsnprintf+0x63c>
10004c88:	f04f 080a 	mov.w	r8, #10
10004c8c:	f023 0310 	bic.w	r3, r3, #16
10004c90:	46c4      	mov	ip, r8
10004c92:	e047      	b.n	10004d24 <_vsnprintf+0x4c8>
10004c94:	2700      	movs	r7, #0
10004c96:	eb07 0787 	add.w	r7, r7, r7, lsl #2
10004c9a:	eb00 0047 	add.w	r0, r0, r7, lsl #1
10004c9e:	f1a0 0730 	sub.w	r7, r0, #48	@ 0x30
10004ca2:	f811 0f01 	ldrb.w	r0, [r1, #1]!
10004ca6:	f1a0 0230 	sub.w	r2, r0, #48	@ 0x30
10004caa:	2a09      	cmp	r2, #9
10004cac:	d9f3      	bls.n	10004c96 <_vsnprintf+0x43a>
10004cae:	468a      	mov	sl, r1
10004cb0:	1c4a      	adds	r2, r1, #1
10004cb2:	e61c      	b.n	100048ee <_vsnprintf+0x92>
10004cb4:	9c0b      	ldr	r4, [sp, #44]	@ 0x2c
10004cb6:	f89a 0002 	ldrb.w	r0, [sl, #2]
10004cba:	f854 7b04 	ldr.w	r7, [r4], #4
10004cbe:	f10a 0a02 	add.w	sl, sl, #2
10004cc2:	f10a 0201 	add.w	r2, sl, #1
10004cc6:	940b      	str	r4, [sp, #44]	@ 0x2c
10004cc8:	ea27 77e7 	bic.w	r7, r7, r7, asr #31
10004ccc:	e60f      	b.n	100048ee <_vsnprintf+0x92>
10004cce:	2a00      	cmp	r2, #0
10004cd0:	f43f af2c 	beq.w	10004b2c <_vsnprintf+0x2d0>
10004cd4:	f107 3cff 	add.w	ip, r7, #4294967295
10004cd8:	e71b      	b.n	10004b12 <_vsnprintf+0x2b6>
10004cda:	f023 0110 	bic.w	r1, r3, #16
10004cde:	f413 6280 	ands.w	r2, r3, #1024	@ 0x400
10004ce2:	f041 0121 	orr.w	r1, r1, #33	@ 0x21
10004ce6:	f43f aed2 	beq.w	10004a8e <_vsnprintf+0x232>
10004cea:	f10d 0e48 	add.w	lr, sp, #72	@ 0x48
10004cee:	2308      	movs	r3, #8
10004cf0:	2010      	movs	r0, #16
10004cf2:	9305      	str	r3, [sp, #20]
10004cf4:	2300      	movs	r3, #0
10004cf6:	464a      	mov	r2, r9
10004cf8:	e9cd 3002 	strd	r3, r0, [sp, #8]
10004cfc:	9106      	str	r1, [sp, #24]
10004cfe:	4658      	mov	r0, fp
10004d00:	e9dd 3109 	ldrd	r3, r1, [sp, #36]	@ 0x24
10004d04:	e9cd e600 	strd	lr, r6, [sp]
10004d08:	9704      	str	r7, [sp, #16]
10004d0a:	f7ff f81f 	bl	10003d4c <_ntoa_format>
10004d0e:	940b      	str	r4, [sp, #44]	@ 0x2c
10004d10:	4681      	mov	r9, r0
10004d12:	e5c2      	b.n	1000489a <_vsnprintf+0x3e>
10004d14:	2858      	cmp	r0, #88	@ 0x58
10004d16:	d079      	beq.n	10004e0c <_vsnprintf+0x5b0>
10004d18:	2862      	cmp	r0, #98	@ 0x62
10004d1a:	f040 8251 	bne.w	100051c0 <_vsnprintf+0x964>
10004d1e:	f04f 0802 	mov.w	r8, #2
10004d22:	46c4      	mov	ip, r8
10004d24:	f413 6080 	ands.w	r0, r3, #1024	@ 0x400
10004d28:	d16d      	bne.n	10004e06 <_vsnprintf+0x5aa>
10004d2a:	f023 030c 	bic.w	r3, r3, #12
10004d2e:	f413 7200 	ands.w	r2, r3, #512	@ 0x200
10004d32:	f040 80c2 	bne.w	10004eba <_vsnprintf+0x65e>
10004d36:	990b      	ldr	r1, [sp, #44]	@ 0x2c
10004d38:	3104      	adds	r1, #4
10004d3a:	910d      	str	r1, [sp, #52]	@ 0x34
10004d3c:	f413 7180 	ands.w	r1, r3, #256	@ 0x100
10004d40:	f040 822e 	bne.w	100051a0 <_vsnprintf+0x944>
10004d44:	065e      	lsls	r6, r3, #25
10004d46:	9a0b      	ldr	r2, [sp, #44]	@ 0x2c
10004d48:	f140 80aa 	bpl.w	10004ea0 <_vsnprintf+0x644>
10004d4c:	7812      	ldrb	r2, [r2, #0]
10004d4e:	2a00      	cmp	r2, #0
10004d50:	f040 80da 	bne.w	10004f08 <_vsnprintf+0x6ac>
10004d54:	f023 0310 	bic.w	r3, r3, #16
10004d58:	2800      	cmp	r0, #0
10004d5a:	f000 80d5 	beq.w	10004f08 <_vsnprintf+0x6ac>
10004d5e:	4611      	mov	r1, r2
10004d60:	f10d 0e48 	add.w	lr, sp, #72	@ 0x48
10004d64:	9306      	str	r3, [sp, #24]
10004d66:	9b0c      	ldr	r3, [sp, #48]	@ 0x30
10004d68:	f8cd c00c 	str.w	ip, [sp, #12]
10004d6c:	e9cd 7304 	strd	r7, r3, [sp, #16]
10004d70:	9101      	str	r1, [sp, #4]
10004d72:	2300      	movs	r3, #0
10004d74:	464a      	mov	r2, r9
10004d76:	9302      	str	r3, [sp, #8]
10004d78:	4658      	mov	r0, fp
10004d7a:	e9dd 3109 	ldrd	r3, r1, [sp, #36]	@ 0x24
10004d7e:	f8cd e000 	str.w	lr, [sp]
10004d82:	f7fe ffe3 	bl	10003d4c <_ntoa_format>
10004d86:	9b0d      	ldr	r3, [sp, #52]	@ 0x34
10004d88:	4681      	mov	r9, r0
10004d8a:	930b      	str	r3, [sp, #44]	@ 0x2c
10004d8c:	e585      	b.n	1000489a <_vsnprintf+0x3e>
10004d8e:	f443 6300 	orr.w	r3, r3, #2048	@ 0x800
10004d92:	e71b      	b.n	10004bcc <_vsnprintf+0x370>
10004d94:	f04f 0808 	mov.w	r8, #8
10004d98:	46c4      	mov	ip, r8
10004d9a:	e7c3      	b.n	10004d24 <_vsnprintf+0x4c8>
10004d9c:	9b0c      	ldr	r3, [sp, #48]	@ 0x30
10004d9e:	464c      	mov	r4, r9
10004da0:	42b3      	cmp	r3, r6
10004da2:	f67f aeed 	bls.w	10004b80 <_vsnprintf+0x324>
10004da6:	460f      	mov	r7, r1
10004da8:	444b      	add	r3, r9
10004daa:	eba3 0906 	sub.w	r9, r3, r6
10004dae:	e9dd 6509 	ldrd	r6, r5, [sp, #36]	@ 0x24
10004db2:	4622      	mov	r2, r4
10004db4:	4633      	mov	r3, r6
10004db6:	4629      	mov	r1, r5
10004db8:	2020      	movs	r0, #32
10004dba:	3401      	adds	r4, #1
10004dbc:	47d8      	blx	fp
10004dbe:	454c      	cmp	r4, r9
10004dc0:	d1f7      	bne.n	10004db2 <_vsnprintf+0x556>
10004dc2:	4639      	mov	r1, r7
10004dc4:	e6dc      	b.n	10004b80 <_vsnprintf+0x324>
10004dc6:	f443 6300 	orr.w	r3, r3, #2048	@ 0x800
10004dca:	f043 0320 	orr.w	r3, r3, #32
10004dce:	e6fd      	b.n	10004bcc <_vsnprintf+0x370>
10004dd0:	460f      	mov	r7, r1
10004dd2:	940b      	str	r4, [sp, #44]	@ 0x2c
10004dd4:	e9dd 5409 	ldrd	r5, r4, [sp, #36]	@ 0x24
10004dd8:	464a      	mov	r2, r9
10004dda:	462b      	mov	r3, r5
10004ddc:	4621      	mov	r1, r4
10004dde:	47d8      	blx	fp
10004de0:	f818 0f01 	ldrb.w	r0, [r8, #1]!
10004de4:	f109 0901 	add.w	r9, r9, #1
10004de8:	2800      	cmp	r0, #0
10004dea:	d1f5      	bne.n	10004dd8 <_vsnprintf+0x57c>
10004dec:	4639      	mov	r1, r7
10004dee:	9c0b      	ldr	r4, [sp, #44]	@ 0x2c
10004df0:	e6c3      	b.n	10004b7a <_vsnprintf+0x31e>
10004df2:	f89a 0002 	ldrb.w	r0, [sl, #2]
10004df6:	f043 03c0 	orr.w	r3, r3, #192	@ 0xc0
10004dfa:	f10a 0203 	add.w	r2, sl, #3
10004dfe:	e5a8      	b.n	10004952 <_vsnprintf+0xf6>
10004e00:	4604      	mov	r4, r0
10004e02:	4681      	mov	r9, r0
10004e04:	e61d      	b.n	10004a42 <_vsnprintf+0x1e6>
10004e06:	f023 030d 	bic.w	r3, r3, #13
10004e0a:	e790      	b.n	10004d2e <_vsnprintf+0x4d2>
10004e0c:	f04f 0810 	mov.w	r8, #16
10004e10:	f043 0320 	orr.w	r3, r3, #32
10004e14:	46c4      	mov	ip, r8
10004e16:	e785      	b.n	10004d24 <_vsnprintf+0x4c8>
10004e18:	9b0c      	ldr	r3, [sp, #48]	@ 0x30
10004e1a:	2b01      	cmp	r3, #1
10004e1c:	d945      	bls.n	10004eaa <_vsnprintf+0x64e>
10004e1e:	e9dd 5409 	ldrd	r5, r4, [sp, #36]	@ 0x24
10004e22:	464e      	mov	r6, r9
10004e24:	f109 38ff 	add.w	r8, r9, #4294967295
10004e28:	4498      	add	r8, r3
10004e2a:	4632      	mov	r2, r6
10004e2c:	462b      	mov	r3, r5
10004e2e:	4621      	mov	r1, r4
10004e30:	2020      	movs	r0, #32
10004e32:	3601      	adds	r6, #1
10004e34:	47d8      	blx	fp
10004e36:	4546      	cmp	r6, r8
10004e38:	d1f7      	bne.n	10004e2a <_vsnprintf+0x5ce>
10004e3a:	9b0c      	ldr	r3, [sp, #48]	@ 0x30
10004e3c:	4632      	mov	r2, r6
10004e3e:	4499      	add	r9, r3
10004e40:	9b0b      	ldr	r3, [sp, #44]	@ 0x2c
10004e42:	7818      	ldrb	r0, [r3, #0]
10004e44:	e9dd 3109 	ldrd	r3, r1, [sp, #36]	@ 0x24
10004e48:	47d8      	blx	fp
10004e4a:	970b      	str	r7, [sp, #44]	@ 0x2c
10004e4c:	e525      	b.n	1000489a <_vsnprintf+0x3e>
10004e4e:	9b0c      	ldr	r3, [sp, #48]	@ 0x30
10004e50:	42b3      	cmp	r3, r6
10004e52:	f240 81ee 	bls.w	10005232 <_vsnprintf+0x9d6>
10004e56:	e9cd 480d 	strd	r4, r8, [sp, #52]	@ 0x34
10004e5a:	e9dd 5409 	ldrd	r5, r4, [sp, #36]	@ 0x24
10004e5e:	4688      	mov	r8, r1
10004e60:	444b      	add	r3, r9
10004e62:	1b9e      	subs	r6, r3, r6
10004e64:	f8cd c02c 	str.w	ip, [sp, #44]	@ 0x2c
10004e68:	464a      	mov	r2, r9
10004e6a:	462b      	mov	r3, r5
10004e6c:	4621      	mov	r1, r4
10004e6e:	2020      	movs	r0, #32
10004e70:	f109 0901 	add.w	r9, r9, #1
10004e74:	47d8      	blx	fp
10004e76:	45b1      	cmp	r9, r6
10004e78:	d1f6      	bne.n	10004e68 <_vsnprintf+0x60c>
10004e7a:	4641      	mov	r1, r8
10004e7c:	f8dd 8038 	ldr.w	r8, [sp, #56]	@ 0x38
10004e80:	9b0c      	ldr	r3, [sp, #48]	@ 0x30
10004e82:	f8dd c02c 	ldr.w	ip, [sp, #44]	@ 0x2c
10004e86:	9c0d      	ldr	r4, [sp, #52]	@ 0x34
10004e88:	f898 2000 	ldrb.w	r2, [r8]
10004e8c:	1c5e      	adds	r6, r3, #1
10004e8e:	4610      	mov	r0, r2
10004e90:	2a00      	cmp	r2, #0
10004e92:	f47f ae58 	bne.w	10004b46 <_vsnprintf+0x2ea>
10004e96:	e673      	b.n	10004b80 <_vsnprintf+0x324>
10004e98:	f04f 0810 	mov.w	r8, #16
10004e9c:	46c4      	mov	ip, r8
10004e9e:	e741      	b.n	10004d24 <_vsnprintf+0x4c8>
10004ea0:	061d      	lsls	r5, r3, #24
10004ea2:	bf4c      	ite	mi
10004ea4:	8812      	ldrhmi	r2, [r2, #0]
10004ea6:	6812      	ldrpl	r2, [r2, #0]
10004ea8:	e751      	b.n	10004d4e <_vsnprintf+0x4f2>
10004eaa:	4613      	mov	r3, r2
10004eac:	464a      	mov	r2, r9
10004eae:	7818      	ldrb	r0, [r3, #0]
10004eb0:	e9dd 3109 	ldrd	r3, r1, [sp, #36]	@ 0x24
10004eb4:	47d8      	blx	fp
10004eb6:	46b1      	mov	r9, r6
10004eb8:	e6dc      	b.n	10004c74 <_vsnprintf+0x418>
10004eba:	9c0b      	ldr	r4, [sp, #44]	@ 0x2c
10004ebc:	3407      	adds	r4, #7
10004ebe:	f024 0407 	bic.w	r4, r4, #7
10004ec2:	4622      	mov	r2, r4
10004ec4:	6865      	ldr	r5, [r4, #4]
10004ec6:	f852 4b08 	ldr.w	r4, [r2], #8
10004eca:	920b      	str	r2, [sp, #44]	@ 0x2c
10004ecc:	ea54 0205 	orrs.w	r2, r4, r5
10004ed0:	f040 812c 	bne.w	1000512c <_vsnprintf+0x8d0>
10004ed4:	f023 0310 	bic.w	r3, r3, #16
10004ed8:	2800      	cmp	r0, #0
10004eda:	f000 8127 	beq.w	1000512c <_vsnprintf+0x8d0>
10004ede:	2600      	movs	r6, #0
10004ee0:	f10d 0e48 	add.w	lr, sp, #72	@ 0x48
10004ee4:	9306      	str	r3, [sp, #24]
10004ee6:	9b0c      	ldr	r3, [sp, #48]	@ 0x30
10004ee8:	464a      	mov	r2, r9
10004eea:	e9cd 7304 	strd	r7, r3, [sp, #16]
10004eee:	2300      	movs	r3, #0
10004ef0:	e9cd e600 	strd	lr, r6, [sp]
10004ef4:	f8cd c00c 	str.w	ip, [sp, #12]
10004ef8:	9302      	str	r3, [sp, #8]
10004efa:	4658      	mov	r0, fp
10004efc:	e9dd 3109 	ldrd	r3, r1, [sp, #36]	@ 0x24
10004f00:	f7fe ff24 	bl	10003d4c <_ntoa_format>
10004f04:	4681      	mov	r9, r0
10004f06:	e4c8      	b.n	1000489a <_vsnprintf+0x3e>
10004f08:	f013 0f20 	tst.w	r3, #32
10004f0c:	bf14      	ite	ne
10004f0e:	2041      	movne	r0, #65	@ 0x41
10004f10:	2061      	moveq	r0, #97	@ 0x61
10004f12:	f10d 0e48 	add.w	lr, sp, #72	@ 0x48
10004f16:	4676      	mov	r6, lr
10004f18:	f1a0 080a 	sub.w	r8, r0, #10
10004f1c:	e003      	b.n	10004f26 <_vsnprintf+0x6ca>
10004f1e:	2920      	cmp	r1, #32
10004f20:	f43f af20 	beq.w	10004d64 <_vsnprintf+0x508>
10004f24:	4622      	mov	r2, r4
10004f26:	fbb2 f4fc 	udiv	r4, r2, ip
10004f2a:	fb0c 2514 	mls	r5, ip, r4, r2
10004f2e:	b2e8      	uxtb	r0, r5
10004f30:	2d09      	cmp	r5, #9
10004f32:	f100 0530 	add.w	r5, r0, #48	@ 0x30
10004f36:	bf8a      	itet	hi
10004f38:	4440      	addhi	r0, r8
10004f3a:	b2e8      	uxtbls	r0, r5
10004f3c:	b2c0      	uxtbhi	r0, r0
10004f3e:	4562      	cmp	r2, ip
10004f40:	f806 0b01 	strb.w	r0, [r6], #1
10004f44:	f101 0101 	add.w	r1, r1, #1
10004f48:	d2e9      	bcs.n	10004f1e <_vsnprintf+0x6c2>
10004f4a:	e70b      	b.n	10004d64 <_vsnprintf+0x508>
10004f4c:	f023 0210 	bic.w	r2, r3, #16
10004f50:	2869      	cmp	r0, #105	@ 0x69
10004f52:	920d      	str	r2, [sp, #52]	@ 0x34
10004f54:	f040 816f 	bne.w	10005236 <_vsnprintf+0x9da>
10004f58:	f413 6280 	ands.w	r2, r3, #1024	@ 0x400
10004f5c:	d004      	beq.n	10004f68 <_vsnprintf+0x70c>
10004f5e:	f44f 6280 	mov.w	r2, #1024	@ 0x400
10004f62:	f023 0311 	bic.w	r3, r3, #17
10004f66:	930d      	str	r3, [sp, #52]	@ 0x34
10004f68:	9b0d      	ldr	r3, [sp, #52]	@ 0x34
10004f6a:	f413 7600 	ands.w	r6, r3, #512	@ 0x200
10004f6e:	d140      	bne.n	10004ff2 <_vsnprintf+0x796>
10004f70:	9b0b      	ldr	r3, [sp, #44]	@ 0x2c
10004f72:	f103 0804 	add.w	r8, r3, #4
10004f76:	9b0d      	ldr	r3, [sp, #52]	@ 0x34
10004f78:	f413 7080 	ands.w	r0, r3, #256	@ 0x100
10004f7c:	f040 8098 	bne.w	100050b0 <_vsnprintf+0x854>
10004f80:	0659      	lsls	r1, r3, #25
10004f82:	f140 80c6 	bpl.w	10005112 <_vsnprintf+0x8b6>
10004f86:	9b0b      	ldr	r3, [sp, #44]	@ 0x2c
10004f88:	7819      	ldrb	r1, [r3, #0]
10004f8a:	460c      	mov	r4, r1
10004f8c:	0fcb      	lsrs	r3, r1, #31
10004f8e:	2900      	cmp	r1, #0
10004f90:	f000 80b9 	beq.w	10005106 <_vsnprintf+0x8aa>
10004f94:	4622      	mov	r2, r4
10004f96:	f10d 0e48 	add.w	lr, sp, #72	@ 0x48
10004f9a:	4674      	mov	r4, lr
10004f9c:	4616      	mov	r6, r2
10004f9e:	f8df c2a0 	ldr.w	ip, [pc, #672]	@ 10005240 <_vsnprintf+0x9e4>
10004fa2:	e001      	b.n	10004fa8 <_vsnprintf+0x74c>
10004fa4:	2820      	cmp	r0, #32
10004fa6:	d00f      	beq.n	10004fc8 <_vsnprintf+0x76c>
10004fa8:	4635      	mov	r5, r6
10004faa:	fbac 2106 	umull	r2, r1, ip, r6
10004fae:	08c9      	lsrs	r1, r1, #3
10004fb0:	eb01 0281 	add.w	r2, r1, r1, lsl #2
10004fb4:	eba6 0242 	sub.w	r2, r6, r2, lsl #1
10004fb8:	3230      	adds	r2, #48	@ 0x30
10004fba:	2d09      	cmp	r5, #9
10004fbc:	460e      	mov	r6, r1
10004fbe:	f100 0001 	add.w	r0, r0, #1
10004fc2:	f804 2b01 	strb.w	r2, [r4], #1
10004fc6:	d8ed      	bhi.n	10004fa4 <_vsnprintf+0x748>
10004fc8:	9a0d      	ldr	r2, [sp, #52]	@ 0x34
10004fca:	e9cd 0301 	strd	r0, r3, [sp, #4]
10004fce:	9206      	str	r2, [sp, #24]
10004fd0:	9a0c      	ldr	r2, [sp, #48]	@ 0x30
10004fd2:	e9cd 7204 	strd	r7, r2, [sp, #16]
10004fd6:	230a      	movs	r3, #10
10004fd8:	464a      	mov	r2, r9
10004fda:	9303      	str	r3, [sp, #12]
10004fdc:	4658      	mov	r0, fp
10004fde:	e9dd 3109 	ldrd	r3, r1, [sp, #36]	@ 0x24
10004fe2:	f8cd e000 	str.w	lr, [sp]
10004fe6:	f7fe feb1 	bl	10003d4c <_ntoa_format>
10004fea:	f8cd 802c 	str.w	r8, [sp, #44]	@ 0x2c
10004fee:	4681      	mov	r9, r0
10004ff0:	e453      	b.n	1000489a <_vsnprintf+0x3e>
10004ff2:	9c0b      	ldr	r4, [sp, #44]	@ 0x2c
10004ff4:	3407      	adds	r4, #7
10004ff6:	f024 0407 	bic.w	r4, r4, #7
10004ffa:	4621      	mov	r1, r4
10004ffc:	4608      	mov	r0, r1
10004ffe:	6863      	ldr	r3, [r4, #4]
10005000:	f850 1b08 	ldr.w	r1, [r0], #8
10005004:	0fdc      	lsrs	r4, r3, #31
10005006:	900b      	str	r0, [sp, #44]	@ 0x2c
10005008:	ea51 0003 	orrs.w	r0, r1, r3
1000500c:	f000 80c3 	beq.w	10005196 <_vsnprintf+0x93a>
10005010:	460a      	mov	r2, r1
10005012:	1e19      	subs	r1, r3, #0
10005014:	db48      	blt.n	100050a8 <_vsnprintf+0x84c>
10005016:	4613      	mov	r3, r2
10005018:	f10d 0e48 	add.w	lr, sp, #72	@ 0x48
1000501c:	46f4      	mov	ip, lr
1000501e:	2600      	movs	r6, #0
10005020:	e9cd 940e 	strd	r9, r4, [sp, #56]	@ 0x38
10005024:	f8df 8218 	ldr.w	r8, [pc, #536]	@ 10005240 <_vsnprintf+0x9e4>
10005028:	e001      	b.n	1000502e <_vsnprintf+0x7d2>
1000502a:	2e20      	cmp	r6, #32
1000502c:	d02d      	beq.n	1000508a <_vsnprintf+0x82e>
1000502e:	185a      	adds	r2, r3, r1
10005030:	f142 0200 	adc.w	r2, r2, #0
10005034:	fba8 5902 	umull	r5, r9, r8, r2
10005038:	f029 0503 	bic.w	r5, r9, #3
1000503c:	eb05 0599 	add.w	r5, r5, r9, lsr #2
10005040:	1b52      	subs	r2, r2, r5
10005042:	461c      	mov	r4, r3
10005044:	1a9b      	subs	r3, r3, r2
10005046:	f161 0500 	sbc.w	r5, r1, #0
1000504a:	4608      	mov	r0, r1
1000504c:	f04f 31cc 	mov.w	r1, #3435973836	@ 0xcccccccc
10005050:	fb01 f103 	mul.w	r1, r1, r3
10005054:	fb08 1105 	mla	r1, r8, r5, r1
10005058:	fba3 5308 	umull	r5, r3, r3, r8
1000505c:	4419      	add	r1, r3
1000505e:	2305      	movs	r3, #5
10005060:	f005 0901 	and.w	r9, r5, #1
10005064:	fba9 3903 	umull	r3, r9, r9, r3
10005068:	189b      	adds	r3, r3, r2
1000506a:	2c0a      	cmp	r4, #10
1000506c:	f103 0330 	add.w	r3, r3, #48	@ 0x30
10005070:	ea4f 0555 	mov.w	r5, r5, lsr #1
10005074:	f170 0000 	sbcs.w	r0, r0, #0
10005078:	f80c 3b01 	strb.w	r3, [ip], #1
1000507c:	f106 0601 	add.w	r6, r6, #1
10005080:	ea45 73c1 	orr.w	r3, r5, r1, lsl #31
10005084:	ea4f 0151 	mov.w	r1, r1, lsr #1
10005088:	d2cf      	bcs.n	1000502a <_vsnprintf+0x7ce>
1000508a:	e9dd 940e 	ldrd	r9, r4, [sp, #56]	@ 0x38
1000508e:	9b0d      	ldr	r3, [sp, #52]	@ 0x34
10005090:	464a      	mov	r2, r9
10005092:	9306      	str	r3, [sp, #24]
10005094:	9b0c      	ldr	r3, [sp, #48]	@ 0x30
10005096:	e9cd 6401 	strd	r6, r4, [sp, #4]
1000509a:	e9cd 7304 	strd	r7, r3, [sp, #16]
1000509e:	230a      	movs	r3, #10
100050a0:	f8cd e000 	str.w	lr, [sp]
100050a4:	9303      	str	r3, [sp, #12]
100050a6:	e728      	b.n	10004efa <_vsnprintf+0x69e>
100050a8:	4252      	negs	r2, r2
100050aa:	eb61 0141 	sbc.w	r1, r1, r1, lsl #1
100050ae:	e7b2      	b.n	10005016 <_vsnprintf+0x7ba>
100050b0:	9b0b      	ldr	r3, [sp, #44]	@ 0x2c
100050b2:	6819      	ldr	r1, [r3, #0]
100050b4:	0fcb      	lsrs	r3, r1, #31
100050b6:	2900      	cmp	r1, #0
100050b8:	f000 80ab 	beq.w	10005212 <_vsnprintf+0x9b6>
100050bc:	ea81 72e1 	eor.w	r2, r1, r1, asr #31
100050c0:	eba2 72e1 	sub.w	r2, r2, r1, asr #31
100050c4:	f10d 0e48 	add.w	lr, sp, #72	@ 0x48
100050c8:	4670      	mov	r0, lr
100050ca:	f8df c174 	ldr.w	ip, [pc, #372]	@ 10005240 <_vsnprintf+0x9e4>
100050ce:	e001      	b.n	100050d4 <_vsnprintf+0x878>
100050d0:	2e20      	cmp	r6, #32
100050d2:	d010      	beq.n	100050f6 <_vsnprintf+0x89a>
100050d4:	4615      	mov	r5, r2
100050d6:	fbac 4102 	umull	r4, r1, ip, r2
100050da:	08c9      	lsrs	r1, r1, #3
100050dc:	eb01 0481 	add.w	r4, r1, r1, lsl #2
100050e0:	eba2 0444 	sub.w	r4, r2, r4, lsl #1
100050e4:	f104 0230 	add.w	r2, r4, #48	@ 0x30
100050e8:	2d09      	cmp	r5, #9
100050ea:	f800 2b01 	strb.w	r2, [r0], #1
100050ee:	f106 0601 	add.w	r6, r6, #1
100050f2:	460a      	mov	r2, r1
100050f4:	d8ec      	bhi.n	100050d0 <_vsnprintf+0x874>
100050f6:	9a0d      	ldr	r2, [sp, #52]	@ 0x34
100050f8:	e9cd 6301 	strd	r6, r3, [sp, #4]
100050fc:	9206      	str	r2, [sp, #24]
100050fe:	9a0c      	ldr	r2, [sp, #48]	@ 0x30
10005100:	e9cd 7204 	strd	r7, r2, [sp, #16]
10005104:	e767      	b.n	10004fd6 <_vsnprintf+0x77a>
10005106:	2a00      	cmp	r2, #0
10005108:	f43f af45 	beq.w	10004f96 <_vsnprintf+0x73a>
1000510c:	f10d 0e48 	add.w	lr, sp, #72	@ 0x48
10005110:	e75a      	b.n	10004fc8 <_vsnprintf+0x76c>
10005112:	f013 0f80 	tst.w	r3, #128	@ 0x80
10005116:	9b0b      	ldr	r3, [sp, #44]	@ 0x2c
10005118:	f000 8081 	beq.w	1000521e <_vsnprintf+0x9c2>
1000511c:	f9b3 1000 	ldrsh.w	r1, [r3]
10005120:	ea81 74e1 	eor.w	r4, r1, r1, asr #31
10005124:	eba4 74e1 	sub.w	r4, r4, r1, asr #31
10005128:	b2a4      	uxth	r4, r4
1000512a:	e72f      	b.n	10004f8c <_vsnprintf+0x730>
1000512c:	f013 0f20 	tst.w	r3, #32
10005130:	bf14      	ite	ne
10005132:	2241      	movne	r2, #65	@ 0x41
10005134:	2261      	moveq	r2, #97	@ 0x61
10005136:	f10d 0e48 	add.w	lr, sp, #72	@ 0x48
1000513a:	3a0a      	subs	r2, #10
1000513c:	e9cd 970d 	strd	r9, r7, [sp, #52]	@ 0x34
10005140:	f8cd b044 	str.w	fp, [sp, #68]	@ 0x44
10005144:	2600      	movs	r6, #0
10005146:	4677      	mov	r7, lr
10005148:	46f3      	mov	fp, lr
1000514a:	4691      	mov	r9, r2
1000514c:	e9cd 3c0f 	strd	r3, ip, [sp, #60]	@ 0x3c
10005150:	e003      	b.n	1000515a <_vsnprintf+0x8fe>
10005152:	2e20      	cmp	r6, #32
10005154:	d017      	beq.n	10005186 <_vsnprintf+0x92a>
10005156:	4604      	mov	r4, r0
10005158:	460d      	mov	r5, r1
1000515a:	4629      	mov	r1, r5
1000515c:	4642      	mov	r2, r8
1000515e:	2300      	movs	r3, #0
10005160:	4620      	mov	r0, r4
10005162:	f006 ff9d 	bl	1000c0a0 <____aeabi_uldivmod_veneer>
10005166:	b2d2      	uxtb	r2, r2
10005168:	2a09      	cmp	r2, #9
1000516a:	f102 0330 	add.w	r3, r2, #48	@ 0x30
1000516e:	bf88      	it	hi
10005170:	eb02 0309 	addhi.w	r3, r2, r9
10005174:	4544      	cmp	r4, r8
10005176:	b2db      	uxtb	r3, r3
10005178:	f175 0500 	sbcs.w	r5, r5, #0
1000517c:	f807 3b01 	strb.w	r3, [r7], #1
10005180:	f106 0601 	add.w	r6, r6, #1
10005184:	d2e5      	bcs.n	10005152 <_vsnprintf+0x8f6>
10005186:	46de      	mov	lr, fp
10005188:	e9dd 970d 	ldrd	r9, r7, [sp, #52]	@ 0x34
1000518c:	e9dd 3c0f 	ldrd	r3, ip, [sp, #60]	@ 0x3c
10005190:	f8dd b044 	ldr.w	fp, [sp, #68]	@ 0x44
10005194:	e6a6      	b.n	10004ee4 <_vsnprintf+0x688>
10005196:	2a00      	cmp	r2, #0
10005198:	d147      	bne.n	1000522a <_vsnprintf+0x9ce>
1000519a:	4613      	mov	r3, r2
1000519c:	4611      	mov	r1, r2
1000519e:	e73b      	b.n	10005018 <_vsnprintf+0x7bc>
100051a0:	990b      	ldr	r1, [sp, #44]	@ 0x2c
100051a2:	6809      	ldr	r1, [r1, #0]
100051a4:	b9a1      	cbnz	r1, 100051d0 <_vsnprintf+0x974>
100051a6:	f023 0310 	bic.w	r3, r3, #16
100051aa:	b188      	cbz	r0, 100051d0 <_vsnprintf+0x974>
100051ac:	f10d 0e48 	add.w	lr, sp, #72	@ 0x48
100051b0:	9306      	str	r3, [sp, #24]
100051b2:	9b0c      	ldr	r3, [sp, #48]	@ 0x30
100051b4:	f8cd c00c 	str.w	ip, [sp, #12]
100051b8:	e9cd 7304 	strd	r7, r3, [sp, #16]
100051bc:	9201      	str	r2, [sp, #4]
100051be:	e5d8      	b.n	10004d72 <_vsnprintf+0x516>
100051c0:	f413 6280 	ands.w	r2, r3, #1024	@ 0x400
100051c4:	f47f aecb 	bne.w	10004f5e <_vsnprintf+0x702>
100051c8:	f023 0310 	bic.w	r3, r3, #16
100051cc:	930d      	str	r3, [sp, #52]	@ 0x34
100051ce:	e6cb      	b.n	10004f68 <_vsnprintf+0x70c>
100051d0:	f013 0f20 	tst.w	r3, #32
100051d4:	bf14      	ite	ne
100051d6:	2041      	movne	r0, #65	@ 0x41
100051d8:	2061      	moveq	r0, #97	@ 0x61
100051da:	f10d 0e48 	add.w	lr, sp, #72	@ 0x48
100051de:	4676      	mov	r6, lr
100051e0:	f1a0 080a 	sub.w	r8, r0, #10
100051e4:	e002      	b.n	100051ec <_vsnprintf+0x990>
100051e6:	2a20      	cmp	r2, #32
100051e8:	d0e2      	beq.n	100051b0 <_vsnprintf+0x954>
100051ea:	4621      	mov	r1, r4
100051ec:	fbb1 f4fc 	udiv	r4, r1, ip
100051f0:	fb0c 1514 	mls	r5, ip, r4, r1
100051f4:	b2e8      	uxtb	r0, r5
100051f6:	2d09      	cmp	r5, #9
100051f8:	f100 0530 	add.w	r5, r0, #48	@ 0x30
100051fc:	bf8a      	itet	hi
100051fe:	4440      	addhi	r0, r8
10005200:	b2e8      	uxtbls	r0, r5
10005202:	b2c0      	uxtbhi	r0, r0
10005204:	4561      	cmp	r1, ip
10005206:	f806 0b01 	strb.w	r0, [r6], #1
1000520a:	f102 0201 	add.w	r2, r2, #1
1000520e:	d2ea      	bcs.n	100051e6 <_vsnprintf+0x98a>
10005210:	e7ce      	b.n	100051b0 <_vsnprintf+0x954>
10005212:	2a00      	cmp	r2, #0
10005214:	f43f af56 	beq.w	100050c4 <_vsnprintf+0x868>
10005218:	f10d 0e48 	add.w	lr, sp, #72	@ 0x48
1000521c:	e76b      	b.n	100050f6 <_vsnprintf+0x89a>
1000521e:	6819      	ldr	r1, [r3, #0]
10005220:	ea81 74e1 	eor.w	r4, r1, r1, asr #31
10005224:	eba4 74e1 	sub.w	r4, r4, r1, asr #31
10005228:	e6b0      	b.n	10004f8c <_vsnprintf+0x730>
1000522a:	2600      	movs	r6, #0
1000522c:	f10d 0e48 	add.w	lr, sp, #72	@ 0x48
10005230:	e72d      	b.n	1000508e <_vsnprintf+0x832>
10005232:	3601      	adds	r6, #1
10005234:	e62b      	b.n	10004e8e <_vsnprintf+0x632>
10005236:	f04f 080a 	mov.w	r8, #10
1000523a:	4613      	mov	r3, r2
1000523c:	46c4      	mov	ip, r8
1000523e:	e571      	b.n	10004d24 <_vsnprintf+0x4c8>
10005240:	cccccccd 	.word	0xcccccccd

10005244 <__wrap_sprintf>:
10005244:	b40e      	push	{r1, r2, r3}
10005246:	b510      	push	{r4, lr}
10005248:	b085      	sub	sp, #20
1000524a:	ac07      	add	r4, sp, #28
1000524c:	f854 3b04 	ldr.w	r3, [r4], #4
10005250:	4601      	mov	r1, r0
10005252:	f04f 32ff 	mov.w	r2, #4294967295
10005256:	9400      	str	r4, [sp, #0]
10005258:	4804      	ldr	r0, [pc, #16]	@ (1000526c <__wrap_sprintf+0x28>)
1000525a:	9403      	str	r4, [sp, #12]
1000525c:	f7ff fafe 	bl	1000485c <_vsnprintf>
10005260:	b005      	add	sp, #20
10005262:	e8bd 4010 	ldmia.w	sp!, {r4, lr}
10005266:	b003      	add	sp, #12
10005268:	4770      	bx	lr
1000526a:	bf00      	nop
1000526c:	10003ca5 	.word	0x10003ca5

10005270 <vfctprintf>:
10005270:	b570      	push	{r4, r5, r6, lr}
10005272:	4694      	mov	ip, r2
10005274:	461e      	mov	r6, r3
10005276:	4605      	mov	r5, r0
10005278:	460c      	mov	r4, r1
1000527a:	b084      	sub	sp, #16
1000527c:	f04f 32ff 	mov.w	r2, #4294967295
10005280:	4663      	mov	r3, ip
10005282:	a902      	add	r1, sp, #8
10005284:	9600      	str	r6, [sp, #0]
10005286:	4803      	ldr	r0, [pc, #12]	@ (10005294 <vfctprintf+0x24>)
10005288:	e9cd 5402 	strd	r5, r4, [sp, #8]
1000528c:	f7ff fae6 	bl	1000485c <_vsnprintf>
10005290:	b004      	add	sp, #16
10005292:	bd70      	pop	{r4, r5, r6, pc}
10005294:	10003ff9 	.word	0x10003ff9

10005298 <weak_raw_printf>:
10005298:	b40f      	push	{r0, r1, r2, r3}
1000529a:	b510      	push	{r4, lr}
1000529c:	4b0e      	ldr	r3, [pc, #56]	@ (100052d8 <weak_raw_printf+0x40>)
1000529e:	b084      	sub	sp, #16
100052a0:	a906      	add	r1, sp, #24
100052a2:	681c      	ldr	r4, [r3, #0]
100052a4:	f851 3b04 	ldr.w	r3, [r1], #4
100052a8:	9103      	str	r1, [sp, #12]
100052aa:	b15c      	cbz	r4, 100052c4 <weak_raw_printf+0x2c>
100052ac:	9100      	str	r1, [sp, #0]
100052ae:	f04f 32ff 	mov.w	r2, #4294967295
100052b2:	a902      	add	r1, sp, #8
100052b4:	4809      	ldr	r0, [pc, #36]	@ (100052dc <weak_raw_printf+0x44>)
100052b6:	47a0      	blx	r4
100052b8:	2001      	movs	r0, #1
100052ba:	b004      	add	sp, #16
100052bc:	e8bd 4010 	ldmia.w	sp!, {r4, lr}
100052c0:	b004      	add	sp, #16
100052c2:	4770      	bx	lr
100052c4:	4618      	mov	r0, r3
100052c6:	f000 fa81 	bl	100057cc <__wrap_puts>
100052ca:	4620      	mov	r0, r4
100052cc:	b004      	add	sp, #16
100052ce:	e8bd 4010 	ldmia.w	sp!, {r4, lr}
100052d2:	b004      	add	sp, #16
100052d4:	4770      	bx	lr
100052d6:	bf00      	nop
100052d8:	20001304 	.word	0x20001304
100052dc:	10003ff1 	.word	0x10003ff1

100052e0 <weak_raw_vprintf>:
100052e0:	b510      	push	{r4, lr}
100052e2:	4b09      	ldr	r3, [pc, #36]	@ (10005308 <weak_raw_vprintf+0x28>)
100052e4:	b084      	sub	sp, #16
100052e6:	681c      	ldr	r4, [r3, #0]
100052e8:	b14c      	cbz	r4, 100052fe <weak_raw_vprintf+0x1e>
100052ea:	4603      	mov	r3, r0
100052ec:	9100      	str	r1, [sp, #0]
100052ee:	f04f 32ff 	mov.w	r2, #4294967295
100052f2:	a903      	add	r1, sp, #12
100052f4:	4805      	ldr	r0, [pc, #20]	@ (1000530c <weak_raw_vprintf+0x2c>)
100052f6:	47a0      	blx	r4
100052f8:	2001      	movs	r0, #1
100052fa:	b004      	add	sp, #16
100052fc:	bd10      	pop	{r4, pc}
100052fe:	f000 fa65 	bl	100057cc <__wrap_puts>
10005302:	4620      	mov	r0, r4
10005304:	b004      	add	sp, #16
10005306:	bd10      	pop	{r4, pc}
10005308:	20001304 	.word	0x20001304
1000530c:	10003ff1 	.word	0x10003ff1

10005310 <_exit>:
10005310:	be00      	bkpt	0x0000
10005312:	e7fd      	b.n	10005310 <_exit>

10005314 <_sbrk>:
10005314:	4a07      	ldr	r2, [pc, #28]	@ (10005334 <_sbrk+0x20>)
10005316:	4603      	mov	r3, r0
10005318:	6810      	ldr	r0, [r2, #0]
1000531a:	b138      	cbz	r0, 1000532c <_sbrk+0x18>
1000531c:	4906      	ldr	r1, [pc, #24]	@ (10005338 <_sbrk+0x24>)
1000531e:	4403      	add	r3, r0
10005320:	428b      	cmp	r3, r1
10005322:	bf8c      	ite	hi
10005324:	f04f 30ff 	movhi.w	r0, #4294967295
10005328:	6013      	strls	r3, [r2, #0]
1000532a:	4770      	bx	lr
1000532c:	4903      	ldr	r1, [pc, #12]	@ (1000533c <_sbrk+0x28>)
1000532e:	4608      	mov	r0, r1
10005330:	6011      	str	r1, [r2, #0]
10005332:	e7f3      	b.n	1000531c <_sbrk+0x8>
10005334:	20001300 	.word	0x20001300
10005338:	20080000 	.word	0x20080000
1000533c:	20001398 	.word	0x20001398

10005340 <_read>:
10005340:	4603      	mov	r3, r0
10005342:	4608      	mov	r0, r1
10005344:	4611      	mov	r1, r2
10005346:	b923      	cbnz	r3, 10005352 <_read+0x12>
10005348:	4b03      	ldr	r3, [pc, #12]	@ (10005358 <_read+0x18>)
1000534a:	e9d3 2300 	ldrd	r2, r3, [r3]
1000534e:	f000 b959 	b.w	10005604 <stdio_get_until>
10005352:	f04f 30ff 	mov.w	r0, #4294967295
10005356:	4770      	bx	lr
10005358:	1000c798 	.word	0x1000c798

1000535c <_write>:
1000535c:	1e43      	subs	r3, r0, #1
1000535e:	2b01      	cmp	r3, #1
10005360:	d809      	bhi.n	10005376 <_write+0x1a>
10005362:	b510      	push	{r4, lr}
10005364:	4614      	mov	r4, r2
10005366:	4608      	mov	r0, r1
10005368:	2301      	movs	r3, #1
1000536a:	2200      	movs	r2, #0
1000536c:	4621      	mov	r1, r4
1000536e:	f000 f8d1 	bl	10005514 <stdio_put_string>
10005372:	4620      	mov	r0, r4
10005374:	bd10      	pop	{r4, pc}
10005376:	f04f 30ff 	mov.w	r0, #4294967295
1000537a:	4770      	bx	lr

1000537c <_close>:
1000537c:	f04f 30ff 	mov.w	r0, #4294967295
10005380:	4770      	bx	lr
10005382:	bf00      	nop

10005384 <_lseek>:
10005384:	f04f 30ff 	mov.w	r0, #4294967295
10005388:	4770      	bx	lr
1000538a:	bf00      	nop

1000538c <_fstat>:
1000538c:	f04f 30ff 	mov.w	r0, #4294967295
10005390:	4770      	bx	lr
10005392:	bf00      	nop

10005394 <_isatty>:
10005394:	2802      	cmp	r0, #2
10005396:	bf8c      	ite	hi
10005398:	2000      	movhi	r0, #0
1000539a:	2001      	movls	r0, #1
1000539c:	4770      	bx	lr
1000539e:	bf00      	nop

100053a0 <exit>:
100053a0:	b508      	push	{r3, lr}
100053a2:	f7ff ffb5 	bl	10005310 <_exit>
100053a6:	bf00      	nop

100053a8 <__assert_func>:
100053a8:	469c      	mov	ip, r3
100053aa:	4614      	mov	r4, r2
100053ac:	b500      	push	{lr}
100053ae:	460b      	mov	r3, r1
100053b0:	4602      	mov	r2, r0
100053b2:	4661      	mov	r1, ip
100053b4:	b083      	sub	sp, #12
100053b6:	b144      	cbz	r4, 100053ca <__assert_func+0x22>
100053b8:	4d05      	ldr	r5, [pc, #20]	@ (100053d0 <__assert_func+0x28>)
100053ba:	4806      	ldr	r0, [pc, #24]	@ (100053d4 <__assert_func+0x2c>)
100053bc:	9401      	str	r4, [sp, #4]
100053be:	9500      	str	r5, [sp, #0]
100053c0:	f7ff ff6a 	bl	10005298 <weak_raw_printf>
100053c4:	2001      	movs	r0, #1
100053c6:	f7ff ffa3 	bl	10005310 <_exit>
100053ca:	4d03      	ldr	r5, [pc, #12]	@ (100053d8 <__assert_func+0x30>)
100053cc:	462c      	mov	r4, r5
100053ce:	e7f4      	b.n	100053ba <__assert_func+0x12>
100053d0:	1000c5b8 	.word	0x1000c5b8
100053d4:	1000c5c8 	.word	0x1000c5c8
100053d8:	1000c214 	.word	0x1000c214

100053dc <runtime_init>:
100053dc:	b538      	push	{r3, r4, r5, lr}
100053de:	4c06      	ldr	r4, [pc, #24]	@ (100053f8 <runtime_init+0x1c>)
100053e0:	4d06      	ldr	r5, [pc, #24]	@ (100053fc <runtime_init+0x20>)
100053e2:	f7fe f875 	bl	100034d0 <runtime_run_initializers>
100053e6:	42ac      	cmp	r4, r5
100053e8:	d204      	bcs.n	100053f4 <runtime_init+0x18>
100053ea:	f854 3b04 	ldr.w	r3, [r4], #4
100053ee:	4798      	blx	r3
100053f0:	42ac      	cmp	r4, r5
100053f2:	d3fa      	bcc.n	100053ea <runtime_init+0xe>
100053f4:	bd38      	pop	{r3, r4, r5, pc}
100053f6:	bf00      	nop
100053f8:	1000c108 	.word	0x1000c108
100053fc:	1000c110 	.word	0x1000c110

10005400 <stdio_out_chars_no_crlf>:
10005400:	6803      	ldr	r3, [r0, #0]
10005402:	4608      	mov	r0, r1
10005404:	4611      	mov	r1, r2
10005406:	4718      	bx	r3

10005408 <stdio_out_chars_crlf>:
10005408:	7d43      	ldrb	r3, [r0, #21]
1000540a:	e92d 47f0 	stmdb	sp!, {r4, r5, r6, r7, r8, r9, sl, lr}
1000540e:	4681      	mov	r9, r0
10005410:	460f      	mov	r7, r1
10005412:	4616      	mov	r6, r2
10005414:	2b00      	cmp	r3, #0
10005416:	d043      	beq.n	100054a0 <stdio_out_chars_crlf+0x98>
10005418:	2a00      	cmp	r2, #0
1000541a:	dd3b      	ble.n	10005494 <stdio_out_chars_crlf+0x8c>
1000541c:	7d03      	ldrb	r3, [r0, #20]
1000541e:	2000      	movs	r0, #0
10005420:	1e4d      	subs	r5, r1, #1
10005422:	4601      	mov	r1, r0
10005424:	f815 2f01 	ldrb.w	r2, [r5, #1]!
10005428:	f8df 8084 	ldr.w	r8, [pc, #132]	@ 100054b0 <stdio_out_chars_crlf+0xa8>
1000542c:	2a0a      	cmp	r2, #10
1000542e:	f101 0401 	add.w	r4, r1, #1
10005432:	d00e      	beq.n	10005452 <stdio_out_chars_crlf+0x4a>
10005434:	42a6      	cmp	r6, r4
10005436:	d01c      	beq.n	10005472 <stdio_out_chars_crlf+0x6a>
10005438:	782b      	ldrb	r3, [r5, #0]
1000543a:	4621      	mov	r1, r4
1000543c:	f1a3 030d 	sub.w	r3, r3, #13
10005440:	fab3 f383 	clz	r3, r3
10005444:	f815 2f01 	ldrb.w	r2, [r5, #1]!
10005448:	095b      	lsrs	r3, r3, #5
1000544a:	2a0a      	cmp	r2, #10
1000544c:	f101 0401 	add.w	r4, r1, #1
10005450:	d1f0      	bne.n	10005434 <stdio_out_chars_crlf+0x2c>
10005452:	2b00      	cmp	r3, #0
10005454:	d1ee      	bne.n	10005434 <stdio_out_chars_crlf+0x2c>
10005456:	4281      	cmp	r1, r0
10005458:	eba1 0100 	sub.w	r1, r1, r0
1000545c:	4438      	add	r0, r7
1000545e:	dc1b      	bgt.n	10005498 <stdio_out_chars_crlf+0x90>
10005460:	2102      	movs	r1, #2
10005462:	4640      	mov	r0, r8
10005464:	f8d9 3000 	ldr.w	r3, [r9]
10005468:	4798      	blx	r3
1000546a:	42a6      	cmp	r6, r4
1000546c:	d008      	beq.n	10005480 <stdio_out_chars_crlf+0x78>
1000546e:	4620      	mov	r0, r4
10005470:	e7e2      	b.n	10005438 <stdio_out_chars_crlf+0x30>
10005472:	4286      	cmp	r6, r0
10005474:	dd04      	ble.n	10005480 <stdio_out_chars_crlf+0x78>
10005476:	1a31      	subs	r1, r6, r0
10005478:	f8d9 3000 	ldr.w	r3, [r9]
1000547c:	4438      	add	r0, r7
1000547e:	4798      	blx	r3
10005480:	4437      	add	r7, r6
10005482:	f817 3c01 	ldrb.w	r3, [r7, #-1]
10005486:	f1a3 030d 	sub.w	r3, r3, #13
1000548a:	fab3 f383 	clz	r3, r3
1000548e:	095b      	lsrs	r3, r3, #5
10005490:	f889 3014 	strb.w	r3, [r9, #20]
10005494:	e8bd 87f0 	ldmia.w	sp!, {r4, r5, r6, r7, r8, r9, sl, pc}
10005498:	f8d9 3000 	ldr.w	r3, [r9]
1000549c:	4798      	blx	r3
1000549e:	e7df      	b.n	10005460 <stdio_out_chars_crlf+0x58>
100054a0:	4638      	mov	r0, r7
100054a2:	f8d9 3000 	ldr.w	r3, [r9]
100054a6:	4611      	mov	r1, r2
100054a8:	e8bd 47f0 	ldmia.w	sp!, {r4, r5, r6, r7, r8, r9, sl, lr}
100054ac:	4718      	bx	r3
100054ae:	bf00      	nop
100054b0:	1000c848 	.word	0x1000c848

100054b4 <stdio_buffered_printer>:
100054b4:	680b      	ldr	r3, [r1, #0]
100054b6:	e92d 41f0 	stmdb	sp!, {r4, r5, r6, r7, r8, lr}
100054ba:	2b80      	cmp	r3, #128	@ 0x80
100054bc:	460d      	mov	r5, r1
100054be:	4606      	mov	r6, r0
100054c0:	d005      	beq.n	100054ce <stdio_buffered_printer+0x1a>
100054c2:	1c5a      	adds	r2, r3, #1
100054c4:	442b      	add	r3, r5
100054c6:	602a      	str	r2, [r5, #0]
100054c8:	711e      	strb	r6, [r3, #4]
100054ca:	e8bd 81f0 	ldmia.w	sp!, {r4, r5, r6, r7, r8, pc}
100054ce:	4b0f      	ldr	r3, [pc, #60]	@ (1000550c <stdio_buffered_printer+0x58>)
100054d0:	681c      	ldr	r4, [r3, #0]
100054d2:	b1a4      	cbz	r4, 100054fe <stdio_buffered_printer+0x4a>
100054d4:	4f0e      	ldr	r7, [pc, #56]	@ (10005510 <stdio_buffered_printer+0x5c>)
100054d6:	f101 0804 	add.w	r8, r1, #4
100054da:	e001      	b.n	100054e0 <stdio_buffered_printer+0x2c>
100054dc:	6924      	ldr	r4, [r4, #16]
100054de:	b174      	cbz	r4, 100054fe <stdio_buffered_printer+0x4a>
100054e0:	6823      	ldr	r3, [r4, #0]
100054e2:	2b00      	cmp	r3, #0
100054e4:	d0fa      	beq.n	100054dc <stdio_buffered_printer+0x28>
100054e6:	683b      	ldr	r3, [r7, #0]
100054e8:	b10b      	cbz	r3, 100054ee <stdio_buffered_printer+0x3a>
100054ea:	42a3      	cmp	r3, r4
100054ec:	d1f6      	bne.n	100054dc <stdio_buffered_printer+0x28>
100054ee:	4620      	mov	r0, r4
100054f0:	4641      	mov	r1, r8
100054f2:	682a      	ldr	r2, [r5, #0]
100054f4:	f7ff ff88 	bl	10005408 <stdio_out_chars_crlf>
100054f8:	6924      	ldr	r4, [r4, #16]
100054fa:	2c00      	cmp	r4, #0
100054fc:	d1f0      	bne.n	100054e0 <stdio_buffered_printer+0x2c>
100054fe:	2300      	movs	r3, #0
10005500:	2201      	movs	r2, #1
10005502:	442b      	add	r3, r5
10005504:	602a      	str	r2, [r5, #0]
10005506:	711e      	strb	r6, [r3, #4]
10005508:	e8bd 81f0 	ldmia.w	sp!, {r4, r5, r6, r7, r8, pc}
1000550c:	200012f4 	.word	0x200012f4
10005510:	200012fc 	.word	0x200012fc

10005514 <stdio_put_string>:
10005514:	e92d 47f0 	stmdb	sp!, {r4, r5, r6, r7, r8, r9, sl, lr}
10005518:	b082      	sub	sp, #8
1000551a:	460d      	mov	r5, r1
1000551c:	4692      	mov	sl, r2
1000551e:	4699      	mov	r9, r3
10005520:	4607      	mov	r7, r0
10005522:	f7fd fdbf 	bl	100030a4 <time_us_64>
10005526:	f04f 36ff 	mov.w	r6, #4294967295
1000552a:	f06f 4400 	mvn.w	r4, #2147483648	@ 0x80000000
1000552e:	4a2f      	ldr	r2, [pc, #188]	@ (100055ec <stdio_put_string+0xd8>)
10005530:	1882      	adds	r2, r0, r2
10005532:	f141 0300 	adc.w	r3, r1, #0
10005536:	4296      	cmp	r6, r2
10005538:	eb74 0103 	sbcs.w	r1, r4, r3
1000553c:	bf3c      	itt	cc
1000553e:	4632      	movcc	r2, r6
10005540:	4623      	movcc	r3, r4
10005542:	482b      	ldr	r0, [pc, #172]	@ (100055f0 <stdio_put_string+0xdc>)
10005544:	f006 fdb4 	bl	1000c0b0 <__mutex_try_enter_block_until_veneer>
10005548:	1c6b      	adds	r3, r5, #1
1000554a:	4680      	mov	r8, r0
1000554c:	d103      	bne.n	10005556 <stdio_put_string+0x42>
1000554e:	4638      	mov	r0, r7
10005550:	f001 fbb6 	bl	10006cc0 <strlen>
10005554:	4605      	mov	r5, r0
10005556:	4b27      	ldr	r3, [pc, #156]	@ (100055f4 <stdio_put_string+0xe0>)
10005558:	4e27      	ldr	r6, [pc, #156]	@ (100055f8 <stdio_put_string+0xe4>)
1000555a:	681c      	ldr	r4, [r3, #0]
1000555c:	4b27      	ldr	r3, [pc, #156]	@ (100055fc <stdio_put_string+0xe8>)
1000555e:	f1b9 0f00 	cmp.w	r9, #0
10005562:	bf18      	it	ne
10005564:	461e      	movne	r6, r3
10005566:	b1b4      	cbz	r4, 10005596 <stdio_put_string+0x82>
10005568:	f1ba 0f00 	cmp.w	sl, #0
1000556c:	d11a      	bne.n	100055a4 <stdio_put_string+0x90>
1000556e:	f8df 9090 	ldr.w	r9, [pc, #144]	@ 10005600 <stdio_put_string+0xec>
10005572:	e001      	b.n	10005578 <stdio_put_string+0x64>
10005574:	6924      	ldr	r4, [r4, #16]
10005576:	b174      	cbz	r4, 10005596 <stdio_put_string+0x82>
10005578:	6823      	ldr	r3, [r4, #0]
1000557a:	2b00      	cmp	r3, #0
1000557c:	d0fa      	beq.n	10005574 <stdio_put_string+0x60>
1000557e:	f8d9 3000 	ldr.w	r3, [r9]
10005582:	b10b      	cbz	r3, 10005588 <stdio_put_string+0x74>
10005584:	429c      	cmp	r4, r3
10005586:	d1f5      	bne.n	10005574 <stdio_put_string+0x60>
10005588:	4620      	mov	r0, r4
1000558a:	462a      	mov	r2, r5
1000558c:	4639      	mov	r1, r7
1000558e:	47b0      	blx	r6
10005590:	6924      	ldr	r4, [r4, #16]
10005592:	2c00      	cmp	r4, #0
10005594:	d1f0      	bne.n	10005578 <stdio_put_string+0x64>
10005596:	f1b8 0f00 	cmp.w	r8, #0
1000559a:	d11f      	bne.n	100055dc <stdio_put_string+0xc8>
1000559c:	4628      	mov	r0, r5
1000559e:	b002      	add	sp, #8
100055a0:	e8bd 87f0 	ldmia.w	sp!, {r4, r5, r6, r7, r8, r9, sl, pc}
100055a4:	f04f 0a0a 	mov.w	sl, #10
100055a8:	f8df 9054 	ldr.w	r9, [pc, #84]	@ 10005600 <stdio_put_string+0xec>
100055ac:	e002      	b.n	100055b4 <stdio_put_string+0xa0>
100055ae:	6924      	ldr	r4, [r4, #16]
100055b0:	2c00      	cmp	r4, #0
100055b2:	d0f0      	beq.n	10005596 <stdio_put_string+0x82>
100055b4:	6823      	ldr	r3, [r4, #0]
100055b6:	2b00      	cmp	r3, #0
100055b8:	d0f9      	beq.n	100055ae <stdio_put_string+0x9a>
100055ba:	f8d9 3000 	ldr.w	r3, [r9]
100055be:	b10b      	cbz	r3, 100055c4 <stdio_put_string+0xb0>
100055c0:	42a3      	cmp	r3, r4
100055c2:	d1f4      	bne.n	100055ae <stdio_put_string+0x9a>
100055c4:	462a      	mov	r2, r5
100055c6:	4639      	mov	r1, r7
100055c8:	4620      	mov	r0, r4
100055ca:	47b0      	blx	r6
100055cc:	2201      	movs	r2, #1
100055ce:	4620      	mov	r0, r4
100055d0:	f10d 0107 	add.w	r1, sp, #7
100055d4:	f88d a007 	strb.w	sl, [sp, #7]
100055d8:	47b0      	blx	r6
100055da:	e7e8      	b.n	100055ae <stdio_put_string+0x9a>
100055dc:	4804      	ldr	r0, [pc, #16]	@ (100055f0 <stdio_put_string+0xdc>)
100055de:	f006 fd63 	bl	1000c0a8 <__mutex_exit_veneer>
100055e2:	4628      	mov	r0, r5
100055e4:	b002      	add	sp, #8
100055e6:	e8bd 87f0 	ldmia.w	sp!, {r4, r5, r6, r7, r8, r9, sl, pc}
100055ea:	bf00      	nop
100055ec:	000f4240 	.word	0x000f4240
100055f0:	20000dc8 	.word	0x20000dc8
100055f4:	200012f4 	.word	0x200012f4
100055f8:	10005401 	.word	0x10005401
100055fc:	10005409 	.word	0x10005409
10005600:	200012fc 	.word	0x200012fc

10005604 <stdio_get_until>:
10005604:	e92d 4ff0 	stmdb	sp!, {r4, r5, r6, r7, r8, r9, sl, fp, lr}
10005608:	4698      	mov	r8, r3
1000560a:	4607      	mov	r7, r0
1000560c:	460e      	mov	r6, r1
1000560e:	b083      	sub	sp, #12
10005610:	f8df b060 	ldr.w	fp, [pc, #96]	@ 10005674 <stdio_get_until+0x70>
10005614:	f8df 9060 	ldr.w	r9, [pc, #96]	@ 10005678 <stdio_get_until+0x74>
10005618:	f8df a060 	ldr.w	sl, [pc, #96]	@ 1000567c <stdio_get_until+0x78>
1000561c:	9201      	str	r2, [sp, #4]
1000561e:	f8db 4000 	ldr.w	r4, [fp]
10005622:	b914      	cbnz	r4, 1000562a <stdio_get_until+0x26>
10005624:	e011      	b.n	1000564a <stdio_get_until+0x46>
10005626:	6924      	ldr	r4, [r4, #16]
10005628:	b17c      	cbz	r4, 1000564a <stdio_get_until+0x46>
1000562a:	f8d9 5000 	ldr.w	r5, [r9]
1000562e:	b10d      	cbz	r5, 10005634 <stdio_get_until+0x30>
10005630:	42a5      	cmp	r5, r4
10005632:	d1f8      	bne.n	10005626 <stdio_get_until+0x22>
10005634:	68a2      	ldr	r2, [r4, #8]
10005636:	2a00      	cmp	r2, #0
10005638:	d0f5      	beq.n	10005626 <stdio_get_until+0x22>
1000563a:	4631      	mov	r1, r6
1000563c:	4638      	mov	r0, r7
1000563e:	4790      	blx	r2
10005640:	2800      	cmp	r0, #0
10005642:	ddf0      	ble.n	10005626 <stdio_get_until+0x22>
10005644:	b003      	add	sp, #12
10005646:	e8bd 8ff0 	ldmia.w	sp!, {r4, r5, r6, r7, r8, r9, sl, fp, pc}
1000564a:	f8da 2024 	ldr.w	r2, [sl, #36]	@ 0x24
1000564e:	4590      	cmp	r8, r2
10005650:	d80b      	bhi.n	1000566a <stdio_get_until+0x66>
10005652:	f8da 1028 	ldr.w	r1, [sl, #40]	@ 0x28
10005656:	9b01      	ldr	r3, [sp, #4]
10005658:	4299      	cmp	r1, r3
1000565a:	d304      	bcc.n	10005666 <stdio_get_until+0x62>
1000565c:	f06f 0001 	mvn.w	r0, #1
10005660:	b003      	add	sp, #12
10005662:	e8bd 8ff0 	ldmia.w	sp!, {r4, r5, r6, r7, r8, r9, sl, fp, pc}
10005666:	4590      	cmp	r8, r2
10005668:	d1f8      	bne.n	1000565c <stdio_get_until+0x58>
1000566a:	2001      	movs	r0, #1
1000566c:	2100      	movs	r1, #0
1000566e:	f7fd fd23 	bl	100030b8 <busy_wait_us>
10005672:	e7d4      	b.n	1000561e <stdio_get_until+0x1a>
10005674:	200012f4 	.word	0x200012f4
10005678:	200012fc 	.word	0x200012fc
1000567c:	400b0000 	.word	0x400b0000

10005680 <stdio_set_driver_enabled>:
10005680:	4a0a      	ldr	r2, [pc, #40]	@ (100056ac <stdio_set_driver_enabled+0x2c>)
10005682:	6813      	ldr	r3, [r2, #0]
10005684:	b14b      	cbz	r3, 1000569a <stdio_set_driver_enabled+0x1a>
10005686:	4283      	cmp	r3, r0
10005688:	d102      	bne.n	10005690 <stdio_set_driver_enabled+0x10>
1000568a:	e009      	b.n	100056a0 <stdio_set_driver_enabled+0x20>
1000568c:	4298      	cmp	r0, r3
1000568e:	d007      	beq.n	100056a0 <stdio_set_driver_enabled+0x20>
10005690:	f103 0210 	add.w	r2, r3, #16
10005694:	691b      	ldr	r3, [r3, #16]
10005696:	2b00      	cmp	r3, #0
10005698:	d1f8      	bne.n	1000568c <stdio_set_driver_enabled+0xc>
1000569a:	b101      	cbz	r1, 1000569e <stdio_set_driver_enabled+0x1e>
1000569c:	6010      	str	r0, [r2, #0]
1000569e:	4770      	bx	lr
100056a0:	2900      	cmp	r1, #0
100056a2:	d1fc      	bne.n	1000569e <stdio_set_driver_enabled+0x1e>
100056a4:	6903      	ldr	r3, [r0, #16]
100056a6:	6013      	str	r3, [r2, #0]
100056a8:	6101      	str	r1, [r0, #16]
100056aa:	4770      	bx	lr
100056ac:	200012f4 	.word	0x200012f4

100056b0 <stdio_init_all>:
100056b0:	b508      	push	{r3, lr}
100056b2:	f000 f9eb 	bl	10005a8c <stdio_uart_init>
100056b6:	2001      	movs	r0, #1
100056b8:	bd08      	pop	{r3, pc}
100056ba:	bf00      	nop

100056bc <stdio_getchar_timeout_us>:
100056bc:	e92d 41f0 	stmdb	sp!, {r4, r5, r6, r7, r8, lr}
100056c0:	b082      	sub	sp, #8
100056c2:	4606      	mov	r6, r0
100056c4:	f7fd fcee 	bl	100030a4 <time_us_64>
100056c8:	f04f 32ff 	mov.w	r2, #4294967295
100056cc:	f06f 4300 	mvn.w	r3, #2147483648	@ 0x80000000
100056d0:	1836      	adds	r6, r6, r0
100056d2:	f141 0700 	adc.w	r7, r1, #0
100056d6:	42b2      	cmp	r2, r6
100056d8:	eb73 0107 	sbcs.w	r1, r3, r7
100056dc:	bf3c      	itt	cc
100056de:	4616      	movcc	r6, r2
100056e0:	461f      	movcc	r7, r3
100056e2:	f8df 8060 	ldr.w	r8, [pc, #96]	@ 10005744 <stdio_getchar_timeout_us+0x88>
100056e6:	4d15      	ldr	r5, [pc, #84]	@ (1000573c <stdio_getchar_timeout_us+0x80>)
100056e8:	f8d8 4000 	ldr.w	r4, [r8]
100056ec:	b914      	cbnz	r4, 100056f4 <stdio_getchar_timeout_us+0x38>
100056ee:	e012      	b.n	10005716 <stdio_getchar_timeout_us+0x5a>
100056f0:	6924      	ldr	r4, [r4, #16]
100056f2:	b184      	cbz	r4, 10005716 <stdio_getchar_timeout_us+0x5a>
100056f4:	682b      	ldr	r3, [r5, #0]
100056f6:	b10b      	cbz	r3, 100056fc <stdio_getchar_timeout_us+0x40>
100056f8:	429c      	cmp	r4, r3
100056fa:	d1f9      	bne.n	100056f0 <stdio_getchar_timeout_us+0x34>
100056fc:	68a3      	ldr	r3, [r4, #8]
100056fe:	2b00      	cmp	r3, #0
10005700:	d0f6      	beq.n	100056f0 <stdio_getchar_timeout_us+0x34>
10005702:	2101      	movs	r1, #1
10005704:	a801      	add	r0, sp, #4
10005706:	4798      	blx	r3
10005708:	2800      	cmp	r0, #0
1000570a:	ddf1      	ble.n	100056f0 <stdio_getchar_timeout_us+0x34>
1000570c:	f89d 0004 	ldrb.w	r0, [sp, #4]
10005710:	b002      	add	sp, #8
10005712:	e8bd 81f0 	ldmia.w	sp!, {r4, r5, r6, r7, r8, pc}
10005716:	4b0a      	ldr	r3, [pc, #40]	@ (10005740 <stdio_getchar_timeout_us+0x84>)
10005718:	6a5a      	ldr	r2, [r3, #36]	@ 0x24
1000571a:	4297      	cmp	r7, r2
1000571c:	d809      	bhi.n	10005732 <stdio_getchar_timeout_us+0x76>
1000571e:	6a9b      	ldr	r3, [r3, #40]	@ 0x28
10005720:	42b3      	cmp	r3, r6
10005722:	d304      	bcc.n	1000572e <stdio_getchar_timeout_us+0x72>
10005724:	f06f 0001 	mvn.w	r0, #1
10005728:	b002      	add	sp, #8
1000572a:	e8bd 81f0 	ldmia.w	sp!, {r4, r5, r6, r7, r8, pc}
1000572e:	4297      	cmp	r7, r2
10005730:	d1f8      	bne.n	10005724 <stdio_getchar_timeout_us+0x68>
10005732:	2001      	movs	r0, #1
10005734:	2100      	movs	r1, #0
10005736:	f7fd fcbf 	bl	100030b8 <busy_wait_us>
1000573a:	e7d5      	b.n	100056e8 <stdio_getchar_timeout_us+0x2c>
1000573c:	200012fc 	.word	0x200012fc
10005740:	400b0000 	.word	0x400b0000
10005744:	200012f4 	.word	0x200012f4

10005748 <__wrap_putchar>:
10005748:	b5f0      	push	{r4, r5, r6, r7, lr}
1000574a:	b083      	sub	sp, #12
1000574c:	4606      	mov	r6, r0
1000574e:	f88d 0007 	strb.w	r0, [sp, #7]
10005752:	f7fd fca7 	bl	100030a4 <time_us_64>
10005756:	f04f 35ff 	mov.w	r5, #4294967295
1000575a:	f06f 4400 	mvn.w	r4, #2147483648	@ 0x80000000
1000575e:	4a17      	ldr	r2, [pc, #92]	@ (100057bc <__wrap_putchar+0x74>)
10005760:	1882      	adds	r2, r0, r2
10005762:	f141 0300 	adc.w	r3, r1, #0
10005766:	4295      	cmp	r5, r2
10005768:	eb74 0103 	sbcs.w	r1, r4, r3
1000576c:	bf3c      	itt	cc
1000576e:	4623      	movcc	r3, r4
10005770:	462a      	movcc	r2, r5
10005772:	4813      	ldr	r0, [pc, #76]	@ (100057c0 <__wrap_putchar+0x78>)
10005774:	f006 fc9c 	bl	1000c0b0 <__mutex_try_enter_block_until_veneer>
10005778:	4b12      	ldr	r3, [pc, #72]	@ (100057c4 <__wrap_putchar+0x7c>)
1000577a:	4607      	mov	r7, r0
1000577c:	681c      	ldr	r4, [r3, #0]
1000577e:	b19c      	cbz	r4, 100057a8 <__wrap_putchar+0x60>
10005780:	4d11      	ldr	r5, [pc, #68]	@ (100057c8 <__wrap_putchar+0x80>)
10005782:	e001      	b.n	10005788 <__wrap_putchar+0x40>
10005784:	6924      	ldr	r4, [r4, #16]
10005786:	b17c      	cbz	r4, 100057a8 <__wrap_putchar+0x60>
10005788:	6823      	ldr	r3, [r4, #0]
1000578a:	2b00      	cmp	r3, #0
1000578c:	d0fa      	beq.n	10005784 <__wrap_putchar+0x3c>
1000578e:	682b      	ldr	r3, [r5, #0]
10005790:	b10b      	cbz	r3, 10005796 <__wrap_putchar+0x4e>
10005792:	429c      	cmp	r4, r3
10005794:	d1f6      	bne.n	10005784 <__wrap_putchar+0x3c>
10005796:	4620      	mov	r0, r4
10005798:	2201      	movs	r2, #1
1000579a:	f10d 0107 	add.w	r1, sp, #7
1000579e:	f7ff fe33 	bl	10005408 <stdio_out_chars_crlf>
100057a2:	6924      	ldr	r4, [r4, #16]
100057a4:	2c00      	cmp	r4, #0
100057a6:	d1ef      	bne.n	10005788 <__wrap_putchar+0x40>
100057a8:	b917      	cbnz	r7, 100057b0 <__wrap_putchar+0x68>
100057aa:	4630      	mov	r0, r6
100057ac:	b003      	add	sp, #12
100057ae:	bdf0      	pop	{r4, r5, r6, r7, pc}
100057b0:	4803      	ldr	r0, [pc, #12]	@ (100057c0 <__wrap_putchar+0x78>)
100057b2:	f006 fc79 	bl	1000c0a8 <__mutex_exit_veneer>
100057b6:	4630      	mov	r0, r6
100057b8:	b003      	add	sp, #12
100057ba:	bdf0      	pop	{r4, r5, r6, r7, pc}
100057bc:	000f4240 	.word	0x000f4240
100057c0:	20000dc8 	.word	0x20000dc8
100057c4:	200012f4 	.word	0x200012f4
100057c8:	200012fc 	.word	0x200012fc

100057cc <__wrap_puts>:
100057cc:	b538      	push	{r3, r4, r5, lr}
100057ce:	4604      	mov	r4, r0
100057d0:	f001 fa76 	bl	10006cc0 <strlen>
100057d4:	2301      	movs	r3, #1
100057d6:	4605      	mov	r5, r0
100057d8:	461a      	mov	r2, r3
100057da:	4620      	mov	r0, r4
100057dc:	4629      	mov	r1, r5
100057de:	f7ff fe99 	bl	10005514 <stdio_put_string>
100057e2:	4b08      	ldr	r3, [pc, #32]	@ (10005804 <__wrap_puts+0x38>)
100057e4:	681c      	ldr	r4, [r3, #0]
100057e6:	b12c      	cbz	r4, 100057f4 <__wrap_puts+0x28>
100057e8:	6863      	ldr	r3, [r4, #4]
100057ea:	b12b      	cbz	r3, 100057f8 <__wrap_puts+0x2c>
100057ec:	4798      	blx	r3
100057ee:	6924      	ldr	r4, [r4, #16]
100057f0:	2c00      	cmp	r4, #0
100057f2:	d1f9      	bne.n	100057e8 <__wrap_puts+0x1c>
100057f4:	4628      	mov	r0, r5
100057f6:	bd38      	pop	{r3, r4, r5, pc}
100057f8:	6924      	ldr	r4, [r4, #16]
100057fa:	2c00      	cmp	r4, #0
100057fc:	d1f4      	bne.n	100057e8 <__wrap_puts+0x1c>
100057fe:	4628      	mov	r0, r5
10005800:	bd38      	pop	{r3, r4, r5, pc}
10005802:	bf00      	nop
10005804:	200012f4 	.word	0x200012f4

10005808 <__wrap_vprintf>:
10005808:	e92d 41f0 	stmdb	sp!, {r4, r5, r6, r7, r8, lr}
1000580c:	b0a2      	sub	sp, #136	@ 0x88
1000580e:	4604      	mov	r4, r0
10005810:	460d      	mov	r5, r1
10005812:	f7fd fc47 	bl	100030a4 <time_us_64>
10005816:	f04f 37ff 	mov.w	r7, #4294967295
1000581a:	f06f 4600 	mvn.w	r6, #2147483648	@ 0x80000000
1000581e:	4a27      	ldr	r2, [pc, #156]	@ (100058bc <__wrap_vprintf+0xb4>)
10005820:	1882      	adds	r2, r0, r2
10005822:	f141 0300 	adc.w	r3, r1, #0
10005826:	4297      	cmp	r7, r2
10005828:	eb76 0103 	sbcs.w	r1, r6, r3
1000582c:	bf3c      	itt	cc
1000582e:	463a      	movcc	r2, r7
10005830:	4633      	movcc	r3, r6
10005832:	4823      	ldr	r0, [pc, #140]	@ (100058c0 <__wrap_vprintf+0xb8>)
10005834:	f006 fc3c 	bl	1000c0b0 <__mutex_try_enter_block_until_veneer>
10005838:	2600      	movs	r6, #0
1000583a:	462b      	mov	r3, r5
1000583c:	4607      	mov	r7, r0
1000583e:	4622      	mov	r2, r4
10005840:	4820      	ldr	r0, [pc, #128]	@ (100058c4 <__wrap_vprintf+0xbc>)
10005842:	a901      	add	r1, sp, #4
10005844:	9601      	str	r6, [sp, #4]
10005846:	f7ff fd13 	bl	10005270 <vfctprintf>
1000584a:	9b01      	ldr	r3, [sp, #4]
1000584c:	4606      	mov	r6, r0
1000584e:	b97b      	cbnz	r3, 10005870 <__wrap_vprintf+0x68>
10005850:	4b1d      	ldr	r3, [pc, #116]	@ (100058c8 <__wrap_vprintf+0xc0>)
10005852:	681c      	ldr	r4, [r3, #0]
10005854:	b12c      	cbz	r4, 10005862 <__wrap_vprintf+0x5a>
10005856:	6863      	ldr	r3, [r4, #4]
10005858:	b143      	cbz	r3, 1000586c <__wrap_vprintf+0x64>
1000585a:	4798      	blx	r3
1000585c:	6924      	ldr	r4, [r4, #16]
1000585e:	2c00      	cmp	r4, #0
10005860:	d1f9      	bne.n	10005856 <__wrap_vprintf+0x4e>
10005862:	bb0f      	cbnz	r7, 100058a8 <__wrap_vprintf+0xa0>
10005864:	4630      	mov	r0, r6
10005866:	b022      	add	sp, #136	@ 0x88
10005868:	e8bd 81f0 	ldmia.w	sp!, {r4, r5, r6, r7, r8, pc}
1000586c:	6924      	ldr	r4, [r4, #16]
1000586e:	e7f1      	b.n	10005854 <__wrap_vprintf+0x4c>
10005870:	f8df 8054 	ldr.w	r8, [pc, #84]	@ 100058c8 <__wrap_vprintf+0xc0>
10005874:	f8d8 5000 	ldr.w	r5, [r8]
10005878:	b1ed      	cbz	r5, 100058b6 <__wrap_vprintf+0xae>
1000587a:	4c14      	ldr	r4, [pc, #80]	@ (100058cc <__wrap_vprintf+0xc4>)
1000587c:	e001      	b.n	10005882 <__wrap_vprintf+0x7a>
1000587e:	692d      	ldr	r5, [r5, #16]
10005880:	b175      	cbz	r5, 100058a0 <__wrap_vprintf+0x98>
10005882:	682b      	ldr	r3, [r5, #0]
10005884:	2b00      	cmp	r3, #0
10005886:	d0fa      	beq.n	1000587e <__wrap_vprintf+0x76>
10005888:	6823      	ldr	r3, [r4, #0]
1000588a:	b10b      	cbz	r3, 10005890 <__wrap_vprintf+0x88>
1000588c:	42ab      	cmp	r3, r5
1000588e:	d1f6      	bne.n	1000587e <__wrap_vprintf+0x76>
10005890:	4628      	mov	r0, r5
10005892:	9a01      	ldr	r2, [sp, #4]
10005894:	a902      	add	r1, sp, #8
10005896:	f7ff fdb7 	bl	10005408 <stdio_out_chars_crlf>
1000589a:	692d      	ldr	r5, [r5, #16]
1000589c:	2d00      	cmp	r5, #0
1000589e:	d1f0      	bne.n	10005882 <__wrap_vprintf+0x7a>
100058a0:	f8d8 4000 	ldr.w	r4, [r8]
100058a4:	9501      	str	r5, [sp, #4]
100058a6:	e7d5      	b.n	10005854 <__wrap_vprintf+0x4c>
100058a8:	4805      	ldr	r0, [pc, #20]	@ (100058c0 <__wrap_vprintf+0xb8>)
100058aa:	f006 fbfd 	bl	1000c0a8 <__mutex_exit_veneer>
100058ae:	4630      	mov	r0, r6
100058b0:	b022      	add	sp, #136	@ 0x88
100058b2:	e8bd 81f0 	ldmia.w	sp!, {r4, r5, r6, r7, r8, pc}
100058b6:	9501      	str	r5, [sp, #4]
100058b8:	e7d3      	b.n	10005862 <__wrap_vprintf+0x5a>
100058ba:	bf00      	nop
100058bc:	000f4240 	.word	0x000f4240
100058c0:	20000dc8 	.word	0x20000dc8
100058c4:	100054b5 	.word	0x100054b5
100058c8:	200012f4 	.word	0x200012f4
100058cc:	200012fc 	.word	0x200012fc

100058d0 <__wrap_printf>:
100058d0:	b40f      	push	{r0, r1, r2, r3}
100058d2:	b500      	push	{lr}
100058d4:	b083      	sub	sp, #12
100058d6:	a904      	add	r1, sp, #16
100058d8:	f851 0b04 	ldr.w	r0, [r1], #4
100058dc:	9101      	str	r1, [sp, #4]
100058de:	f7ff ff93 	bl	10005808 <__wrap_vprintf>
100058e2:	b003      	add	sp, #12
100058e4:	f85d eb04 	ldr.w	lr, [sp], #4
100058e8:	b004      	add	sp, #16
100058ea:	4770      	bx	lr

100058ec <stdio_uart_out_chars>:
100058ec:	f1b1 0c00 	subs.w	ip, r1, #0
100058f0:	dd1d      	ble.n	1000592e <stdio_uart_out_chars+0x42>
100058f2:	4a0f      	ldr	r2, [pc, #60]	@ (10005930 <stdio_uart_out_chars+0x44>)
100058f4:	4b0f      	ldr	r3, [pc, #60]	@ (10005934 <stdio_uart_out_chars+0x48>)
100058f6:	6812      	ldr	r2, [r2, #0]
100058f8:	b530      	push	{r4, r5, lr}
100058fa:	1ad3      	subs	r3, r2, r3
100058fc:	fab3 f383 	clz	r3, r3
10005900:	240d      	movs	r4, #13
10005902:	4d0d      	ldr	r5, [pc, #52]	@ (10005938 <stdio_uart_out_chars+0x4c>)
10005904:	095b      	lsrs	r3, r3, #5
10005906:	1e41      	subs	r1, r0, #1
10005908:	f935 e013 	ldrsh.w	lr, [r5, r3, lsl #1]
1000590c:	448c      	add	ip, r1
1000590e:	f811 0f01 	ldrb.w	r0, [r1, #1]!
10005912:	4586      	cmp	lr, r0
10005914:	d006      	beq.n	10005924 <stdio_uart_out_chars+0x38>
10005916:	6993      	ldr	r3, [r2, #24]
10005918:	069b      	lsls	r3, r3, #26
1000591a:	d4fc      	bmi.n	10005916 <stdio_uart_out_chars+0x2a>
1000591c:	4561      	cmp	r1, ip
1000591e:	6010      	str	r0, [r2, #0]
10005920:	d1f5      	bne.n	1000590e <stdio_uart_out_chars+0x22>
10005922:	bd30      	pop	{r4, r5, pc}
10005924:	6993      	ldr	r3, [r2, #24]
10005926:	069d      	lsls	r5, r3, #26
10005928:	d4fc      	bmi.n	10005924 <stdio_uart_out_chars+0x38>
1000592a:	6014      	str	r4, [r2, #0]
1000592c:	e7f3      	b.n	10005916 <stdio_uart_out_chars+0x2a>
1000592e:	4770      	bx	lr
10005930:	20001390 	.word	0x20001390
10005934:	40078000 	.word	0x40078000
10005938:	2000138c 	.word	0x2000138c

1000593c <stdio_uart_in_chars>:
1000593c:	4b22      	ldr	r3, [pc, #136]	@ (100059c8 <stdio_uart_in_chars+0x8c>)
1000593e:	f1b1 0c00 	subs.w	ip, r1, #0
10005942:	b410      	push	{r4}
10005944:	681c      	ldr	r4, [r3, #0]
10005946:	dd2e      	ble.n	100059a6 <stdio_uart_in_chars+0x6a>
10005948:	4603      	mov	r3, r0
1000594a:	2000      	movs	r0, #0
1000594c:	4a1f      	ldr	r2, [pc, #124]	@ (100059cc <stdio_uart_in_chars+0x90>)
1000594e:	1e59      	subs	r1, r3, #1
10005950:	6812      	ldr	r2, [r2, #0]
10005952:	6993      	ldr	r3, [r2, #24]
10005954:	06db      	lsls	r3, r3, #27
10005956:	d417      	bmi.n	10005988 <stdio_uart_in_chars+0x4c>
10005958:	3001      	adds	r0, #1
1000595a:	6993      	ldr	r3, [r2, #24]
1000595c:	06db      	lsls	r3, r3, #27
1000595e:	d4fc      	bmi.n	1000595a <stdio_uart_in_chars+0x1e>
10005960:	6813      	ldr	r3, [r2, #0]
10005962:	4584      	cmp	ip, r0
10005964:	f801 3f01 	strb.w	r3, [r1, #1]!
10005968:	d1f3      	bne.n	10005952 <stdio_uart_in_chars+0x16>
1000596a:	b14c      	cbz	r4, 10005980 <stdio_uart_in_chars+0x44>
1000596c:	2150      	movs	r1, #80	@ 0x50
1000596e:	4613      	mov	r3, r2
10005970:	6391      	str	r1, [r2, #56]	@ 0x38
10005972:	f853 2f34 	ldr.w	r2, [r3, #52]!
10005976:	f002 0238 	and.w	r2, r2, #56	@ 0x38
1000597a:	f503 5380 	add.w	r3, r3, #4096	@ 0x1000
1000597e:	601a      	str	r2, [r3, #0]
10005980:	4660      	mov	r0, ip
10005982:	f85d 4b04 	ldr.w	r4, [sp], #4
10005986:	4770      	bx	lr
10005988:	b14c      	cbz	r4, 1000599e <stdio_uart_in_chars+0x62>
1000598a:	2150      	movs	r1, #80	@ 0x50
1000598c:	4613      	mov	r3, r2
1000598e:	6391      	str	r1, [r2, #56]	@ 0x38
10005990:	f853 2f34 	ldr.w	r2, [r3, #52]!
10005994:	f002 0238 	and.w	r2, r2, #56	@ 0x38
10005998:	f503 5380 	add.w	r3, r3, #4096	@ 0x1000
1000599c:	601a      	str	r2, [r3, #0]
1000599e:	b178      	cbz	r0, 100059c0 <stdio_uart_in_chars+0x84>
100059a0:	f85d 4b04 	ldr.w	r4, [sp], #4
100059a4:	4770      	bx	lr
100059a6:	b15c      	cbz	r4, 100059c0 <stdio_uart_in_chars+0x84>
100059a8:	4b08      	ldr	r3, [pc, #32]	@ (100059cc <stdio_uart_in_chars+0x90>)
100059aa:	2150      	movs	r1, #80	@ 0x50
100059ac:	681a      	ldr	r2, [r3, #0]
100059ae:	4613      	mov	r3, r2
100059b0:	6391      	str	r1, [r2, #56]	@ 0x38
100059b2:	f853 2f34 	ldr.w	r2, [r3, #52]!
100059b6:	f002 0238 	and.w	r2, r2, #56	@ 0x38
100059ba:	f503 5380 	add.w	r3, r3, #4096	@ 0x1000
100059be:	601a      	str	r2, [r3, #0]
100059c0:	f06f 0002 	mvn.w	r0, #2
100059c4:	e7ec      	b.n	100059a0 <stdio_uart_in_chars+0x64>
100059c6:	bf00      	nop
100059c8:	20001284 	.word	0x20001284
100059cc:	20001390 	.word	0x20001390

100059d0 <on_uart_rx>:
100059d0:	4b05      	ldr	r3, [pc, #20]	@ (100059e8 <on_uart_rx+0x18>)
100059d2:	681b      	ldr	r3, [r3, #0]
100059d4:	b133      	cbz	r3, 100059e4 <on_uart_rx+0x14>
100059d6:	2100      	movs	r1, #0
100059d8:	4a04      	ldr	r2, [pc, #16]	@ (100059ec <on_uart_rx+0x1c>)
100059da:	4805      	ldr	r0, [pc, #20]	@ (100059f0 <on_uart_rx+0x20>)
100059dc:	6812      	ldr	r2, [r2, #0]
100059de:	6800      	ldr	r0, [r0, #0]
100059e0:	6391      	str	r1, [r2, #56]	@ 0x38
100059e2:	4718      	bx	r3
100059e4:	4770      	bx	lr
100059e6:	bf00      	nop
100059e8:	20001284 	.word	0x20001284
100059ec:	20001390 	.word	0x20001390
100059f0:	20001288 	.word	0x20001288

100059f4 <stdio_uart_out_flush>:
100059f4:	4b02      	ldr	r3, [pc, #8]	@ (10005a00 <stdio_uart_out_flush+0xc>)
100059f6:	681a      	ldr	r2, [r3, #0]
100059f8:	6993      	ldr	r3, [r2, #24]
100059fa:	071b      	lsls	r3, r3, #28
100059fc:	d4fc      	bmi.n	100059f8 <stdio_uart_out_flush+0x4>
100059fe:	4770      	bx	lr
10005a00:	20001390 	.word	0x20001390

10005a04 <stdio_uart_set_chars_available_callback>:
10005a04:	b5f8      	push	{r3, r4, r5, r6, r7, lr}
10005a06:	4f1c      	ldr	r7, [pc, #112]	@ (10005a78 <stdio_uart_set_chars_available_callback+0x74>)
10005a08:	4d1c      	ldr	r5, [pc, #112]	@ (10005a7c <stdio_uart_set_chars_available_callback+0x78>)
10005a0a:	683a      	ldr	r2, [r7, #0]
10005a0c:	4e1c      	ldr	r6, [pc, #112]	@ (10005a80 <stdio_uart_set_chars_available_callback+0x7c>)
10005a0e:	42aa      	cmp	r2, r5
10005a10:	bf14      	ite	ne
10005a12:	2521      	movne	r5, #33	@ 0x21
10005a14:	2522      	moveq	r5, #34	@ 0x22
10005a16:	4604      	mov	r4, r0
10005a18:	f8d6 c000 	ldr.w	ip, [r6]
10005a1c:	b118      	cbz	r0, 10005a26 <stdio_uart_set_chars_available_callback+0x22>
10005a1e:	f1bc 0f00 	cmp.w	ip, #0
10005a22:	d010      	beq.n	10005a46 <stdio_uart_set_chars_available_callback+0x42>
10005a24:	bdf8      	pop	{r3, r4, r5, r6, r7, pc}
10005a26:	f1bc 0f00 	cmp.w	ip, #0
10005a2a:	d0fb      	beq.n	10005a24 <stdio_uart_set_chars_available_callback+0x20>
10005a2c:	4601      	mov	r1, r0
10005a2e:	6390      	str	r0, [r2, #56]	@ 0x38
10005a30:	4628      	mov	r0, r5
10005a32:	f7fc fd9b 	bl	1000256c <irq_set_enabled>
10005a36:	4628      	mov	r0, r5
10005a38:	4912      	ldr	r1, [pc, #72]	@ (10005a84 <stdio_uart_set_chars_available_callback+0x80>)
10005a3a:	f7fc fddd 	bl	100025f8 <irq_remove_handler>
10005a3e:	4b12      	ldr	r3, [pc, #72]	@ (10005a88 <stdio_uart_set_chars_available_callback+0x84>)
10005a40:	6034      	str	r4, [r6, #0]
10005a42:	601c      	str	r4, [r3, #0]
10005a44:	bdf8      	pop	{r3, r4, r5, r6, r7, pc}
10005a46:	460b      	mov	r3, r1
10005a48:	4a0f      	ldr	r2, [pc, #60]	@ (10005a88 <stdio_uart_set_chars_available_callback+0x84>)
10005a4a:	490e      	ldr	r1, [pc, #56]	@ (10005a84 <stdio_uart_set_chars_available_callback+0x80>)
10005a4c:	6030      	str	r0, [r6, #0]
10005a4e:	4628      	mov	r0, r5
10005a50:	6013      	str	r3, [r2, #0]
10005a52:	f7fc fda1 	bl	10002598 <irq_set_exclusive_handler>
10005a56:	2101      	movs	r1, #1
10005a58:	4628      	mov	r0, r5
10005a5a:	f7fc fd87 	bl	1000256c <irq_set_enabled>
10005a5e:	683a      	ldr	r2, [r7, #0]
10005a60:	2150      	movs	r1, #80	@ 0x50
10005a62:	4613      	mov	r3, r2
10005a64:	6391      	str	r1, [r2, #56]	@ 0x38
10005a66:	f853 2f34 	ldr.w	r2, [r3, #52]!
10005a6a:	f002 0238 	and.w	r2, r2, #56	@ 0x38
10005a6e:	f503 5380 	add.w	r3, r3, #4096	@ 0x1000
10005a72:	601a      	str	r2, [r3, #0]
10005a74:	bdf8      	pop	{r3, r4, r5, r6, r7, pc}
10005a76:	bf00      	nop
10005a78:	20001390 	.word	0x20001390
10005a7c:	40078000 	.word	0x40078000
10005a80:	20001284 	.word	0x20001284
10005a84:	100059d1 	.word	0x100059d1
10005a88:	20001288 	.word	0x20001288

10005a8c <stdio_uart_init>:
10005a8c:	b510      	push	{r4, lr}
10005a8e:	490e      	ldr	r1, [pc, #56]	@ (10005ac8 <stdio_uart_init+0x3c>)
10005a90:	4c0e      	ldr	r4, [pc, #56]	@ (10005acc <stdio_uart_init+0x40>)
10005a92:	480f      	ldr	r0, [pc, #60]	@ (10005ad0 <stdio_uart_init+0x44>)
10005a94:	4a0f      	ldr	r2, [pc, #60]	@ (10005ad4 <stdio_uart_init+0x48>)
10005a96:	4b10      	ldr	r3, [pc, #64]	@ (10005ad8 <stdio_uart_init+0x4c>)
10005a98:	7800      	ldrb	r0, [r0, #0]
10005a9a:	6021      	str	r1, [r4, #0]
10005a9c:	2000      	movs	r0, #0
10005a9e:	2102      	movs	r1, #2
10005aa0:	7812      	ldrb	r2, [r2, #0]
10005aa2:	781b      	ldrb	r3, [r3, #0]
10005aa4:	f7fc fc88 	bl	100023b8 <gpio_set_function>
10005aa8:	2102      	movs	r1, #2
10005aaa:	2001      	movs	r0, #1
10005aac:	f7fc fc84 	bl	100023b8 <gpio_set_function>
10005ab0:	f44f 31e1 	mov.w	r1, #115200	@ 0x1c200
10005ab4:	6820      	ldr	r0, [r4, #0]
10005ab6:	f7fd fb87 	bl	100031c8 <uart_init>
10005aba:	e8bd 4010 	ldmia.w	sp!, {r4, lr}
10005abe:	2101      	movs	r1, #1
10005ac0:	4806      	ldr	r0, [pc, #24]	@ (10005adc <stdio_uart_init+0x50>)
10005ac2:	f7ff bddd 	b.w	10005680 <stdio_set_driver_enabled>
10005ac6:	bf00      	nop
10005ac8:	40070000 	.word	0x40070000
10005acc:	20001390 	.word	0x20001390
10005ad0:	100136d8 	.word	0x100136d8
10005ad4:	100136d4 	.word	0x100136d4
10005ad8:	100136d0 	.word	0x100136d0
10005adc:	200006d4 	.word	0x200006d4

10005ae0 <i2c_read_blocking_internal>:
10005ae0:	e92d 4ff8 	stmdb	sp!, {r3, r4, r5, r6, r7, r8, r9, sl, fp, lr}
10005ae4:	f04f 0c01 	mov.w	ip, #1
10005ae8:	e9dd 460b 	ldrd	r4, r6, [sp, #44]	@ 0x2c
10005aec:	2700      	movs	r7, #0
10005aee:	4691      	mov	r9, r2
10005af0:	6802      	ldr	r2, [r0, #0]
10005af2:	f1b3 0800 	subs.w	r8, r3, #0
10005af6:	66d7      	str	r7, [r2, #108]	@ 0x6c
10005af8:	4605      	mov	r5, r0
10005afa:	6051      	str	r1, [r2, #4]
10005afc:	f89d b028 	ldrb.w	fp, [sp, #40]	@ 0x28
10005b00:	f8c2 c06c 	str.w	ip, [r2, #108]	@ 0x6c
10005b04:	dd21      	ble.n	10005b4a <i2c_read_blocking_internal+0x6a>
10005b06:	f108 3aff 	add.w	sl, r8, #4294967295
10005b0a:	b114      	cbz	r4, 10005b12 <i2c_read_blocking_internal+0x32>
10005b0c:	2101      	movs	r1, #1
10005b0e:	4630      	mov	r0, r6
10005b10:	47a0      	blx	r4
10005b12:	682b      	ldr	r3, [r5, #0]
10005b14:	6f5a      	ldr	r2, [r3, #116]	@ 0x74
10005b16:	2a10      	cmp	r2, #16
10005b18:	d0fc      	beq.n	10005b14 <i2c_read_blocking_internal+0x34>
10005b1a:	2f00      	cmp	r7, #0
10005b1c:	d033      	beq.n	10005b86 <i2c_read_blocking_internal+0xa6>
10005b1e:	2200      	movs	r2, #0
10005b20:	45ba      	cmp	sl, r7
10005b22:	bf04      	itt	eq
10005b24:	f08b 0101 	eoreq.w	r1, fp, #1
10005b28:	ea42 2241 	orreq.w	r2, r2, r1, lsl #9
10005b2c:	f442 7280 	orr.w	r2, r2, #256	@ 0x100
10005b30:	611a      	str	r2, [r3, #16]
10005b32:	b18c      	cbz	r4, 10005b58 <i2c_read_blocking_internal+0x78>
10005b34:	f8d3 2080 	ldr.w	r2, [r3, #128]	@ 0x80
10005b38:	6b59      	ldr	r1, [r3, #52]	@ 0x34
10005b3a:	f011 0140 	ands.w	r1, r1, #64	@ 0x40
10005b3e:	d013      	beq.n	10005b68 <i2c_read_blocking_internal+0x88>
10005b40:	2100      	movs	r1, #0
10005b42:	4630      	mov	r0, r6
10005b44:	6d5b      	ldr	r3, [r3, #84]	@ 0x54
10005b46:	47a0      	blx	r4
10005b48:	43c7      	mvns	r7, r0
10005b4a:	4638      	mov	r0, r7
10005b4c:	f885 b004 	strb.w	fp, [r5, #4]
10005b50:	e8bd 8ff8 	ldmia.w	sp!, {r3, r4, r5, r6, r7, r8, r9, sl, fp, pc}
10005b54:	6f9a      	ldr	r2, [r3, #120]	@ 0x78
10005b56:	b97a      	cbnz	r2, 10005b78 <i2c_read_blocking_internal+0x98>
10005b58:	f8d3 2080 	ldr.w	r2, [r3, #128]	@ 0x80
10005b5c:	6b5a      	ldr	r2, [r3, #52]	@ 0x34
10005b5e:	0652      	lsls	r2, r2, #25
10005b60:	d5f8      	bpl.n	10005b54 <i2c_read_blocking_internal+0x74>
10005b62:	2000      	movs	r0, #0
10005b64:	6d5b      	ldr	r3, [r3, #84]	@ 0x54
10005b66:	e7ef      	b.n	10005b48 <i2c_read_blocking_internal+0x68>
10005b68:	4630      	mov	r0, r6
10005b6a:	47a0      	blx	r4
10005b6c:	2800      	cmp	r0, #0
10005b6e:	d1eb      	bne.n	10005b48 <i2c_read_blocking_internal+0x68>
10005b70:	682b      	ldr	r3, [r5, #0]
10005b72:	6f9a      	ldr	r2, [r3, #120]	@ 0x78
10005b74:	2a00      	cmp	r2, #0
10005b76:	d0dd      	beq.n	10005b34 <i2c_read_blocking_internal+0x54>
10005b78:	691b      	ldr	r3, [r3, #16]
10005b7a:	3701      	adds	r7, #1
10005b7c:	45b8      	cmp	r8, r7
10005b7e:	f809 3b01 	strb.w	r3, [r9], #1
10005b82:	d1c2      	bne.n	10005b0a <i2c_read_blocking_internal+0x2a>
10005b84:	e7e1      	b.n	10005b4a <i2c_read_blocking_internal+0x6a>
10005b86:	792a      	ldrb	r2, [r5, #4]
10005b88:	0292      	lsls	r2, r2, #10
10005b8a:	e7c9      	b.n	10005b20 <i2c_read_blocking_internal+0x40>

10005b8c <i2c_set_baudrate>:
10005b8c:	b5f8      	push	{r3, r4, r5, r6, r7, lr}
10005b8e:	4606      	mov	r6, r0
10005b90:	2005      	movs	r0, #5
10005b92:	460c      	mov	r4, r1
10005b94:	f7fd fc02 	bl	1000339c <clock_get_hz>
10005b98:	eb00 0c54 	add.w	ip, r0, r4, lsr #1
10005b9c:	fbbc fcf4 	udiv	ip, ip, r4
10005ba0:	4b21      	ldr	r3, [pc, #132]	@ (10005c28 <i2c_set_baudrate+0x9c>)
10005ba2:	eb0c 024c 	add.w	r2, ip, ip, lsl #1
10005ba6:	fba3 5302 	umull	r5, r3, r3, r2
10005baa:	4920      	ldr	r1, [pc, #128]	@ (10005c2c <i2c_set_baudrate+0xa0>)
10005bac:	089f      	lsrs	r7, r3, #2
10005bae:	428c      	cmp	r4, r1
10005bb0:	ebac 0593 	sub.w	r5, ip, r3, lsr #2
10005bb4:	d830      	bhi.n	10005c18 <i2c_set_baudrate+0x8c>
10005bb6:	f101 41d6 	add.w	r1, r1, #1795162112	@ 0x6b000000
10005bba:	f501 01a1 	add.w	r1, r1, #5275648	@ 0x508000
10005bbe:	f601 012c 	addw	r1, r1, #2092	@ 0x82c
10005bc2:	eb00 0340 	add.w	r3, r0, r0, lsl #1
10005bc6:	fba1 1303 	umull	r1, r3, r1, r3
10005bca:	0d9b      	lsrs	r3, r3, #22
10005bcc:	3301      	adds	r3, #1
10005bce:	2400      	movs	r4, #0
10005bd0:	2a4f      	cmp	r2, #79	@ 0x4f
10005bd2:	bf98      	it	ls
10005bd4:	2201      	movls	r2, #1
10005bd6:	6831      	ldr	r1, [r6, #0]
10005bd8:	fbb0 f0fc 	udiv	r0, r0, ip
10005bdc:	66cc      	str	r4, [r1, #108]	@ 0x6c
10005bde:	680c      	ldr	r4, [r1, #0]
10005be0:	f501 5680 	add.w	r6, r1, #4096	@ 0x1000
10005be4:	f084 0404 	eor.w	r4, r4, #4
10005be8:	f004 0406 	and.w	r4, r4, #6
10005bec:	6034      	str	r4, [r6, #0]
10005bee:	bf88      	it	hi
10005bf0:	4c0d      	ldrhi	r4, [pc, #52]	@ (10005c28 <i2c_set_baudrate+0x9c>)
10005bf2:	61cd      	str	r5, [r1, #28]
10005bf4:	bf84      	itt	hi
10005bf6:	fba4 4202 	umullhi	r4, r2, r4, r2
10005bfa:	0992      	lsrhi	r2, r2, #6
10005bfc:	620f      	str	r7, [r1, #32]
10005bfe:	f8c1 20a0 	str.w	r2, [r1, #160]	@ 0xa0
10005c02:	460a      	mov	r2, r1
10005c04:	2401      	movs	r4, #1
10005c06:	f852 5f7c 	ldr.w	r5, [r2, #124]!
10005c0a:	406b      	eors	r3, r5
10005c0c:	b29b      	uxth	r3, r3
10005c0e:	f502 5280 	add.w	r2, r2, #4096	@ 0x1000
10005c12:	6013      	str	r3, [r2, #0]
10005c14:	66cc      	str	r4, [r1, #108]	@ 0x6c
10005c16:	bdf8      	pop	{r3, r4, r5, r6, r7, pc}
10005c18:	4905      	ldr	r1, [pc, #20]	@ (10005c30 <i2c_set_baudrate+0xa4>)
10005c1a:	eb00 0340 	add.w	r3, r0, r0, lsl #1
10005c1e:	fba1 1303 	umull	r1, r3, r1, r3
10005c22:	0ddb      	lsrs	r3, r3, #23
10005c24:	3301      	adds	r3, #1
10005c26:	e7d2      	b.n	10005bce <i2c_set_baudrate+0x42>
10005c28:	cccccccd 	.word	0xcccccccd
10005c2c:	000f423f 	.word	0x000f423f
10005c30:	55e63b89 	.word	0x55e63b89

10005c34 <i2c_init>:
10005c34:	4a0e      	ldr	r2, [pc, #56]	@ (10005c70 <i2c_init+0x3c>)
10005c36:	b430      	push	{r4, r5}
10005c38:	4290      	cmp	r0, r2
10005c3a:	bf14      	ite	ne
10005c3c:	2220      	movne	r2, #32
10005c3e:	2210      	moveq	r2, #16
10005c40:	4d0c      	ldr	r5, [pc, #48]	@ (10005c74 <i2c_init+0x40>)
10005c42:	4b0d      	ldr	r3, [pc, #52]	@ (10005c78 <i2c_init+0x44>)
10005c44:	4c0d      	ldr	r4, [pc, #52]	@ (10005c7c <i2c_init+0x48>)
10005c46:	602a      	str	r2, [r5, #0]
10005c48:	601a      	str	r2, [r3, #0]
10005c4a:	68a3      	ldr	r3, [r4, #8]
10005c4c:	ea32 0303 	bics.w	r3, r2, r3
10005c50:	d1fb      	bne.n	10005c4a <i2c_init+0x16>
10005c52:	f240 1565 	movw	r5, #357	@ 0x165
10005c56:	2403      	movs	r4, #3
10005c58:	6802      	ldr	r2, [r0, #0]
10005c5a:	7103      	strb	r3, [r0, #4]
10005c5c:	66d3      	str	r3, [r2, #108]	@ 0x6c
10005c5e:	6015      	str	r5, [r2, #0]
10005c60:	63d3      	str	r3, [r2, #60]	@ 0x3c
10005c62:	6393      	str	r3, [r2, #56]	@ 0x38
10005c64:	f8c2 4088 	str.w	r4, [r2, #136]	@ 0x88
10005c68:	bc30      	pop	{r4, r5}
10005c6a:	f7ff bf8f 	b.w	10005b8c <i2c_set_baudrate>
10005c6e:	bf00      	nop
10005c70:	200006ec 	.word	0x200006ec
10005c74:	40022000 	.word	0x40022000
10005c78:	40023000 	.word	0x40023000
10005c7c:	40020000 	.word	0x40020000

10005c80 <i2c_read_blocking_until>:
10005c80:	e92d 43f0 	stmdb	sp!, {r4, r5, r6, r7, r8, r9, lr}
10005c84:	b089      	sub	sp, #36	@ 0x24
10005c86:	f10d 0810 	add.w	r8, sp, #16
10005c8a:	4604      	mov	r4, r0
10005c8c:	4616      	mov	r6, r2
10005c8e:	461f      	mov	r7, r3
10005c90:	e9dd 2312 	ldrd	r2, r3, [sp, #72]	@ 0x48
10005c94:	4640      	mov	r0, r8
10005c96:	460d      	mov	r5, r1
10005c98:	f89d 9040 	ldrb.w	r9, [sp, #64]	@ 0x40
10005c9c:	f7fd f9e0 	bl	10003060 <init_single_timeout_until>
10005ca0:	463b      	mov	r3, r7
10005ca2:	e9cd 0801 	strd	r0, r8, [sp, #4]
10005ca6:	4632      	mov	r2, r6
10005ca8:	4629      	mov	r1, r5
10005caa:	4620      	mov	r0, r4
10005cac:	f8cd 9000 	str.w	r9, [sp]
10005cb0:	f7ff ff16 	bl	10005ae0 <i2c_read_blocking_internal>
10005cb4:	b009      	add	sp, #36	@ 0x24
10005cb6:	e8bd 83f0 	ldmia.w	sp!, {r4, r5, r6, r7, r8, r9, pc}
10005cba:	bf00      	nop

10005cbc <spi_init>:
10005cbc:	e92d 4ff8 	stmdb	sp!, {r3, r4, r5, r6, r7, r8, r9, sl, fp, lr}
10005cc0:	4b37      	ldr	r3, [pc, #220]	@ (10005da0 <spi_init+0xe4>)
10005cc2:	4607      	mov	r7, r0
10005cc4:	4298      	cmp	r0, r3
10005cc6:	bf14      	ite	ne
10005cc8:	f44f 2300 	movne.w	r3, #524288	@ 0x80000
10005ccc:	f44f 2380 	moveq.w	r3, #262144	@ 0x40000
10005cd0:	460e      	mov	r6, r1
10005cd2:	4d34      	ldr	r5, [pc, #208]	@ (10005da4 <spi_init+0xe8>)
10005cd4:	4c34      	ldr	r4, [pc, #208]	@ (10005da8 <spi_init+0xec>)
10005cd6:	4a35      	ldr	r2, [pc, #212]	@ (10005dac <spi_init+0xf0>)
10005cd8:	602b      	str	r3, [r5, #0]
10005cda:	6023      	str	r3, [r4, #0]
10005cdc:	6894      	ldr	r4, [r2, #8]
10005cde:	ea33 0404 	bics.w	r4, r3, r4
10005ce2:	d1fb      	bne.n	10005cdc <spi_init+0x20>
10005ce4:	2006      	movs	r0, #6
10005ce6:	f7fd fb59 	bl	1000339c <clock_get_hz>
10005cea:	4639      	mov	r1, r7
10005cec:	2302      	movs	r3, #2
10005cee:	f851 2f04 	ldr.w	r2, [r1, #4]!
10005cf2:	ea4f 2e46 	mov.w	lr, r6, lsl #9
10005cf6:	ea4f 5bd6 	mov.w	fp, r6, lsr #23
10005cfa:	4570      	cmp	r0, lr
10005cfc:	ea02 0803 	and.w	r8, r2, r3
10005d00:	f501 5940 	add.w	r9, r1, #12288	@ 0x3000
10005d04:	eb74 020b 	sbcs.w	r2, r4, fp
10005d08:	f8c9 3000 	str.w	r3, [r9]
10005d0c:	d311      	bcc.n	10005d32 <spi_init+0x76>
10005d0e:	ea4f 5c96 	mov.w	ip, r6, lsr #22
10005d12:	02b2      	lsls	r2, r6, #10
10005d14:	e001      	b.n	10005d1a <spi_init+0x5e>
10005d16:	4652      	mov	r2, sl
10005d18:	46ac      	mov	ip, r5
10005d1a:	3302      	adds	r3, #2
10005d1c:	f5b3 7f80 	cmp.w	r3, #256	@ 0x100
10005d20:	d007      	beq.n	10005d32 <spi_init+0x76>
10005d22:	eb1e 0a02 	adds.w	sl, lr, r2
10005d26:	eb4b 050c 	adc.w	r5, fp, ip
10005d2a:	4290      	cmp	r0, r2
10005d2c:	eb74 0c0c 	sbcs.w	ip, r4, ip
10005d30:	d2f1      	bcs.n	10005d16 <spi_init+0x5a>
10005d32:	f44f 7280 	mov.w	r2, #256	@ 0x100
10005d36:	ebc3 2403 	rsb	r4, r3, r3, lsl #8
10005d3a:	4694      	mov	ip, r2
10005d3c:	3a01      	subs	r2, #1
10005d3e:	d02d      	beq.n	10005d9c <spi_init+0xe0>
10005d40:	fbb0 f5f4 	udiv	r5, r0, r4
10005d44:	42ae      	cmp	r6, r5
10005d46:	eba4 0403 	sub.w	r4, r4, r3
10005d4a:	d2f6      	bcs.n	10005d3a <spi_init+0x7e>
10005d4c:	fb0c fc03 	mul.w	ip, ip, r3
10005d50:	0212      	lsls	r2, r2, #8
10005d52:	2402      	movs	r4, #2
10005d54:	613b      	str	r3, [r7, #16]
10005d56:	463b      	mov	r3, r7
10005d58:	2503      	movs	r5, #3
10005d5a:	683e      	ldr	r6, [r7, #0]
10005d5c:	f501 5100 	add.w	r1, r1, #8192	@ 0x2000
10005d60:	4072      	eors	r2, r6
10005d62:	fbb0 f0fc 	udiv	r0, r0, ip
10005d66:	f402 427f 	and.w	r2, r2, #65280	@ 0xff00
10005d6a:	f507 5c80 	add.w	ip, r7, #4096	@ 0x1000
10005d6e:	f8cc 2000 	str.w	r2, [ip]
10005d72:	f8c1 8000 	str.w	r8, [r1]
10005d76:	687e      	ldr	r6, [r7, #4]
10005d78:	f8c9 4000 	str.w	r4, [r9]
10005d7c:	f853 2b24 	ldr.w	r2, [r3], #36
10005d80:	4026      	ands	r6, r4
10005d82:	f082 0207 	eor.w	r2, r2, #7
10005d86:	f002 02cf 	and.w	r2, r2, #207	@ 0xcf
10005d8a:	f503 5300 	add.w	r3, r3, #8192	@ 0x2000
10005d8e:	f8cc 2000 	str.w	r2, [ip]
10005d92:	600e      	str	r6, [r1, #0]
10005d94:	601d      	str	r5, [r3, #0]
10005d96:	600c      	str	r4, [r1, #0]
10005d98:	e8bd 8ff8 	ldmia.w	sp!, {r3, r4, r5, r6, r7, r8, r9, sl, fp, pc}
10005d9c:	469c      	mov	ip, r3
10005d9e:	e7d8      	b.n	10005d52 <spi_init+0x96>
10005da0:	40080000 	.word	0x40080000
10005da4:	40022000 	.word	0x40022000
10005da8:	40023000 	.word	0x40023000
10005dac:	40020000 	.word	0x40020000

10005db0 <tud_mounted>:
10005db0:	4b02      	ldr	r3, [pc, #8]	@ (10005dbc <tud_mounted+0xc>)
10005db2:	7858      	ldrb	r0, [r3, #1]
10005db4:	3800      	subs	r0, #0
10005db6:	bf18      	it	ne
10005db8:	2001      	movne	r0, #1
10005dba:	4770      	bx	lr
10005dbc:	20001230 	.word	0x20001230

10005dc0 <tud_suspended>:
10005dc0:	4b02      	ldr	r3, [pc, #8]	@ (10005dcc <tud_suspended+0xc>)
10005dc2:	7818      	ldrb	r0, [r3, #0]
10005dc4:	f3c0 0080 	ubfx	r0, r0, #2, #1
10005dc8:	4770      	bx	lr
10005dca:	bf00      	nop
10005dcc:	20001230 	.word	0x20001230

10005dd0 <tud_cdc_n_connected>:
10005dd0:	b510      	push	{r4, lr}
10005dd2:	4604      	mov	r4, r0
10005dd4:	f7ff ffec 	bl	10005db0 <tud_mounted>
10005dd8:	b908      	cbnz	r0, 10005dde <tud_cdc_n_connected+0xe>
10005dda:	2000      	movs	r0, #0
10005ddc:	bd10      	pop	{r4, pc}
10005dde:	f7ff ffef 	bl	10005dc0 <tud_suspended>
10005de2:	2800      	cmp	r0, #0
10005de4:	d1f9      	bne.n	10005dda <tud_cdc_n_connected+0xa>
10005de6:	f44f 72a4 	mov.w	r2, #328	@ 0x148
10005dea:	4b03      	ldr	r3, [pc, #12]	@ (10005df8 <tud_cdc_n_connected+0x28>)
10005dec:	fb02 3304 	mla	r3, r2, r4, r3
10005df0:	7918      	ldrb	r0, [r3, #4]
10005df2:	f000 0001 	and.w	r0, r0, #1
10005df6:	bd10      	pop	{r4, pc}
10005df8:	20000dd0 	.word	0x20000dd0

10005dfc <_retrieve_unique_id_on_boot>:
10005dfc:	b500      	push	{lr}
10005dfe:	f245 3047 	movw	r0, #21319	@ 0x5347
10005e02:	b08b      	sub	sp, #44	@ 0x2c
10005e04:	f7fd fb22 	bl	1000344c <rom_func_lookup>
10005e08:	2201      	movs	r2, #1
10005e0a:	4603      	mov	r3, r0
10005e0c:	2109      	movs	r1, #9
10005e0e:	a801      	add	r0, sp, #4
10005e10:	4798      	blx	r3
10005e12:	e9dd 3203 	ldrd	r3, r2, [sp, #12]
10005e16:	4904      	ldr	r1, [pc, #16]	@ (10005e28 <_retrieve_unique_id_on_boot+0x2c>)
10005e18:	ba12      	rev	r2, r2
10005e1a:	ba1b      	rev	r3, r3
10005e1c:	e9c1 2300 	strd	r2, r3, [r1]
10005e20:	b00b      	add	sp, #44	@ 0x2c
10005e22:	f85d fb04 	ldr.w	pc, [sp], #4
10005e26:	bf00      	nop
10005e28:	20001380 	.word	0x20001380

10005e2c <_calloc_r>:
10005e2c:	b538      	push	{r3, r4, r5, lr}
10005e2e:	fba1 1402 	umull	r1, r4, r1, r2
10005e32:	bb34      	cbnz	r4, 10005e82 <_calloc_r+0x56>
10005e34:	f000 f842 	bl	10005ebc <_malloc_r>
10005e38:	4605      	mov	r5, r0
10005e3a:	b330      	cbz	r0, 10005e8a <_calloc_r+0x5e>
10005e3c:	f850 2c04 	ldr.w	r2, [r0, #-4]
10005e40:	f022 0203 	bic.w	r2, r2, #3
10005e44:	3a04      	subs	r2, #4
10005e46:	2a24      	cmp	r2, #36	@ 0x24
10005e48:	d80c      	bhi.n	10005e64 <_calloc_r+0x38>
10005e4a:	2a13      	cmp	r2, #19
10005e4c:	d90f      	bls.n	10005e6e <_calloc_r+0x42>
10005e4e:	2a1b      	cmp	r2, #27
10005e50:	e9c0 4400 	strd	r4, r4, [r0]
10005e54:	d912      	bls.n	10005e7c <_calloc_r+0x50>
10005e56:	2a24      	cmp	r2, #36	@ 0x24
10005e58:	e9c0 4402 	strd	r4, r4, [r0, #8]
10005e5c:	d018      	beq.n	10005e90 <_calloc_r+0x64>
10005e5e:	f100 0210 	add.w	r2, r0, #16
10005e62:	e005      	b.n	10005e70 <_calloc_r+0x44>
10005e64:	4621      	mov	r1, r4
10005e66:	f000 fd33 	bl	100068d0 <memset>
10005e6a:	4628      	mov	r0, r5
10005e6c:	bd38      	pop	{r3, r4, r5, pc}
10005e6e:	4602      	mov	r2, r0
10005e70:	2300      	movs	r3, #0
10005e72:	4628      	mov	r0, r5
10005e74:	e9c2 3300 	strd	r3, r3, [r2]
10005e78:	6093      	str	r3, [r2, #8]
10005e7a:	bd38      	pop	{r3, r4, r5, pc}
10005e7c:	f100 0208 	add.w	r2, r0, #8
10005e80:	e7f6      	b.n	10005e70 <_calloc_r+0x44>
10005e82:	f000 fdad 	bl	100069e0 <__errno>
10005e86:	230c      	movs	r3, #12
10005e88:	6003      	str	r3, [r0, #0]
10005e8a:	2500      	movs	r5, #0
10005e8c:	4628      	mov	r0, r5
10005e8e:	bd38      	pop	{r3, r4, r5, pc}
10005e90:	f100 0218 	add.w	r2, r0, #24
10005e94:	e9c0 4404 	strd	r4, r4, [r0, #16]
10005e98:	e7ea      	b.n	10005e70 <_calloc_r+0x44>
10005e9a:	bf00      	nop

10005e9c <malloc>:
10005e9c:	4b02      	ldr	r3, [pc, #8]	@ (10005ea8 <malloc+0xc>)
10005e9e:	4601      	mov	r1, r0
10005ea0:	6818      	ldr	r0, [r3, #0]
10005ea2:	f000 b80b 	b.w	10005ebc <_malloc_r>
10005ea6:	bf00      	nop
10005ea8:	20000b08 	.word	0x20000b08

10005eac <free>:
10005eac:	4b02      	ldr	r3, [pc, #8]	@ (10005eb8 <free+0xc>)
10005eae:	4601      	mov	r1, r0
10005eb0:	6818      	ldr	r0, [r3, #0]
10005eb2:	f000 bf8f 	b.w	10006dd4 <_free_r>
10005eb6:	bf00      	nop
10005eb8:	20000b08 	.word	0x20000b08

10005ebc <_malloc_r>:
10005ebc:	f101 030b 	add.w	r3, r1, #11
10005ec0:	2b16      	cmp	r3, #22
10005ec2:	e92d 4ff0 	stmdb	sp!, {r4, r5, r6, r7, r8, r9, sl, fp, lr}
10005ec6:	4607      	mov	r7, r0
10005ec8:	b083      	sub	sp, #12
10005eca:	d823      	bhi.n	10005f14 <_malloc_r+0x58>
10005ecc:	2910      	cmp	r1, #16
10005ece:	f200 80af 	bhi.w	10006030 <_malloc_r+0x174>
10005ed2:	f000 fa9d 	bl	10006410 <__malloc_lock>
10005ed6:	2510      	movs	r5, #16
10005ed8:	2318      	movs	r3, #24
10005eda:	2002      	movs	r0, #2
10005edc:	4ebc      	ldr	r6, [pc, #752]	@ (100061d0 <_malloc_r+0x314>)
10005ede:	4433      	add	r3, r6
10005ee0:	685c      	ldr	r4, [r3, #4]
10005ee2:	f1a3 0208 	sub.w	r2, r3, #8
10005ee6:	4294      	cmp	r4, r2
10005ee8:	f000 8180 	beq.w	100061ec <_malloc_r+0x330>
10005eec:	6863      	ldr	r3, [r4, #4]
10005eee:	4638      	mov	r0, r7
10005ef0:	f023 0303 	bic.w	r3, r3, #3
10005ef4:	e9d4 1202 	ldrd	r1, r2, [r4, #8]
10005ef8:	4423      	add	r3, r4
10005efa:	60ca      	str	r2, [r1, #12]
10005efc:	6091      	str	r1, [r2, #8]
10005efe:	685a      	ldr	r2, [r3, #4]
10005f00:	3408      	adds	r4, #8
10005f02:	f042 0201 	orr.w	r2, r2, #1
10005f06:	605a      	str	r2, [r3, #4]
10005f08:	f000 fa88 	bl	1000641c <__malloc_unlock>
10005f0c:	4620      	mov	r0, r4
10005f0e:	b003      	add	sp, #12
10005f10:	e8bd 8ff0 	ldmia.w	sp!, {r4, r5, r6, r7, r8, r9, sl, fp, pc}
10005f14:	2b00      	cmp	r3, #0
10005f16:	f023 0507 	bic.w	r5, r3, #7
10005f1a:	f2c0 8089 	blt.w	10006030 <_malloc_r+0x174>
10005f1e:	42a9      	cmp	r1, r5
10005f20:	f200 8086 	bhi.w	10006030 <_malloc_r+0x174>
10005f24:	f000 fa74 	bl	10006410 <__malloc_lock>
10005f28:	f5b5 7ffc 	cmp.w	r5, #504	@ 0x1f8
10005f2c:	f0c0 81b4 	bcc.w	10006298 <_malloc_r+0x3dc>
10005f30:	0a6b      	lsrs	r3, r5, #9
10005f32:	f000 8081 	beq.w	10006038 <_malloc_r+0x17c>
10005f36:	2b04      	cmp	r3, #4
10005f38:	f200 817e 	bhi.w	10006238 <_malloc_r+0x37c>
10005f3c:	09ab      	lsrs	r3, r5, #6
10005f3e:	f103 0039 	add.w	r0, r3, #57	@ 0x39
10005f42:	f103 0e38 	add.w	lr, r3, #56	@ 0x38
10005f46:	00c3      	lsls	r3, r0, #3
10005f48:	4ea1      	ldr	r6, [pc, #644]	@ (100061d0 <_malloc_r+0x314>)
10005f4a:	4433      	add	r3, r6
10005f4c:	f1a3 0c08 	sub.w	ip, r3, #8
10005f50:	685c      	ldr	r4, [r3, #4]
10005f52:	45a4      	cmp	ip, r4
10005f54:	d107      	bne.n	10005f66 <_malloc_r+0xaa>
10005f56:	e00d      	b.n	10005f74 <_malloc_r+0xb8>
10005f58:	2a00      	cmp	r2, #0
10005f5a:	68e1      	ldr	r1, [r4, #12]
10005f5c:	f280 8132 	bge.w	100061c4 <_malloc_r+0x308>
10005f60:	458c      	cmp	ip, r1
10005f62:	460c      	mov	r4, r1
10005f64:	d006      	beq.n	10005f74 <_malloc_r+0xb8>
10005f66:	6863      	ldr	r3, [r4, #4]
10005f68:	f023 0303 	bic.w	r3, r3, #3
10005f6c:	1b5a      	subs	r2, r3, r5
10005f6e:	2a0f      	cmp	r2, #15
10005f70:	ddf2      	ble.n	10005f58 <_malloc_r+0x9c>
10005f72:	4670      	mov	r0, lr
10005f74:	f8df 8270 	ldr.w	r8, [pc, #624]	@ 100061e8 <_malloc_r+0x32c>
10005f78:	6934      	ldr	r4, [r6, #16]
10005f7a:	4544      	cmp	r4, r8
10005f7c:	f000 80e7 	beq.w	1000614e <_malloc_r+0x292>
10005f80:	6863      	ldr	r3, [r4, #4]
10005f82:	f023 0c03 	bic.w	ip, r3, #3
10005f86:	ebac 0305 	sub.w	r3, ip, r5
10005f8a:	2b0f      	cmp	r3, #15
10005f8c:	f300 8194 	bgt.w	100062b8 <_malloc_r+0x3fc>
10005f90:	2b00      	cmp	r3, #0
10005f92:	e9c6 8804 	strd	r8, r8, [r6, #16]
10005f96:	f280 8183 	bge.w	100062a0 <_malloc_r+0x3e4>
10005f9a:	f5bc 7f00 	cmp.w	ip, #512	@ 0x200
10005f9e:	f8d6 e004 	ldr.w	lr, [r6, #4]
10005fa2:	f080 8129 	bcs.w	100061f8 <_malloc_r+0x33c>
10005fa6:	ea4f 03dc 	mov.w	r3, ip, lsr #3
10005faa:	2201      	movs	r2, #1
10005fac:	ea4f 1c5c 	mov.w	ip, ip, lsr #5
10005fb0:	3301      	adds	r3, #1
10005fb2:	fa02 f20c 	lsl.w	r2, r2, ip
10005fb6:	f856 1033 	ldr.w	r1, [r6, r3, lsl #3]
10005fba:	ea4e 0e02 	orr.w	lr, lr, r2
10005fbe:	eb06 02c3 	add.w	r2, r6, r3, lsl #3
10005fc2:	3a08      	subs	r2, #8
10005fc4:	f8c6 e004 	str.w	lr, [r6, #4]
10005fc8:	e9c4 1202 	strd	r1, r2, [r4, #8]
10005fcc:	f846 4033 	str.w	r4, [r6, r3, lsl #3]
10005fd0:	60cc      	str	r4, [r1, #12]
10005fd2:	1083      	asrs	r3, r0, #2
10005fd4:	f04f 0c01 	mov.w	ip, #1
10005fd8:	fa0c fc03 	lsl.w	ip, ip, r3
10005fdc:	45f4      	cmp	ip, lr
10005fde:	d831      	bhi.n	10006044 <_malloc_r+0x188>
10005fe0:	ea1c 0f0e 	tst.w	ip, lr
10005fe4:	d107      	bne.n	10005ff6 <_malloc_r+0x13a>
10005fe6:	f020 0003 	bic.w	r0, r0, #3
10005fea:	ea4f 0c4c 	mov.w	ip, ip, lsl #1
10005fee:	3004      	adds	r0, #4
10005ff0:	ea1c 0f0e 	tst.w	ip, lr
10005ff4:	d0f9      	beq.n	10005fea <_malloc_r+0x12e>
10005ff6:	eb06 0ac0 	add.w	sl, r6, r0, lsl #3
10005ffa:	4681      	mov	r9, r0
10005ffc:	46d6      	mov	lr, sl
10005ffe:	f8de 300c 	ldr.w	r3, [lr, #12]
10006002:	e00b      	b.n	1000601c <_malloc_r+0x160>
10006004:	685a      	ldr	r2, [r3, #4]
10006006:	461c      	mov	r4, r3
10006008:	68db      	ldr	r3, [r3, #12]
1000600a:	f022 0203 	bic.w	r2, r2, #3
1000600e:	1b51      	subs	r1, r2, r5
10006010:	290f      	cmp	r1, #15
10006012:	f300 811d 	bgt.w	10006250 <_malloc_r+0x394>
10006016:	2900      	cmp	r1, #0
10006018:	f280 8131 	bge.w	1000627e <_malloc_r+0x3c2>
1000601c:	459e      	cmp	lr, r3
1000601e:	d1f1      	bne.n	10006004 <_malloc_r+0x148>
10006020:	f109 0901 	add.w	r9, r9, #1
10006024:	f10e 0e08 	add.w	lr, lr, #8
10006028:	f019 0f03 	tst.w	r9, #3
1000602c:	d1e7      	bne.n	10005ffe <_malloc_r+0x142>
1000602e:	e167      	b.n	10006300 <_malloc_r+0x444>
10006030:	230c      	movs	r3, #12
10006032:	603b      	str	r3, [r7, #0]
10006034:	2400      	movs	r4, #0
10006036:	e769      	b.n	10005f0c <_malloc_r+0x50>
10006038:	f44f 7300 	mov.w	r3, #512	@ 0x200
1000603c:	2040      	movs	r0, #64	@ 0x40
1000603e:	f04f 0e3f 	mov.w	lr, #63	@ 0x3f
10006042:	e781      	b.n	10005f48 <_malloc_r+0x8c>
10006044:	68b4      	ldr	r4, [r6, #8]
10006046:	6863      	ldr	r3, [r4, #4]
10006048:	f023 0903 	bic.w	r9, r3, #3
1000604c:	eba9 0305 	sub.w	r3, r9, r5
10006050:	2b0f      	cmp	r3, #15
10006052:	dd02      	ble.n	1000605a <_malloc_r+0x19e>
10006054:	45a9      	cmp	r9, r5
10006056:	f080 80a4 	bcs.w	100061a2 <_malloc_r+0x2e6>
1000605a:	4b5e      	ldr	r3, [pc, #376]	@ (100061d4 <_malloc_r+0x318>)
1000605c:	2008      	movs	r0, #8
1000605e:	681b      	ldr	r3, [r3, #0]
10006060:	f103 0810 	add.w	r8, r3, #16
10006064:	eb04 0309 	add.w	r3, r4, r9
10006068:	9300      	str	r3, [sp, #0]
1000606a:	f000 fcc7 	bl	100069fc <sysconf>
1000606e:	4a5a      	ldr	r2, [pc, #360]	@ (100061d8 <_malloc_r+0x31c>)
10006070:	44a8      	add	r8, r5
10006072:	4683      	mov	fp, r0
10006074:	6813      	ldr	r3, [r2, #0]
10006076:	3301      	adds	r3, #1
10006078:	d005      	beq.n	10006086 <_malloc_r+0x1ca>
1000607a:	f108 38ff 	add.w	r8, r8, #4294967295
1000607e:	4243      	negs	r3, r0
10006080:	4480      	add	r8, r0
10006082:	ea03 0808 	and.w	r8, r3, r8
10006086:	4641      	mov	r1, r8
10006088:	4638      	mov	r0, r7
1000608a:	f000 fc97 	bl	100069bc <_sbrk_r>
1000608e:	f1b0 3fff 	cmp.w	r0, #4294967295
10006092:	4682      	mov	sl, r0
10006094:	4a50      	ldr	r2, [pc, #320]	@ (100061d8 <_malloc_r+0x31c>)
10006096:	d079      	beq.n	1000618c <_malloc_r+0x2d0>
10006098:	9b00      	ldr	r3, [sp, #0]
1000609a:	4283      	cmp	r3, r0
1000609c:	d95a      	bls.n	10006154 <_malloc_r+0x298>
1000609e:	42b4      	cmp	r4, r6
100060a0:	d174      	bne.n	1000618c <_malloc_r+0x2d0>
100060a2:	4b4e      	ldr	r3, [pc, #312]	@ (100061dc <_malloc_r+0x320>)
100060a4:	f10b 3cff 	add.w	ip, fp, #4294967295
100060a8:	6818      	ldr	r0, [r3, #0]
100060aa:	eb00 0e08 	add.w	lr, r0, r8
100060ae:	f8c3 e000 	str.w	lr, [r3]
100060b2:	6811      	ldr	r1, [r2, #0]
100060b4:	3101      	adds	r1, #1
100060b6:	f000 8173 	beq.w	100063a0 <_malloc_r+0x4e4>
100060ba:	9a00      	ldr	r2, [sp, #0]
100060bc:	ebaa 0202 	sub.w	r2, sl, r2
100060c0:	4472      	add	r2, lr
100060c2:	601a      	str	r2, [r3, #0]
100060c4:	f01a 0207 	ands.w	r2, sl, #7
100060c8:	e9cd 2300 	strd	r2, r3, [sp]
100060cc:	f000 8142 	beq.w	10006354 <_malloc_r+0x498>
100060d0:	f1c2 0208 	rsb	r2, r2, #8
100060d4:	4638      	mov	r0, r7
100060d6:	4492      	add	sl, r2
100060d8:	445a      	add	r2, fp
100060da:	44d0      	add	r8, sl
100060dc:	ea08 010c 	and.w	r1, r8, ip
100060e0:	1a52      	subs	r2, r2, r1
100060e2:	ea02 0b0c 	and.w	fp, r2, ip
100060e6:	4659      	mov	r1, fp
100060e8:	f000 fc68 	bl	100069bc <_sbrk_r>
100060ec:	1c42      	adds	r2, r0, #1
100060ee:	9b01      	ldr	r3, [sp, #4]
100060f0:	f000 816e 	beq.w	100063d0 <_malloc_r+0x514>
100060f4:	eba0 000a 	sub.w	r0, r0, sl
100060f8:	eb00 080b 	add.w	r8, r0, fp
100060fc:	6819      	ldr	r1, [r3, #0]
100060fe:	f048 0201 	orr.w	r2, r8, #1
10006102:	42b4      	cmp	r4, r6
10006104:	f8c6 a008 	str.w	sl, [r6, #8]
10006108:	4459      	add	r1, fp
1000610a:	f8ca 2004 	str.w	r2, [sl, #4]
1000610e:	6019      	str	r1, [r3, #0]
10006110:	d032      	beq.n	10006178 <_malloc_r+0x2bc>
10006112:	f1b9 0f0f 	cmp.w	r9, #15
10006116:	f240 810c 	bls.w	10006332 <_malloc_r+0x476>
1000611a:	6860      	ldr	r0, [r4, #4]
1000611c:	f1a9 020c 	sub.w	r2, r9, #12
10006120:	f04f 0c05 	mov.w	ip, #5
10006124:	f022 0207 	bic.w	r2, r2, #7
10006128:	f000 0001 	and.w	r0, r0, #1
1000612c:	4310      	orrs	r0, r2
1000612e:	2a0f      	cmp	r2, #15
10006130:	6060      	str	r0, [r4, #4]
10006132:	eb04 0002 	add.w	r0, r4, r2
10006136:	e9c0 cc01 	strd	ip, ip, [r0, #4]
1000613a:	d91d      	bls.n	10006178 <_malloc_r+0x2bc>
1000613c:	f104 0108 	add.w	r1, r4, #8
10006140:	4638      	mov	r0, r7
10006142:	9300      	str	r3, [sp, #0]
10006144:	f000 fe46 	bl	10006dd4 <_free_r>
10006148:	9b00      	ldr	r3, [sp, #0]
1000614a:	6819      	ldr	r1, [r3, #0]
1000614c:	e014      	b.n	10006178 <_malloc_r+0x2bc>
1000614e:	f8d6 e004 	ldr.w	lr, [r6, #4]
10006152:	e73e      	b.n	10005fd2 <_malloc_r+0x116>
10006154:	4b21      	ldr	r3, [pc, #132]	@ (100061dc <_malloc_r+0x320>)
10006156:	f10b 3cff 	add.w	ip, fp, #4294967295
1000615a:	6819      	ldr	r1, [r3, #0]
1000615c:	4441      	add	r1, r8
1000615e:	468e      	mov	lr, r1
10006160:	6019      	str	r1, [r3, #0]
10006162:	d1a6      	bne.n	100060b2 <_malloc_r+0x1f6>
10006164:	9800      	ldr	r0, [sp, #0]
10006166:	ea10 0f0c 	tst.w	r0, ip
1000616a:	d1a2      	bne.n	100060b2 <_malloc_r+0x1f6>
1000616c:	eb09 0308 	add.w	r3, r9, r8
10006170:	68b2      	ldr	r2, [r6, #8]
10006172:	f043 0301 	orr.w	r3, r3, #1
10006176:	6053      	str	r3, [r2, #4]
10006178:	4b19      	ldr	r3, [pc, #100]	@ (100061e0 <_malloc_r+0x324>)
1000617a:	681a      	ldr	r2, [r3, #0]
1000617c:	428a      	cmp	r2, r1
1000617e:	bf38      	it	cc
10006180:	6019      	strcc	r1, [r3, #0]
10006182:	4b18      	ldr	r3, [pc, #96]	@ (100061e4 <_malloc_r+0x328>)
10006184:	681a      	ldr	r2, [r3, #0]
10006186:	428a      	cmp	r2, r1
10006188:	bf38      	it	cc
1000618a:	6019      	strcc	r1, [r3, #0]
1000618c:	68b4      	ldr	r4, [r6, #8]
1000618e:	6862      	ldr	r2, [r4, #4]
10006190:	f022 0203 	bic.w	r2, r2, #3
10006194:	1b53      	subs	r3, r2, r5
10006196:	2b0f      	cmp	r3, #15
10006198:	f340 80ce 	ble.w	10006338 <_malloc_r+0x47c>
1000619c:	4295      	cmp	r5, r2
1000619e:	f200 80cb 	bhi.w	10006338 <_malloc_r+0x47c>
100061a2:	1962      	adds	r2, r4, r5
100061a4:	f045 0501 	orr.w	r5, r5, #1
100061a8:	f043 0301 	orr.w	r3, r3, #1
100061ac:	3408      	adds	r4, #8
100061ae:	f844 5c04 	str.w	r5, [r4, #-4]
100061b2:	4638      	mov	r0, r7
100061b4:	60b2      	str	r2, [r6, #8]
100061b6:	6053      	str	r3, [r2, #4]
100061b8:	f000 f930 	bl	1000641c <__malloc_unlock>
100061bc:	4620      	mov	r0, r4
100061be:	b003      	add	sp, #12
100061c0:	e8bd 8ff0 	ldmia.w	sp!, {r4, r5, r6, r7, r8, r9, sl, fp, pc}
100061c4:	68a2      	ldr	r2, [r4, #8]
100061c6:	4423      	add	r3, r4
100061c8:	4638      	mov	r0, r7
100061ca:	60d1      	str	r1, [r2, #12]
100061cc:	608a      	str	r2, [r1, #8]
100061ce:	e696      	b.n	10005efe <_malloc_r+0x42>
100061d0:	20000700 	.word	0x20000700
100061d4:	200010d0 	.word	0x200010d0
100061d8:	200006f4 	.word	0x200006f4
100061dc:	200010a0 	.word	0x200010a0
100061e0:	200010c8 	.word	0x200010c8
100061e4:	200010cc 	.word	0x200010cc
100061e8:	20000708 	.word	0x20000708
100061ec:	68dc      	ldr	r4, [r3, #12]
100061ee:	42a3      	cmp	r3, r4
100061f0:	f47f ae7c 	bne.w	10005eec <_malloc_r+0x30>
100061f4:	3002      	adds	r0, #2
100061f6:	e6bd      	b.n	10005f74 <_malloc_r+0xb8>
100061f8:	f5bc 6f20 	cmp.w	ip, #2560	@ 0xa00
100061fc:	ea4f 225c 	mov.w	r2, ip, lsr #9
10006200:	d36c      	bcc.n	100062dc <_malloc_r+0x420>
10006202:	2a14      	cmp	r2, #20
10006204:	f200 80b9 	bhi.w	1000637a <_malloc_r+0x4be>
10006208:	f102 035c 	add.w	r3, r2, #92	@ 0x5c
1000620c:	325b      	adds	r2, #91	@ 0x5b
1000620e:	00db      	lsls	r3, r3, #3
10006210:	18f1      	adds	r1, r6, r3
10006212:	58f3      	ldr	r3, [r6, r3]
10006214:	3908      	subs	r1, #8
10006216:	4299      	cmp	r1, r3
10006218:	d103      	bne.n	10006222 <_malloc_r+0x366>
1000621a:	e091      	b.n	10006340 <_malloc_r+0x484>
1000621c:	689b      	ldr	r3, [r3, #8]
1000621e:	4299      	cmp	r1, r3
10006220:	d004      	beq.n	1000622c <_malloc_r+0x370>
10006222:	685a      	ldr	r2, [r3, #4]
10006224:	f022 0203 	bic.w	r2, r2, #3
10006228:	4562      	cmp	r2, ip
1000622a:	d8f7      	bhi.n	1000621c <_malloc_r+0x360>
1000622c:	68d9      	ldr	r1, [r3, #12]
1000622e:	e9c4 3102 	strd	r3, r1, [r4, #8]
10006232:	608c      	str	r4, [r1, #8]
10006234:	60dc      	str	r4, [r3, #12]
10006236:	e6cc      	b.n	10005fd2 <_malloc_r+0x116>
10006238:	2b14      	cmp	r3, #20
1000623a:	d956      	bls.n	100062ea <_malloc_r+0x42e>
1000623c:	2b54      	cmp	r3, #84	@ 0x54
1000623e:	f200 80a5 	bhi.w	1000638c <_malloc_r+0x4d0>
10006242:	0b2b      	lsrs	r3, r5, #12
10006244:	f103 006f 	add.w	r0, r3, #111	@ 0x6f
10006248:	f103 0e6e 	add.w	lr, r3, #110	@ 0x6e
1000624c:	00c3      	lsls	r3, r0, #3
1000624e:	e67b      	b.n	10005f48 <_malloc_r+0x8c>
10006250:	f8d4 c008 	ldr.w	ip, [r4, #8]
10006254:	4638      	mov	r0, r7
10006256:	1967      	adds	r7, r4, r5
10006258:	f045 0501 	orr.w	r5, r5, #1
1000625c:	6065      	str	r5, [r4, #4]
1000625e:	f8cc 300c 	str.w	r3, [ip, #12]
10006262:	f8c3 c008 	str.w	ip, [r3, #8]
10006266:	f041 0301 	orr.w	r3, r1, #1
1000626a:	e9c6 7704 	strd	r7, r7, [r6, #16]
1000626e:	e9c7 8802 	strd	r8, r8, [r7, #8]
10006272:	607b      	str	r3, [r7, #4]
10006274:	50a1      	str	r1, [r4, r2]
10006276:	3408      	adds	r4, #8
10006278:	f000 f8d0 	bl	1000641c <__malloc_unlock>
1000627c:	e646      	b.n	10005f0c <_malloc_r+0x50>
1000627e:	4422      	add	r2, r4
10006280:	4638      	mov	r0, r7
10006282:	6851      	ldr	r1, [r2, #4]
10006284:	f041 0101 	orr.w	r1, r1, #1
10006288:	6051      	str	r1, [r2, #4]
1000628a:	f854 2f08 	ldr.w	r2, [r4, #8]!
1000628e:	60d3      	str	r3, [r2, #12]
10006290:	609a      	str	r2, [r3, #8]
10006292:	f000 f8c3 	bl	1000641c <__malloc_unlock>
10006296:	e639      	b.n	10005f0c <_malloc_r+0x50>
10006298:	08e8      	lsrs	r0, r5, #3
1000629a:	f105 0308 	add.w	r3, r5, #8
1000629e:	e61d      	b.n	10005edc <_malloc_r+0x20>
100062a0:	44a4      	add	ip, r4
100062a2:	4638      	mov	r0, r7
100062a4:	3408      	adds	r4, #8
100062a6:	f8dc 3004 	ldr.w	r3, [ip, #4]
100062aa:	f043 0301 	orr.w	r3, r3, #1
100062ae:	f8cc 3004 	str.w	r3, [ip, #4]
100062b2:	f000 f8b3 	bl	1000641c <__malloc_unlock>
100062b6:	e629      	b.n	10005f0c <_malloc_r+0x50>
100062b8:	1962      	adds	r2, r4, r5
100062ba:	f043 0101 	orr.w	r1, r3, #1
100062be:	f045 0501 	orr.w	r5, r5, #1
100062c2:	4638      	mov	r0, r7
100062c4:	6065      	str	r5, [r4, #4]
100062c6:	e9c6 2204 	strd	r2, r2, [r6, #16]
100062ca:	e9c2 8802 	strd	r8, r8, [r2, #8]
100062ce:	6051      	str	r1, [r2, #4]
100062d0:	f844 300c 	str.w	r3, [r4, ip]
100062d4:	3408      	adds	r4, #8
100062d6:	f000 f8a1 	bl	1000641c <__malloc_unlock>
100062da:	e617      	b.n	10005f0c <_malloc_r+0x50>
100062dc:	ea4f 129c 	mov.w	r2, ip, lsr #6
100062e0:	f102 0339 	add.w	r3, r2, #57	@ 0x39
100062e4:	3238      	adds	r2, #56	@ 0x38
100062e6:	00db      	lsls	r3, r3, #3
100062e8:	e792      	b.n	10006210 <_malloc_r+0x354>
100062ea:	f103 005c 	add.w	r0, r3, #92	@ 0x5c
100062ee:	f103 0e5b 	add.w	lr, r3, #91	@ 0x5b
100062f2:	00c3      	lsls	r3, r0, #3
100062f4:	e628      	b.n	10005f48 <_malloc_r+0x8c>
100062f6:	f85a 3908 	ldr.w	r3, [sl], #-8
100062fa:	4553      	cmp	r3, sl
100062fc:	f040 8085 	bne.w	1000640a <_malloc_r+0x54e>
10006300:	f010 0f03 	tst.w	r0, #3
10006304:	f100 30ff 	add.w	r0, r0, #4294967295
10006308:	d1f5      	bne.n	100062f6 <_malloc_r+0x43a>
1000630a:	6873      	ldr	r3, [r6, #4]
1000630c:	ea23 030c 	bic.w	r3, r3, ip
10006310:	6073      	str	r3, [r6, #4]
10006312:	ea4f 0c4c 	mov.w	ip, ip, lsl #1
10006316:	f10c 32ff 	add.w	r2, ip, #4294967295
1000631a:	429a      	cmp	r2, r3
1000631c:	d304      	bcc.n	10006328 <_malloc_r+0x46c>
1000631e:	e691      	b.n	10006044 <_malloc_r+0x188>
10006320:	ea4f 0c4c 	mov.w	ip, ip, lsl #1
10006324:	f109 0904 	add.w	r9, r9, #4
10006328:	ea1c 0f03 	tst.w	ip, r3
1000632c:	d0f8      	beq.n	10006320 <_malloc_r+0x464>
1000632e:	4648      	mov	r0, r9
10006330:	e661      	b.n	10005ff6 <_malloc_r+0x13a>
10006332:	2301      	movs	r3, #1
10006334:	f8ca 3004 	str.w	r3, [sl, #4]
10006338:	4638      	mov	r0, r7
1000633a:	f000 f86f 	bl	1000641c <__malloc_unlock>
1000633e:	e679      	b.n	10006034 <_malloc_r+0x178>
10006340:	1092      	asrs	r2, r2, #2
10006342:	f04f 0c01 	mov.w	ip, #1
10006346:	fa0c f202 	lsl.w	r2, ip, r2
1000634a:	ea4e 0e02 	orr.w	lr, lr, r2
1000634e:	f8c6 e004 	str.w	lr, [r6, #4]
10006352:	e76c      	b.n	1000622e <_malloc_r+0x372>
10006354:	eb0a 0208 	add.w	r2, sl, r8
10006358:	4638      	mov	r0, r7
1000635a:	ea02 020c 	and.w	r2, r2, ip
1000635e:	ebab 0b02 	sub.w	fp, fp, r2
10006362:	ea0b 0b0c 	and.w	fp, fp, ip
10006366:	4659      	mov	r1, fp
10006368:	f000 fb28 	bl	100069bc <_sbrk_r>
1000636c:	1c43      	adds	r3, r0, #1
1000636e:	9b01      	ldr	r3, [sp, #4]
10006370:	f47f aec0 	bne.w	100060f4 <_malloc_r+0x238>
10006374:	f8dd b000 	ldr.w	fp, [sp]
10006378:	e6c0      	b.n	100060fc <_malloc_r+0x240>
1000637a:	2a54      	cmp	r2, #84	@ 0x54
1000637c:	d813      	bhi.n	100063a6 <_malloc_r+0x4ea>
1000637e:	ea4f 321c 	mov.w	r2, ip, lsr #12
10006382:	f102 036f 	add.w	r3, r2, #111	@ 0x6f
10006386:	326e      	adds	r2, #110	@ 0x6e
10006388:	00db      	lsls	r3, r3, #3
1000638a:	e741      	b.n	10006210 <_malloc_r+0x354>
1000638c:	f5b3 7faa 	cmp.w	r3, #340	@ 0x154
10006390:	d813      	bhi.n	100063ba <_malloc_r+0x4fe>
10006392:	0beb      	lsrs	r3, r5, #15
10006394:	f103 0078 	add.w	r0, r3, #120	@ 0x78
10006398:	f103 0e77 	add.w	lr, r3, #119	@ 0x77
1000639c:	00c3      	lsls	r3, r0, #3
1000639e:	e5d3      	b.n	10005f48 <_malloc_r+0x8c>
100063a0:	f8c2 a000 	str.w	sl, [r2]
100063a4:	e68e      	b.n	100060c4 <_malloc_r+0x208>
100063a6:	f5b2 7faa 	cmp.w	r2, #340	@ 0x154
100063aa:	d819      	bhi.n	100063e0 <_malloc_r+0x524>
100063ac:	ea4f 32dc 	mov.w	r2, ip, lsr #15
100063b0:	f102 0378 	add.w	r3, r2, #120	@ 0x78
100063b4:	3277      	adds	r2, #119	@ 0x77
100063b6:	00db      	lsls	r3, r3, #3
100063b8:	e72a      	b.n	10006210 <_malloc_r+0x354>
100063ba:	f240 5254 	movw	r2, #1364	@ 0x554
100063be:	4293      	cmp	r3, r2
100063c0:	d819      	bhi.n	100063f6 <_malloc_r+0x53a>
100063c2:	0cab      	lsrs	r3, r5, #18
100063c4:	f103 007d 	add.w	r0, r3, #125	@ 0x7d
100063c8:	f103 0e7c 	add.w	lr, r3, #124	@ 0x7c
100063cc:	00c3      	lsls	r3, r0, #3
100063ce:	e5bb      	b.n	10005f48 <_malloc_r+0x8c>
100063d0:	9a00      	ldr	r2, [sp, #0]
100063d2:	f04f 0b00 	mov.w	fp, #0
100063d6:	3a08      	subs	r2, #8
100063d8:	4490      	add	r8, r2
100063da:	eba8 080a 	sub.w	r8, r8, sl
100063de:	e68d      	b.n	100060fc <_malloc_r+0x240>
100063e0:	f240 5354 	movw	r3, #1364	@ 0x554
100063e4:	429a      	cmp	r2, r3
100063e6:	d80c      	bhi.n	10006402 <_malloc_r+0x546>
100063e8:	ea4f 429c 	mov.w	r2, ip, lsr #18
100063ec:	f102 037d 	add.w	r3, r2, #125	@ 0x7d
100063f0:	327c      	adds	r2, #124	@ 0x7c
100063f2:	00db      	lsls	r3, r3, #3
100063f4:	e70c      	b.n	10006210 <_malloc_r+0x354>
100063f6:	f44f 737e 	mov.w	r3, #1016	@ 0x3f8
100063fa:	207f      	movs	r0, #127	@ 0x7f
100063fc:	f04f 0e7e 	mov.w	lr, #126	@ 0x7e
10006400:	e5a2      	b.n	10005f48 <_malloc_r+0x8c>
10006402:	f44f 737e 	mov.w	r3, #1016	@ 0x3f8
10006406:	227e      	movs	r2, #126	@ 0x7e
10006408:	e702      	b.n	10006210 <_malloc_r+0x354>
1000640a:	6873      	ldr	r3, [r6, #4]
1000640c:	e781      	b.n	10006312 <_malloc_r+0x456>
1000640e:	bf00      	nop

10006410 <__malloc_lock>:
10006410:	4801      	ldr	r0, [pc, #4]	@ (10006418 <__malloc_lock+0x8>)
10006412:	f000 baef 	b.w	100069f4 <__retarget_lock_acquire_recursive>
10006416:	bf00      	nop
10006418:	20001098 	.word	0x20001098

1000641c <__malloc_unlock>:
1000641c:	4801      	ldr	r0, [pc, #4]	@ (10006424 <__malloc_unlock+0x8>)
1000641e:	f000 baeb 	b.w	100069f8 <__retarget_lock_release_recursive>
10006422:	bf00      	nop
10006424:	20001098 	.word	0x20001098

10006428 <realloc>:
10006428:	4b02      	ldr	r3, [pc, #8]	@ (10006434 <realloc+0xc>)
1000642a:	460a      	mov	r2, r1
1000642c:	4601      	mov	r1, r0
1000642e:	6818      	ldr	r0, [r3, #0]
10006430:	f000 b802 	b.w	10006438 <_realloc_r>
10006434:	20000b08 	.word	0x20000b08

10006438 <_realloc_r>:
10006438:	e92d 4ff0 	stmdb	sp!, {r4, r5, r6, r7, r8, r9, sl, fp, lr}
1000643c:	4616      	mov	r6, r2
1000643e:	b083      	sub	sp, #12
10006440:	2900      	cmp	r1, #0
10006442:	f000 809e 	beq.w	10006582 <_realloc_r+0x14a>
10006446:	460c      	mov	r4, r1
10006448:	f106 050b 	add.w	r5, r6, #11
1000644c:	4680      	mov	r8, r0
1000644e:	f7ff ffdf 	bl	10006410 <__malloc_lock>
10006452:	f854 0c04 	ldr.w	r0, [r4, #-4]
10006456:	2d16      	cmp	r5, #22
10006458:	f1a4 0908 	sub.w	r9, r4, #8
1000645c:	f020 0703 	bic.w	r7, r0, #3
10006460:	d862      	bhi.n	10006528 <_realloc_r+0xf0>
10006462:	2210      	movs	r2, #16
10006464:	2300      	movs	r3, #0
10006466:	4615      	mov	r5, r2
10006468:	42b5      	cmp	r5, r6
1000646a:	f0c0 80a2 	bcc.w	100065b2 <_realloc_r+0x17a>
1000646e:	2b00      	cmp	r3, #0
10006470:	f040 809f 	bne.w	100065b2 <_realloc_r+0x17a>
10006474:	4297      	cmp	r7, r2
10006476:	da61      	bge.n	1000653c <_realloc_r+0x104>
10006478:	f8df b328 	ldr.w	fp, [pc, #808]	@ 100067a4 <_realloc_r+0x36c>
1000647c:	eb09 0107 	add.w	r1, r9, r7
10006480:	f8db 3008 	ldr.w	r3, [fp, #8]
10006484:	f8d1 c004 	ldr.w	ip, [r1, #4]
10006488:	428b      	cmp	r3, r1
1000648a:	f000 8097 	beq.w	100065bc <_realloc_r+0x184>
1000648e:	f02c 0301 	bic.w	r3, ip, #1
10006492:	440b      	add	r3, r1
10006494:	685b      	ldr	r3, [r3, #4]
10006496:	07db      	lsls	r3, r3, #31
10006498:	d468      	bmi.n	1000656c <_realloc_r+0x134>
1000649a:	f02c 0c03 	bic.w	ip, ip, #3
1000649e:	eb07 030c 	add.w	r3, r7, ip
100064a2:	4293      	cmp	r3, r2
100064a4:	da45      	bge.n	10006532 <_realloc_r+0xfa>
100064a6:	07c3      	lsls	r3, r0, #31
100064a8:	d412      	bmi.n	100064d0 <_realloc_r+0x98>
100064aa:	f854 3c08 	ldr.w	r3, [r4, #-8]
100064ae:	eba9 0a03 	sub.w	sl, r9, r3
100064b2:	f8da 3004 	ldr.w	r3, [sl, #4]
100064b6:	f023 0003 	bic.w	r0, r3, #3
100064ba:	4484      	add	ip, r0
100064bc:	eb0c 0b07 	add.w	fp, ip, r7
100064c0:	455a      	cmp	r2, fp
100064c2:	f340 80fe 	ble.w	100066c2 <_realloc_r+0x28a>
100064c6:	eb07 0b00 	add.w	fp, r7, r0
100064ca:	455a      	cmp	r2, fp
100064cc:	f340 80d4 	ble.w	10006678 <_realloc_r+0x240>
100064d0:	4631      	mov	r1, r6
100064d2:	4640      	mov	r0, r8
100064d4:	f7ff fcf2 	bl	10005ebc <_malloc_r>
100064d8:	4606      	mov	r6, r0
100064da:	2800      	cmp	r0, #0
100064dc:	f000 8129 	beq.w	10006732 <_realloc_r+0x2fa>
100064e0:	f854 3c04 	ldr.w	r3, [r4, #-4]
100064e4:	f1a0 0208 	sub.w	r2, r0, #8
100064e8:	f023 0301 	bic.w	r3, r3, #1
100064ec:	444b      	add	r3, r9
100064ee:	4293      	cmp	r3, r2
100064f0:	f000 80b1 	beq.w	10006656 <_realloc_r+0x21e>
100064f4:	1f3a      	subs	r2, r7, #4
100064f6:	2a24      	cmp	r2, #36	@ 0x24
100064f8:	f200 80df 	bhi.w	100066ba <_realloc_r+0x282>
100064fc:	2a13      	cmp	r2, #19
100064fe:	f200 80b0 	bhi.w	10006662 <_realloc_r+0x22a>
10006502:	4603      	mov	r3, r0
10006504:	4622      	mov	r2, r4
10006506:	6811      	ldr	r1, [r2, #0]
10006508:	6019      	str	r1, [r3, #0]
1000650a:	6851      	ldr	r1, [r2, #4]
1000650c:	6059      	str	r1, [r3, #4]
1000650e:	6892      	ldr	r2, [r2, #8]
10006510:	609a      	str	r2, [r3, #8]
10006512:	4621      	mov	r1, r4
10006514:	4640      	mov	r0, r8
10006516:	f000 fc5d 	bl	10006dd4 <_free_r>
1000651a:	4640      	mov	r0, r8
1000651c:	f7ff ff7e 	bl	1000641c <__malloc_unlock>
10006520:	4630      	mov	r0, r6
10006522:	b003      	add	sp, #12
10006524:	e8bd 8ff0 	ldmia.w	sp!, {r4, r5, r6, r7, r8, r9, sl, fp, pc}
10006528:	f025 0507 	bic.w	r5, r5, #7
1000652c:	462a      	mov	r2, r5
1000652e:	0feb      	lsrs	r3, r5, #31
10006530:	e79a      	b.n	10006468 <_realloc_r+0x30>
10006532:	461f      	mov	r7, r3
10006534:	e9d1 2302 	ldrd	r2, r3, [r1, #8]
10006538:	60d3      	str	r3, [r2, #12]
1000653a:	609a      	str	r2, [r3, #8]
1000653c:	1b78      	subs	r0, r7, r5
1000653e:	f8d9 3004 	ldr.w	r3, [r9, #4]
10006542:	eb09 0207 	add.w	r2, r9, r7
10006546:	280f      	cmp	r0, #15
10006548:	f003 0301 	and.w	r3, r3, #1
1000654c:	d81f      	bhi.n	1000658e <_realloc_r+0x156>
1000654e:	433b      	orrs	r3, r7
10006550:	f8c9 3004 	str.w	r3, [r9, #4]
10006554:	6853      	ldr	r3, [r2, #4]
10006556:	f043 0301 	orr.w	r3, r3, #1
1000655a:	6053      	str	r3, [r2, #4]
1000655c:	4626      	mov	r6, r4
1000655e:	4640      	mov	r0, r8
10006560:	f7ff ff5c 	bl	1000641c <__malloc_unlock>
10006564:	4630      	mov	r0, r6
10006566:	b003      	add	sp, #12
10006568:	e8bd 8ff0 	ldmia.w	sp!, {r4, r5, r6, r7, r8, r9, sl, fp, pc}
1000656c:	07c3      	lsls	r3, r0, #31
1000656e:	d4af      	bmi.n	100064d0 <_realloc_r+0x98>
10006570:	f854 3c08 	ldr.w	r3, [r4, #-8]
10006574:	eba9 0a03 	sub.w	sl, r9, r3
10006578:	f8da 3004 	ldr.w	r3, [sl, #4]
1000657c:	f023 0003 	bic.w	r0, r3, #3
10006580:	e7a1      	b.n	100064c6 <_realloc_r+0x8e>
10006582:	4611      	mov	r1, r2
10006584:	b003      	add	sp, #12
10006586:	e8bd 4ff0 	ldmia.w	sp!, {r4, r5, r6, r7, r8, r9, sl, fp, lr}
1000658a:	f7ff bc97 	b.w	10005ebc <_malloc_r>
1000658e:	432b      	orrs	r3, r5
10006590:	eb09 0105 	add.w	r1, r9, r5
10006594:	f040 0001 	orr.w	r0, r0, #1
10006598:	f8c9 3004 	str.w	r3, [r9, #4]
1000659c:	3108      	adds	r1, #8
1000659e:	f841 0c04 	str.w	r0, [r1, #-4]
100065a2:	4640      	mov	r0, r8
100065a4:	6853      	ldr	r3, [r2, #4]
100065a6:	f043 0301 	orr.w	r3, r3, #1
100065aa:	6053      	str	r3, [r2, #4]
100065ac:	f000 fc12 	bl	10006dd4 <_free_r>
100065b0:	e7d4      	b.n	1000655c <_realloc_r+0x124>
100065b2:	230c      	movs	r3, #12
100065b4:	f8c8 3000 	str.w	r3, [r8]
100065b8:	2600      	movs	r6, #0
100065ba:	e7d3      	b.n	10006564 <_realloc_r+0x12c>
100065bc:	f02c 0c03 	bic.w	ip, ip, #3
100065c0:	f105 0110 	add.w	r1, r5, #16
100065c4:	eb0c 0307 	add.w	r3, ip, r7
100065c8:	428b      	cmp	r3, r1
100065ca:	f280 8092 	bge.w	100066f2 <_realloc_r+0x2ba>
100065ce:	07c0      	lsls	r0, r0, #31
100065d0:	f53f af7e 	bmi.w	100064d0 <_realloc_r+0x98>
100065d4:	f854 3c08 	ldr.w	r3, [r4, #-8]
100065d8:	eba9 0a03 	sub.w	sl, r9, r3
100065dc:	f8da 3004 	ldr.w	r3, [sl, #4]
100065e0:	f023 0003 	bic.w	r0, r3, #3
100065e4:	4484      	add	ip, r0
100065e6:	eb0c 0307 	add.w	r3, ip, r7
100065ea:	4299      	cmp	r1, r3
100065ec:	f73f af6b 	bgt.w	100064c6 <_realloc_r+0x8e>
100065f0:	1f3a      	subs	r2, r7, #4
100065f2:	4656      	mov	r6, sl
100065f4:	f8da 100c 	ldr.w	r1, [sl, #12]
100065f8:	f856 0f08 	ldr.w	r0, [r6, #8]!
100065fc:	2a24      	cmp	r2, #36	@ 0x24
100065fe:	60c1      	str	r1, [r0, #12]
10006600:	6088      	str	r0, [r1, #8]
10006602:	f200 80b0 	bhi.w	10006766 <_realloc_r+0x32e>
10006606:	2a13      	cmp	r2, #19
10006608:	f240 80ab 	bls.w	10006762 <_realloc_r+0x32a>
1000660c:	6821      	ldr	r1, [r4, #0]
1000660e:	2a1b      	cmp	r2, #27
10006610:	f8ca 1008 	str.w	r1, [sl, #8]
10006614:	6861      	ldr	r1, [r4, #4]
10006616:	f8ca 100c 	str.w	r1, [sl, #12]
1000661a:	f200 80ab 	bhi.w	10006774 <_realloc_r+0x33c>
1000661e:	3408      	adds	r4, #8
10006620:	f10a 0210 	add.w	r2, sl, #16
10006624:	6821      	ldr	r1, [r4, #0]
10006626:	6011      	str	r1, [r2, #0]
10006628:	6861      	ldr	r1, [r4, #4]
1000662a:	6051      	str	r1, [r2, #4]
1000662c:	68a1      	ldr	r1, [r4, #8]
1000662e:	6091      	str	r1, [r2, #8]
10006630:	1b5b      	subs	r3, r3, r5
10006632:	eb0a 0205 	add.w	r2, sl, r5
10006636:	4640      	mov	r0, r8
10006638:	f043 0301 	orr.w	r3, r3, #1
1000663c:	f8cb 2008 	str.w	r2, [fp, #8]
10006640:	6053      	str	r3, [r2, #4]
10006642:	f8da 3004 	ldr.w	r3, [sl, #4]
10006646:	f003 0301 	and.w	r3, r3, #1
1000664a:	432b      	orrs	r3, r5
1000664c:	f8ca 3004 	str.w	r3, [sl, #4]
10006650:	f7ff fee4 	bl	1000641c <__malloc_unlock>
10006654:	e786      	b.n	10006564 <_realloc_r+0x12c>
10006656:	f850 3c04 	ldr.w	r3, [r0, #-4]
1000665a:	f023 0303 	bic.w	r3, r3, #3
1000665e:	441f      	add	r7, r3
10006660:	e76c      	b.n	1000653c <_realloc_r+0x104>
10006662:	6823      	ldr	r3, [r4, #0]
10006664:	2a1b      	cmp	r2, #27
10006666:	6003      	str	r3, [r0, #0]
10006668:	6863      	ldr	r3, [r4, #4]
1000666a:	6043      	str	r3, [r0, #4]
1000666c:	d836      	bhi.n	100066dc <_realloc_r+0x2a4>
1000666e:	f104 0208 	add.w	r2, r4, #8
10006672:	f100 0308 	add.w	r3, r0, #8
10006676:	e746      	b.n	10006506 <_realloc_r+0xce>
10006678:	1f3a      	subs	r2, r7, #4
1000667a:	4656      	mov	r6, sl
1000667c:	f8da 300c 	ldr.w	r3, [sl, #12]
10006680:	2a24      	cmp	r2, #36	@ 0x24
10006682:	f856 1f08 	ldr.w	r1, [r6, #8]!
10006686:	60cb      	str	r3, [r1, #12]
10006688:	6099      	str	r1, [r3, #8]
1000668a:	d822      	bhi.n	100066d2 <_realloc_r+0x29a>
1000668c:	2a13      	cmp	r2, #19
1000668e:	d91e      	bls.n	100066ce <_realloc_r+0x296>
10006690:	6823      	ldr	r3, [r4, #0]
10006692:	2a1b      	cmp	r2, #27
10006694:	f8ca 3008 	str.w	r3, [sl, #8]
10006698:	6863      	ldr	r3, [r4, #4]
1000669a:	f8ca 300c 	str.w	r3, [sl, #12]
1000669e:	d83c      	bhi.n	1000671a <_realloc_r+0x2e2>
100066a0:	3408      	adds	r4, #8
100066a2:	f10a 0310 	add.w	r3, sl, #16
100066a6:	6822      	ldr	r2, [r4, #0]
100066a8:	601a      	str	r2, [r3, #0]
100066aa:	6862      	ldr	r2, [r4, #4]
100066ac:	605a      	str	r2, [r3, #4]
100066ae:	68a2      	ldr	r2, [r4, #8]
100066b0:	609a      	str	r2, [r3, #8]
100066b2:	4634      	mov	r4, r6
100066b4:	465f      	mov	r7, fp
100066b6:	46d1      	mov	r9, sl
100066b8:	e740      	b.n	1000653c <_realloc_r+0x104>
100066ba:	4621      	mov	r1, r4
100066bc:	f000 f888 	bl	100067d0 <memmove>
100066c0:	e727      	b.n	10006512 <_realloc_r+0xda>
100066c2:	e9d1 1302 	ldrd	r1, r3, [r1, #8]
100066c6:	1f3a      	subs	r2, r7, #4
100066c8:	60cb      	str	r3, [r1, #12]
100066ca:	6099      	str	r1, [r3, #8]
100066cc:	e7d5      	b.n	1000667a <_realloc_r+0x242>
100066ce:	4633      	mov	r3, r6
100066d0:	e7e9      	b.n	100066a6 <_realloc_r+0x26e>
100066d2:	4621      	mov	r1, r4
100066d4:	4630      	mov	r0, r6
100066d6:	f000 f87b 	bl	100067d0 <memmove>
100066da:	e7ea      	b.n	100066b2 <_realloc_r+0x27a>
100066dc:	68a3      	ldr	r3, [r4, #8]
100066de:	2a24      	cmp	r2, #36	@ 0x24
100066e0:	6083      	str	r3, [r0, #8]
100066e2:	68e3      	ldr	r3, [r4, #12]
100066e4:	60c3      	str	r3, [r0, #12]
100066e6:	d028      	beq.n	1000673a <_realloc_r+0x302>
100066e8:	f104 0210 	add.w	r2, r4, #16
100066ec:	f100 0310 	add.w	r3, r0, #16
100066f0:	e709      	b.n	10006506 <_realloc_r+0xce>
100066f2:	1b5b      	subs	r3, r3, r5
100066f4:	eb09 0205 	add.w	r2, r9, r5
100066f8:	4640      	mov	r0, r8
100066fa:	4626      	mov	r6, r4
100066fc:	f043 0301 	orr.w	r3, r3, #1
10006700:	f8cb 2008 	str.w	r2, [fp, #8]
10006704:	6053      	str	r3, [r2, #4]
10006706:	f854 3c04 	ldr.w	r3, [r4, #-4]
1000670a:	f003 0301 	and.w	r3, r3, #1
1000670e:	432b      	orrs	r3, r5
10006710:	f844 3c04 	str.w	r3, [r4, #-4]
10006714:	f7ff fe82 	bl	1000641c <__malloc_unlock>
10006718:	e724      	b.n	10006564 <_realloc_r+0x12c>
1000671a:	68a3      	ldr	r3, [r4, #8]
1000671c:	2a24      	cmp	r2, #36	@ 0x24
1000671e:	f8ca 3010 	str.w	r3, [sl, #16]
10006722:	68e3      	ldr	r3, [r4, #12]
10006724:	f8ca 3014 	str.w	r3, [sl, #20]
10006728:	d010      	beq.n	1000674c <_realloc_r+0x314>
1000672a:	3410      	adds	r4, #16
1000672c:	f10a 0318 	add.w	r3, sl, #24
10006730:	e7b9      	b.n	100066a6 <_realloc_r+0x26e>
10006732:	4640      	mov	r0, r8
10006734:	f7ff fe72 	bl	1000641c <__malloc_unlock>
10006738:	e73e      	b.n	100065b8 <_realloc_r+0x180>
1000673a:	6923      	ldr	r3, [r4, #16]
1000673c:	f104 0218 	add.w	r2, r4, #24
10006740:	6103      	str	r3, [r0, #16]
10006742:	6963      	ldr	r3, [r4, #20]
10006744:	6143      	str	r3, [r0, #20]
10006746:	f100 0318 	add.w	r3, r0, #24
1000674a:	e6dc      	b.n	10006506 <_realloc_r+0xce>
1000674c:	6923      	ldr	r3, [r4, #16]
1000674e:	3418      	adds	r4, #24
10006750:	f8ca 3018 	str.w	r3, [sl, #24]
10006754:	f854 3c04 	ldr.w	r3, [r4, #-4]
10006758:	f8ca 301c 	str.w	r3, [sl, #28]
1000675c:	f10a 0320 	add.w	r3, sl, #32
10006760:	e7a1      	b.n	100066a6 <_realloc_r+0x26e>
10006762:	4632      	mov	r2, r6
10006764:	e75e      	b.n	10006624 <_realloc_r+0x1ec>
10006766:	4621      	mov	r1, r4
10006768:	4630      	mov	r0, r6
1000676a:	9301      	str	r3, [sp, #4]
1000676c:	f000 f830 	bl	100067d0 <memmove>
10006770:	9b01      	ldr	r3, [sp, #4]
10006772:	e75d      	b.n	10006630 <_realloc_r+0x1f8>
10006774:	68a1      	ldr	r1, [r4, #8]
10006776:	2a24      	cmp	r2, #36	@ 0x24
10006778:	f8ca 1010 	str.w	r1, [sl, #16]
1000677c:	68e1      	ldr	r1, [r4, #12]
1000677e:	f8ca 1014 	str.w	r1, [sl, #20]
10006782:	d003      	beq.n	1000678c <_realloc_r+0x354>
10006784:	3410      	adds	r4, #16
10006786:	f10a 0218 	add.w	r2, sl, #24
1000678a:	e74b      	b.n	10006624 <_realloc_r+0x1ec>
1000678c:	6922      	ldr	r2, [r4, #16]
1000678e:	3418      	adds	r4, #24
10006790:	f8ca 2018 	str.w	r2, [sl, #24]
10006794:	f854 2c04 	ldr.w	r2, [r4, #-4]
10006798:	f8ca 201c 	str.w	r2, [sl, #28]
1000679c:	f10a 0220 	add.w	r2, sl, #32
100067a0:	e740      	b.n	10006624 <_realloc_r+0x1ec>
100067a2:	bf00      	nop
100067a4:	20000700 	.word	0x20000700

100067a8 <scanf>:
100067a8:	b40f      	push	{r0, r1, r2, r3}
100067aa:	4908      	ldr	r1, [pc, #32]	@ (100067cc <scanf+0x24>)
100067ac:	b500      	push	{lr}
100067ae:	b083      	sub	sp, #12
100067b0:	6808      	ldr	r0, [r1, #0]
100067b2:	ab04      	add	r3, sp, #16
100067b4:	6841      	ldr	r1, [r0, #4]
100067b6:	f853 2b04 	ldr.w	r2, [r3], #4
100067ba:	9301      	str	r3, [sp, #4]
100067bc:	f002 f952 	bl	10008a64 <_vfscanf_r>
100067c0:	b003      	add	sp, #12
100067c2:	f85d eb04 	ldr.w	lr, [sp], #4
100067c6:	b004      	add	sp, #16
100067c8:	4770      	bx	lr
100067ca:	bf00      	nop
100067cc:	20000b08 	.word	0x20000b08

100067d0 <memmove>:
100067d0:	4288      	cmp	r0, r1
100067d2:	d90e      	bls.n	100067f2 <memmove+0x22>
100067d4:	188b      	adds	r3, r1, r2
100067d6:	4283      	cmp	r3, r0
100067d8:	d90b      	bls.n	100067f2 <memmove+0x22>
100067da:	eb00 0c02 	add.w	ip, r0, r2
100067de:	2a00      	cmp	r2, #0
100067e0:	d06e      	beq.n	100068c0 <memmove+0xf0>
100067e2:	4662      	mov	r2, ip
100067e4:	f813 cd01 	ldrb.w	ip, [r3, #-1]!
100067e8:	4299      	cmp	r1, r3
100067ea:	f802 cd01 	strb.w	ip, [r2, #-1]!
100067ee:	d1f9      	bne.n	100067e4 <memmove+0x14>
100067f0:	4770      	bx	lr
100067f2:	2a0f      	cmp	r2, #15
100067f4:	d80f      	bhi.n	10006816 <memmove+0x46>
100067f6:	4603      	mov	r3, r0
100067f8:	f102 3cff 	add.w	ip, r2, #4294967295
100067fc:	2a00      	cmp	r2, #0
100067fe:	d05f      	beq.n	100068c0 <memmove+0xf0>
10006800:	f10c 0c01 	add.w	ip, ip, #1
10006804:	3b01      	subs	r3, #1
10006806:	448c      	add	ip, r1
10006808:	f811 2b01 	ldrb.w	r2, [r1], #1
1000680c:	4561      	cmp	r1, ip
1000680e:	f803 2f01 	strb.w	r2, [r3, #1]!
10006812:	d1f9      	bne.n	10006808 <memmove+0x38>
10006814:	4770      	bx	lr
10006816:	ea40 0301 	orr.w	r3, r0, r1
1000681a:	079b      	lsls	r3, r3, #30
1000681c:	d151      	bne.n	100068c2 <memmove+0xf2>
1000681e:	f1a2 0310 	sub.w	r3, r2, #16
10006822:	f101 0c20 	add.w	ip, r1, #32
10006826:	b570      	push	{r4, r5, r6, lr}
10006828:	f023 050f 	bic.w	r5, r3, #15
1000682c:	f101 0e10 	add.w	lr, r1, #16
10006830:	f100 0410 	add.w	r4, r0, #16
10006834:	091b      	lsrs	r3, r3, #4
10006836:	44ac      	add	ip, r5
10006838:	f85e 5c10 	ldr.w	r5, [lr, #-16]
1000683c:	f10e 0e10 	add.w	lr, lr, #16
10006840:	3410      	adds	r4, #16
10006842:	f844 5c20 	str.w	r5, [r4, #-32]
10006846:	f85e 5c1c 	ldr.w	r5, [lr, #-28]
1000684a:	f844 5c1c 	str.w	r5, [r4, #-28]
1000684e:	f85e 5c18 	ldr.w	r5, [lr, #-24]
10006852:	f844 5c18 	str.w	r5, [r4, #-24]
10006856:	f85e 5c14 	ldr.w	r5, [lr, #-20]
1000685a:	45e6      	cmp	lr, ip
1000685c:	f844 5c14 	str.w	r5, [r4, #-20]
10006860:	d1ea      	bne.n	10006838 <memmove+0x68>
10006862:	3301      	adds	r3, #1
10006864:	f012 0f0c 	tst.w	r2, #12
10006868:	f002 0c0f 	and.w	ip, r2, #15
1000686c:	eb01 1103 	add.w	r1, r1, r3, lsl #4
10006870:	eb00 1303 	add.w	r3, r0, r3, lsl #4
10006874:	d029      	beq.n	100068ca <memmove+0xfa>
10006876:	f1ac 0c04 	sub.w	ip, ip, #4
1000687a:	1f1c      	subs	r4, r3, #4
1000687c:	468e      	mov	lr, r1
1000687e:	f02c 0603 	bic.w	r6, ip, #3
10006882:	ea4f 0c9c 	mov.w	ip, ip, lsr #2
10006886:	441e      	add	r6, r3
10006888:	f85e 5b04 	ldr.w	r5, [lr], #4
1000688c:	f844 5f04 	str.w	r5, [r4, #4]!
10006890:	42b4      	cmp	r4, r6
10006892:	d1f9      	bne.n	10006888 <memmove+0xb8>
10006894:	f10c 0401 	add.w	r4, ip, #1
10006898:	f002 0203 	and.w	r2, r2, #3
1000689c:	eb03 0384 	add.w	r3, r3, r4, lsl #2
100068a0:	eb01 0184 	add.w	r1, r1, r4, lsl #2
100068a4:	f102 3cff 	add.w	ip, r2, #4294967295
100068a8:	b14a      	cbz	r2, 100068be <memmove+0xee>
100068aa:	f10c 0c01 	add.w	ip, ip, #1
100068ae:	3b01      	subs	r3, #1
100068b0:	448c      	add	ip, r1
100068b2:	f811 2b01 	ldrb.w	r2, [r1], #1
100068b6:	4561      	cmp	r1, ip
100068b8:	f803 2f01 	strb.w	r2, [r3, #1]!
100068bc:	d1f9      	bne.n	100068b2 <memmove+0xe2>
100068be:	bd70      	pop	{r4, r5, r6, pc}
100068c0:	4770      	bx	lr
100068c2:	f102 3cff 	add.w	ip, r2, #4294967295
100068c6:	4603      	mov	r3, r0
100068c8:	e79a      	b.n	10006800 <memmove+0x30>
100068ca:	4662      	mov	r2, ip
100068cc:	e7ea      	b.n	100068a4 <memmove+0xd4>
100068ce:	bf00      	nop

100068d0 <memset>:
100068d0:	b570      	push	{r4, r5, r6, lr}
100068d2:	0786      	lsls	r6, r0, #30
100068d4:	d047      	beq.n	10006966 <memset+0x96>
100068d6:	1e54      	subs	r4, r2, #1
100068d8:	2a00      	cmp	r2, #0
100068da:	d03e      	beq.n	1000695a <memset+0x8a>
100068dc:	b2ca      	uxtb	r2, r1
100068de:	4603      	mov	r3, r0
100068e0:	e001      	b.n	100068e6 <memset+0x16>
100068e2:	3c01      	subs	r4, #1
100068e4:	d339      	bcc.n	1000695a <memset+0x8a>
100068e6:	f803 2b01 	strb.w	r2, [r3], #1
100068ea:	079d      	lsls	r5, r3, #30
100068ec:	d1f9      	bne.n	100068e2 <memset+0x12>
100068ee:	2c03      	cmp	r4, #3
100068f0:	d92c      	bls.n	1000694c <memset+0x7c>
100068f2:	b2cd      	uxtb	r5, r1
100068f4:	2c0f      	cmp	r4, #15
100068f6:	eb05 2505 	add.w	r5, r5, r5, lsl #8
100068fa:	eb05 4505 	add.w	r5, r5, r5, lsl #16
100068fe:	d935      	bls.n	1000696c <memset+0x9c>
10006900:	f1a4 0c10 	sub.w	ip, r4, #16
10006904:	f103 0e10 	add.w	lr, r3, #16
10006908:	461a      	mov	r2, r3
1000690a:	f02c 060f 	bic.w	r6, ip, #15
1000690e:	ea4f 1c1c 	mov.w	ip, ip, lsr #4
10006912:	44b6      	add	lr, r6
10006914:	e9c2 5500 	strd	r5, r5, [r2]
10006918:	e9c2 5502 	strd	r5, r5, [r2, #8]
1000691c:	3210      	adds	r2, #16
1000691e:	4572      	cmp	r2, lr
10006920:	d1f8      	bne.n	10006914 <memset+0x44>
10006922:	f10c 0201 	add.w	r2, ip, #1
10006926:	f014 0f0c 	tst.w	r4, #12
1000692a:	f004 0c0f 	and.w	ip, r4, #15
1000692e:	eb03 1202 	add.w	r2, r3, r2, lsl #4
10006932:	d013      	beq.n	1000695c <memset+0x8c>
10006934:	f1ac 0304 	sub.w	r3, ip, #4
10006938:	f023 0303 	bic.w	r3, r3, #3
1000693c:	3304      	adds	r3, #4
1000693e:	4413      	add	r3, r2
10006940:	f842 5b04 	str.w	r5, [r2], #4
10006944:	4293      	cmp	r3, r2
10006946:	d1fb      	bne.n	10006940 <memset+0x70>
10006948:	f00c 0403 	and.w	r4, ip, #3
1000694c:	b12c      	cbz	r4, 1000695a <memset+0x8a>
1000694e:	b2c9      	uxtb	r1, r1
10006950:	441c      	add	r4, r3
10006952:	f803 1b01 	strb.w	r1, [r3], #1
10006956:	42a3      	cmp	r3, r4
10006958:	d1fb      	bne.n	10006952 <memset+0x82>
1000695a:	bd70      	pop	{r4, r5, r6, pc}
1000695c:	4664      	mov	r4, ip
1000695e:	4613      	mov	r3, r2
10006960:	2c00      	cmp	r4, #0
10006962:	d1f4      	bne.n	1000694e <memset+0x7e>
10006964:	e7f9      	b.n	1000695a <memset+0x8a>
10006966:	4603      	mov	r3, r0
10006968:	4614      	mov	r4, r2
1000696a:	e7c0      	b.n	100068ee <memset+0x1e>
1000696c:	461a      	mov	r2, r3
1000696e:	46a4      	mov	ip, r4
10006970:	e7e0      	b.n	10006934 <memset+0x64>
10006972:	bf00      	nop

10006974 <stpcpy>:
10006974:	ea41 0200 	orr.w	r2, r1, r0
10006978:	4603      	mov	r3, r0
1000697a:	0792      	lsls	r2, r2, #30
1000697c:	d115      	bne.n	100069aa <stpcpy+0x36>
1000697e:	680a      	ldr	r2, [r1, #0]
10006980:	f1a2 3001 	sub.w	r0, r2, #16843009	@ 0x1010101
10006984:	ea20 0002 	bic.w	r0, r0, r2
10006988:	f010 3f80 	tst.w	r0, #2155905152	@ 0x80808080
1000698c:	d10d      	bne.n	100069aa <stpcpy+0x36>
1000698e:	f101 0c04 	add.w	ip, r1, #4
10006992:	4661      	mov	r1, ip
10006994:	f843 2b04 	str.w	r2, [r3], #4
10006998:	f85c 2b04 	ldr.w	r2, [ip], #4
1000699c:	f1a2 3001 	sub.w	r0, r2, #16843009	@ 0x1010101
100069a0:	ea20 0002 	bic.w	r0, r0, r2
100069a4:	f010 3f80 	tst.w	r0, #2155905152	@ 0x80808080
100069a8:	d0f3      	beq.n	10006992 <stpcpy+0x1e>
100069aa:	f811 2b01 	ldrb.w	r2, [r1], #1
100069ae:	4618      	mov	r0, r3
100069b0:	f803 2b01 	strb.w	r2, [r3], #1
100069b4:	2a00      	cmp	r2, #0
100069b6:	d1f8      	bne.n	100069aa <stpcpy+0x36>
100069b8:	4770      	bx	lr
100069ba:	bf00      	nop

100069bc <_sbrk_r>:
100069bc:	b538      	push	{r3, r4, r5, lr}
100069be:	2200      	movs	r2, #0
100069c0:	4d06      	ldr	r5, [pc, #24]	@ (100069dc <_sbrk_r+0x20>)
100069c2:	4604      	mov	r4, r0
100069c4:	4608      	mov	r0, r1
100069c6:	602a      	str	r2, [r5, #0]
100069c8:	f7fe fca4 	bl	10005314 <_sbrk>
100069cc:	1c43      	adds	r3, r0, #1
100069ce:	d000      	beq.n	100069d2 <_sbrk_r+0x16>
100069d0:	bd38      	pop	{r3, r4, r5, pc}
100069d2:	682b      	ldr	r3, [r5, #0]
100069d4:	2b00      	cmp	r3, #0
100069d6:	d0fb      	beq.n	100069d0 <_sbrk_r+0x14>
100069d8:	6023      	str	r3, [r4, #0]
100069da:	bd38      	pop	{r3, r4, r5, pc}
100069dc:	200012f8 	.word	0x200012f8

100069e0 <__errno>:
100069e0:	4b01      	ldr	r3, [pc, #4]	@ (100069e8 <__errno+0x8>)
100069e2:	6818      	ldr	r0, [r3, #0]
100069e4:	4770      	bx	lr
100069e6:	bf00      	nop
100069e8:	20000b08 	.word	0x20000b08

100069ec <__retarget_lock_init_recursive>:
100069ec:	4770      	bx	lr
100069ee:	bf00      	nop

100069f0 <__retarget_lock_close_recursive>:
100069f0:	4770      	bx	lr
100069f2:	bf00      	nop

100069f4 <__retarget_lock_acquire_recursive>:
100069f4:	4770      	bx	lr
100069f6:	bf00      	nop

100069f8 <__retarget_lock_release_recursive>:
100069f8:	4770      	bx	lr
100069fa:	bf00      	nop

100069fc <sysconf>:
100069fc:	2808      	cmp	r0, #8
100069fe:	d102      	bne.n	10006a06 <sysconf+0xa>
10006a00:	f44f 5080 	mov.w	r0, #4096	@ 0x1000
10006a04:	4770      	bx	lr
10006a06:	b508      	push	{r3, lr}
10006a08:	f7ff ffea 	bl	100069e0 <__errno>
10006a0c:	2216      	movs	r2, #22
10006a0e:	4603      	mov	r3, r0
10006a10:	f04f 30ff 	mov.w	r0, #4294967295
10006a14:	601a      	str	r2, [r3, #0]
10006a16:	bd08      	pop	{r3, pc}

10006a18 <strcmp>:
10006a18:	ea80 0c01 	eor.w	ip, r0, r1
10006a1c:	f01c 0f03 	tst.w	ip, #3
10006a20:	d137      	bne.n	10006a92 <strcmp+0x7a>
10006a22:	f010 0c03 	ands.w	ip, r0, #3
10006a26:	f020 0003 	bic.w	r0, r0, #3
10006a2a:	f021 0103 	bic.w	r1, r1, #3
10006a2e:	f850 2b04 	ldr.w	r2, [r0], #4
10006a32:	bf08      	it	eq
10006a34:	f851 3b04 	ldreq.w	r3, [r1], #4
10006a38:	d00e      	beq.n	10006a58 <strcmp+0x40>
10006a3a:	f08c 0c03 	eor.w	ip, ip, #3
10006a3e:	f06f 437f 	mvn.w	r3, #4278190080	@ 0xff000000
10006a42:	ea4f 0ccc 	mov.w	ip, ip, lsl #3
10006a46:	fa23 fc0c 	lsr.w	ip, r3, ip
10006a4a:	f851 3b04 	ldr.w	r3, [r1], #4
10006a4e:	ea42 020c 	orr.w	r2, r2, ip
10006a52:	ea43 030c 	orr.w	r3, r3, ip
10006a56:	bf00      	nop
10006a58:	f1a2 3c01 	sub.w	ip, r2, #16843009	@ 0x1010101
10006a5c:	429a      	cmp	r2, r3
10006a5e:	bf01      	itttt	eq
10006a60:	ea2c 0c02 	biceq.w	ip, ip, r2
10006a64:	f01c 3f80 	tsteq.w	ip, #2155905152	@ 0x80808080
10006a68:	f850 2b04 	ldreq.w	r2, [r0], #4
10006a6c:	f851 3b04 	ldreq.w	r3, [r1], #4
10006a70:	d0f2      	beq.n	10006a58 <strcmp+0x40>
10006a72:	ea4f 6002 	mov.w	r0, r2, lsl #24
10006a76:	ea4f 2212 	mov.w	r2, r2, lsr #8
10006a7a:	2801      	cmp	r0, #1
10006a7c:	bf28      	it	cs
10006a7e:	ebb0 6f03 	cmpcs.w	r0, r3, lsl #24
10006a82:	bf08      	it	eq
10006a84:	0a1b      	lsreq	r3, r3, #8
10006a86:	d0f4      	beq.n	10006a72 <strcmp+0x5a>
10006a88:	f003 03ff 	and.w	r3, r3, #255	@ 0xff
10006a8c:	0e00      	lsrs	r0, r0, #24
10006a8e:	1ac0      	subs	r0, r0, r3
10006a90:	4770      	bx	lr
10006a92:	f010 0f03 	tst.w	r0, #3
10006a96:	d00a      	beq.n	10006aae <strcmp+0x96>
10006a98:	f810 2b01 	ldrb.w	r2, [r0], #1
10006a9c:	f811 3b01 	ldrb.w	r3, [r1], #1
10006aa0:	2a01      	cmp	r2, #1
10006aa2:	bf28      	it	cs
10006aa4:	429a      	cmpcs	r2, r3
10006aa6:	d0f4      	beq.n	10006a92 <strcmp+0x7a>
10006aa8:	eba2 0003 	sub.w	r0, r2, r3
10006aac:	4770      	bx	lr
10006aae:	f84d 5d04 	str.w	r5, [sp, #-4]!
10006ab2:	f850 2b04 	ldr.w	r2, [r0], #4
10006ab6:	f001 0503 	and.w	r5, r1, #3
10006aba:	f021 0103 	bic.w	r1, r1, #3
10006abe:	f851 3b04 	ldr.w	r3, [r1], #4
10006ac2:	2d02      	cmp	r5, #2
10006ac4:	d026      	beq.n	10006b14 <strcmp+0xfc>
10006ac6:	d84d      	bhi.n	10006b64 <strcmp+0x14c>
10006ac8:	f022 457f 	bic.w	r5, r2, #4278190080	@ 0xff000000
10006acc:	ebb5 2f13 	cmp.w	r5, r3, lsr #8
10006ad0:	f1a2 3c01 	sub.w	ip, r2, #16843009	@ 0x1010101
10006ad4:	ea2c 0c02 	bic.w	ip, ip, r2
10006ad8:	d10d      	bne.n	10006af6 <strcmp+0xde>
10006ada:	f01c 3c80 	ands.w	ip, ip, #2155905152	@ 0x80808080
10006ade:	bf08      	it	eq
10006ae0:	f851 3b04 	ldreq.w	r3, [r1], #4
10006ae4:	d10a      	bne.n	10006afc <strcmp+0xe4>
10006ae6:	ea85 0502 	eor.w	r5, r5, r2
10006aea:	ebb5 6f03 	cmp.w	r5, r3, lsl #24
10006aee:	d10c      	bne.n	10006b0a <strcmp+0xf2>
10006af0:	f850 2b04 	ldr.w	r2, [r0], #4
10006af4:	e7e8      	b.n	10006ac8 <strcmp+0xb0>
10006af6:	ea4f 2313 	mov.w	r3, r3, lsr #8
10006afa:	e05b      	b.n	10006bb4 <strcmp+0x19c>
10006afc:	f03c 4c7f 	bics.w	ip, ip, #4278190080	@ 0xff000000
10006b00:	d154      	bne.n	10006bac <strcmp+0x194>
10006b02:	780b      	ldrb	r3, [r1, #0]
10006b04:	ea4f 6512 	mov.w	r5, r2, lsr #24
10006b08:	e054      	b.n	10006bb4 <strcmp+0x19c>
10006b0a:	ea4f 6512 	mov.w	r5, r2, lsr #24
10006b0e:	f003 03ff 	and.w	r3, r3, #255	@ 0xff
10006b12:	e04f      	b.n	10006bb4 <strcmp+0x19c>
10006b14:	ea4f 4502 	mov.w	r5, r2, lsl #16
10006b18:	f1a2 3c01 	sub.w	ip, r2, #16843009	@ 0x1010101
10006b1c:	ea4f 4515 	mov.w	r5, r5, lsr #16
10006b20:	ea2c 0c02 	bic.w	ip, ip, r2
10006b24:	ebb5 4f13 	cmp.w	r5, r3, lsr #16
10006b28:	d118      	bne.n	10006b5c <strcmp+0x144>
10006b2a:	f01c 3c80 	ands.w	ip, ip, #2155905152	@ 0x80808080
10006b2e:	bf08      	it	eq
10006b30:	f851 3b04 	ldreq.w	r3, [r1], #4
10006b34:	d107      	bne.n	10006b46 <strcmp+0x12e>
10006b36:	ea85 0502 	eor.w	r5, r5, r2
10006b3a:	ebb5 4f03 	cmp.w	r5, r3, lsl #16
10006b3e:	d109      	bne.n	10006b54 <strcmp+0x13c>
10006b40:	f850 2b04 	ldr.w	r2, [r0], #4
10006b44:	e7e6      	b.n	10006b14 <strcmp+0xfc>
10006b46:	ea5f 4c0c 	movs.w	ip, ip, lsl #16
10006b4a:	d12f      	bne.n	10006bac <strcmp+0x194>
10006b4c:	880b      	ldrh	r3, [r1, #0]
10006b4e:	ea4f 4512 	mov.w	r5, r2, lsr #16
10006b52:	e02f      	b.n	10006bb4 <strcmp+0x19c>
10006b54:	ea4f 4303 	mov.w	r3, r3, lsl #16
10006b58:	ea4f 4512 	mov.w	r5, r2, lsr #16
10006b5c:	ea4f 4313 	mov.w	r3, r3, lsr #16
10006b60:	e028      	b.n	10006bb4 <strcmp+0x19c>
10006b62:	bf00      	nop
10006b64:	f002 05ff 	and.w	r5, r2, #255	@ 0xff
10006b68:	ebb5 6f13 	cmp.w	r5, r3, lsr #24
10006b6c:	f1a2 3c01 	sub.w	ip, r2, #16843009	@ 0x1010101
10006b70:	ea2c 0c02 	bic.w	ip, ip, r2
10006b74:	d10d      	bne.n	10006b92 <strcmp+0x17a>
10006b76:	f01c 3c80 	ands.w	ip, ip, #2155905152	@ 0x80808080
10006b7a:	bf08      	it	eq
10006b7c:	f851 3b04 	ldreq.w	r3, [r1], #4
10006b80:	d10a      	bne.n	10006b98 <strcmp+0x180>
10006b82:	ea85 0502 	eor.w	r5, r5, r2
10006b86:	ebb5 2f03 	cmp.w	r5, r3, lsl #8
10006b8a:	d10a      	bne.n	10006ba2 <strcmp+0x18a>
10006b8c:	f850 2b04 	ldr.w	r2, [r0], #4
10006b90:	e7e8      	b.n	10006b64 <strcmp+0x14c>
10006b92:	ea4f 6313 	mov.w	r3, r3, lsr #24
10006b96:	e00d      	b.n	10006bb4 <strcmp+0x19c>
10006b98:	f012 0fff 	tst.w	r2, #255	@ 0xff
10006b9c:	d006      	beq.n	10006bac <strcmp+0x194>
10006b9e:	f851 3b04 	ldr.w	r3, [r1], #4
10006ba2:	ea4f 2512 	mov.w	r5, r2, lsr #8
10006ba6:	f023 437f 	bic.w	r3, r3, #4278190080	@ 0xff000000
10006baa:	e003      	b.n	10006bb4 <strcmp+0x19c>
10006bac:	f04f 0000 	mov.w	r0, #0
10006bb0:	bc20      	pop	{r5}
10006bb2:	4770      	bx	lr
10006bb4:	f005 02ff 	and.w	r2, r5, #255	@ 0xff
10006bb8:	f003 00ff 	and.w	r0, r3, #255	@ 0xff
10006bbc:	2801      	cmp	r0, #1
10006bbe:	bf28      	it	cs
10006bc0:	4290      	cmpcs	r0, r2
10006bc2:	bf04      	itt	eq
10006bc4:	0a2d      	lsreq	r5, r5, #8
10006bc6:	0a1b      	lsreq	r3, r3, #8
10006bc8:	d0f4      	beq.n	10006bb4 <strcmp+0x19c>
10006bca:	eba2 0000 	sub.w	r0, r2, r0
10006bce:	bc20      	pop	{r5}
10006bd0:	4770      	bx	lr
10006bd2:	bf00      	nop

10006bd4 <memcpy>:
10006bd4:	4684      	mov	ip, r0
10006bd6:	ea41 0300 	orr.w	r3, r1, r0
10006bda:	f013 0303 	ands.w	r3, r3, #3
10006bde:	d149      	bne.n	10006c74 <memcpy+0xa0>
10006be0:	3a40      	subs	r2, #64	@ 0x40
10006be2:	d323      	bcc.n	10006c2c <memcpy+0x58>
10006be4:	680b      	ldr	r3, [r1, #0]
10006be6:	6003      	str	r3, [r0, #0]
10006be8:	684b      	ldr	r3, [r1, #4]
10006bea:	6043      	str	r3, [r0, #4]
10006bec:	688b      	ldr	r3, [r1, #8]
10006bee:	6083      	str	r3, [r0, #8]
10006bf0:	68cb      	ldr	r3, [r1, #12]
10006bf2:	60c3      	str	r3, [r0, #12]
10006bf4:	690b      	ldr	r3, [r1, #16]
10006bf6:	6103      	str	r3, [r0, #16]
10006bf8:	694b      	ldr	r3, [r1, #20]
10006bfa:	6143      	str	r3, [r0, #20]
10006bfc:	698b      	ldr	r3, [r1, #24]
10006bfe:	6183      	str	r3, [r0, #24]
10006c00:	69cb      	ldr	r3, [r1, #28]
10006c02:	61c3      	str	r3, [r0, #28]
10006c04:	6a0b      	ldr	r3, [r1, #32]
10006c06:	6203      	str	r3, [r0, #32]
10006c08:	6a4b      	ldr	r3, [r1, #36]	@ 0x24
10006c0a:	6243      	str	r3, [r0, #36]	@ 0x24
10006c0c:	6a8b      	ldr	r3, [r1, #40]	@ 0x28
10006c0e:	6283      	str	r3, [r0, #40]	@ 0x28
10006c10:	6acb      	ldr	r3, [r1, #44]	@ 0x2c
10006c12:	62c3      	str	r3, [r0, #44]	@ 0x2c
10006c14:	6b0b      	ldr	r3, [r1, #48]	@ 0x30
10006c16:	6303      	str	r3, [r0, #48]	@ 0x30
10006c18:	6b4b      	ldr	r3, [r1, #52]	@ 0x34
10006c1a:	6343      	str	r3, [r0, #52]	@ 0x34
10006c1c:	6b8b      	ldr	r3, [r1, #56]	@ 0x38
10006c1e:	6383      	str	r3, [r0, #56]	@ 0x38
10006c20:	6bcb      	ldr	r3, [r1, #60]	@ 0x3c
10006c22:	63c3      	str	r3, [r0, #60]	@ 0x3c
10006c24:	3040      	adds	r0, #64	@ 0x40
10006c26:	3140      	adds	r1, #64	@ 0x40
10006c28:	3a40      	subs	r2, #64	@ 0x40
10006c2a:	d2db      	bcs.n	10006be4 <memcpy+0x10>
10006c2c:	3230      	adds	r2, #48	@ 0x30
10006c2e:	d30b      	bcc.n	10006c48 <memcpy+0x74>
10006c30:	680b      	ldr	r3, [r1, #0]
10006c32:	6003      	str	r3, [r0, #0]
10006c34:	684b      	ldr	r3, [r1, #4]
10006c36:	6043      	str	r3, [r0, #4]
10006c38:	688b      	ldr	r3, [r1, #8]
10006c3a:	6083      	str	r3, [r0, #8]
10006c3c:	68cb      	ldr	r3, [r1, #12]
10006c3e:	60c3      	str	r3, [r0, #12]
10006c40:	3010      	adds	r0, #16
10006c42:	3110      	adds	r1, #16
10006c44:	3a10      	subs	r2, #16
10006c46:	d2f3      	bcs.n	10006c30 <memcpy+0x5c>
10006c48:	320c      	adds	r2, #12
10006c4a:	d305      	bcc.n	10006c58 <memcpy+0x84>
10006c4c:	f851 3b04 	ldr.w	r3, [r1], #4
10006c50:	f840 3b04 	str.w	r3, [r0], #4
10006c54:	3a04      	subs	r2, #4
10006c56:	d2f9      	bcs.n	10006c4c <memcpy+0x78>
10006c58:	3204      	adds	r2, #4
10006c5a:	d008      	beq.n	10006c6e <memcpy+0x9a>
10006c5c:	07d2      	lsls	r2, r2, #31
10006c5e:	bf1c      	itt	ne
10006c60:	f811 3b01 	ldrbne.w	r3, [r1], #1
10006c64:	f800 3b01 	strbne.w	r3, [r0], #1
10006c68:	d301      	bcc.n	10006c6e <memcpy+0x9a>
10006c6a:	880b      	ldrh	r3, [r1, #0]
10006c6c:	8003      	strh	r3, [r0, #0]
10006c6e:	4660      	mov	r0, ip
10006c70:	4770      	bx	lr
10006c72:	bf00      	nop
10006c74:	2a08      	cmp	r2, #8
10006c76:	d313      	bcc.n	10006ca0 <memcpy+0xcc>
10006c78:	078b      	lsls	r3, r1, #30
10006c7a:	d0b1      	beq.n	10006be0 <memcpy+0xc>
10006c7c:	f010 0303 	ands.w	r3, r0, #3
10006c80:	d0ae      	beq.n	10006be0 <memcpy+0xc>
10006c82:	f1c3 0304 	rsb	r3, r3, #4
10006c86:	1ad2      	subs	r2, r2, r3
10006c88:	07db      	lsls	r3, r3, #31
10006c8a:	bf1c      	itt	ne
10006c8c:	f811 3b01 	ldrbne.w	r3, [r1], #1
10006c90:	f800 3b01 	strbne.w	r3, [r0], #1
10006c94:	d3a4      	bcc.n	10006be0 <memcpy+0xc>
10006c96:	f831 3b02 	ldrh.w	r3, [r1], #2
10006c9a:	f820 3b02 	strh.w	r3, [r0], #2
10006c9e:	e79f      	b.n	10006be0 <memcpy+0xc>
10006ca0:	3a04      	subs	r2, #4
10006ca2:	d3d9      	bcc.n	10006c58 <memcpy+0x84>
10006ca4:	3a01      	subs	r2, #1
10006ca6:	f811 3b01 	ldrb.w	r3, [r1], #1
10006caa:	f800 3b01 	strb.w	r3, [r0], #1
10006cae:	d2f9      	bcs.n	10006ca4 <memcpy+0xd0>
10006cb0:	780b      	ldrb	r3, [r1, #0]
10006cb2:	7003      	strb	r3, [r0, #0]
10006cb4:	784b      	ldrb	r3, [r1, #1]
10006cb6:	7043      	strb	r3, [r0, #1]
10006cb8:	788b      	ldrb	r3, [r1, #2]
10006cba:	7083      	strb	r3, [r0, #2]
10006cbc:	4660      	mov	r0, ip
10006cbe:	4770      	bx	lr

10006cc0 <strlen>:
10006cc0:	f020 0103 	bic.w	r1, r0, #3
10006cc4:	f010 0003 	ands.w	r0, r0, #3
10006cc8:	f1c0 0000 	rsb	r0, r0, #0
10006ccc:	f851 3b04 	ldr.w	r3, [r1], #4
10006cd0:	f100 0c04 	add.w	ip, r0, #4
10006cd4:	ea4f 0ccc 	mov.w	ip, ip, lsl #3
10006cd8:	f06f 0200 	mvn.w	r2, #0
10006cdc:	bf1c      	itt	ne
10006cde:	fa22 f20c 	lsrne.w	r2, r2, ip
10006ce2:	4313      	orrne	r3, r2
10006ce4:	f04f 0c01 	mov.w	ip, #1
10006ce8:	ea4c 2c0c 	orr.w	ip, ip, ip, lsl #8
10006cec:	ea4c 4c0c 	orr.w	ip, ip, ip, lsl #16
10006cf0:	eba3 020c 	sub.w	r2, r3, ip
10006cf4:	ea22 0203 	bic.w	r2, r2, r3
10006cf8:	ea12 12cc 	ands.w	r2, r2, ip, lsl #7
10006cfc:	bf04      	itt	eq
10006cfe:	f851 3b04 	ldreq.w	r3, [r1], #4
10006d02:	3004      	addeq	r0, #4
10006d04:	d0f4      	beq.n	10006cf0 <strlen+0x30>
10006d06:	f1c2 0100 	rsb	r1, r2, #0
10006d0a:	ea02 0201 	and.w	r2, r2, r1
10006d0e:	fab2 f282 	clz	r2, r2
10006d12:	f1c2 021f 	rsb	r2, r2, #31
10006d16:	eb00 00d2 	add.w	r0, r0, r2, lsr #3
10006d1a:	4770      	bx	lr

10006d1c <_malloc_trim_r>:
10006d1c:	e92d 43f8 	stmdb	sp!, {r3, r4, r5, r6, r7, r8, r9, lr}
10006d20:	4606      	mov	r6, r0
10006d22:	f8df 80ac 	ldr.w	r8, [pc, #172]	@ 10006dd0 <_malloc_trim_r+0xb4>
10006d26:	2008      	movs	r0, #8
10006d28:	4689      	mov	r9, r1
10006d2a:	f7ff fe67 	bl	100069fc <sysconf>
10006d2e:	4605      	mov	r5, r0
10006d30:	4630      	mov	r0, r6
10006d32:	f7ff fb6d 	bl	10006410 <__malloc_lock>
10006d36:	f8d8 3008 	ldr.w	r3, [r8, #8]
10006d3a:	685f      	ldr	r7, [r3, #4]
10006d3c:	f027 0703 	bic.w	r7, r7, #3
10006d40:	f1a7 0411 	sub.w	r4, r7, #17
10006d44:	eba4 0409 	sub.w	r4, r4, r9
10006d48:	442c      	add	r4, r5
10006d4a:	fbb4 f4f5 	udiv	r4, r4, r5
10006d4e:	3c01      	subs	r4, #1
10006d50:	fb05 f404 	mul.w	r4, r5, r4
10006d54:	42a5      	cmp	r5, r4
10006d56:	dc08      	bgt.n	10006d6a <_malloc_trim_r+0x4e>
10006d58:	2100      	movs	r1, #0
10006d5a:	4630      	mov	r0, r6
10006d5c:	f7ff fe2e 	bl	100069bc <_sbrk_r>
10006d60:	f8d8 3008 	ldr.w	r3, [r8, #8]
10006d64:	443b      	add	r3, r7
10006d66:	4298      	cmp	r0, r3
10006d68:	d005      	beq.n	10006d76 <_malloc_trim_r+0x5a>
10006d6a:	4630      	mov	r0, r6
10006d6c:	f7ff fb56 	bl	1000641c <__malloc_unlock>
10006d70:	2000      	movs	r0, #0
10006d72:	e8bd 83f8 	ldmia.w	sp!, {r3, r4, r5, r6, r7, r8, r9, pc}
10006d76:	4261      	negs	r1, r4
10006d78:	4630      	mov	r0, r6
10006d7a:	f7ff fe1f 	bl	100069bc <_sbrk_r>
10006d7e:	3001      	adds	r0, #1
10006d80:	d00f      	beq.n	10006da2 <_malloc_trim_r+0x86>
10006d82:	1b3f      	subs	r7, r7, r4
10006d84:	4a10      	ldr	r2, [pc, #64]	@ (10006dc8 <_malloc_trim_r+0xac>)
10006d86:	f8d8 3008 	ldr.w	r3, [r8, #8]
10006d8a:	4630      	mov	r0, r6
10006d8c:	f047 0701 	orr.w	r7, r7, #1
10006d90:	605f      	str	r7, [r3, #4]
10006d92:	6813      	ldr	r3, [r2, #0]
10006d94:	1b1b      	subs	r3, r3, r4
10006d96:	6013      	str	r3, [r2, #0]
10006d98:	f7ff fb40 	bl	1000641c <__malloc_unlock>
10006d9c:	2001      	movs	r0, #1
10006d9e:	e8bd 83f8 	ldmia.w	sp!, {r3, r4, r5, r6, r7, r8, r9, pc}
10006da2:	2100      	movs	r1, #0
10006da4:	4630      	mov	r0, r6
10006da6:	f7ff fe09 	bl	100069bc <_sbrk_r>
10006daa:	f8d8 2008 	ldr.w	r2, [r8, #8]
10006dae:	1a83      	subs	r3, r0, r2
10006db0:	2b0f      	cmp	r3, #15
10006db2:	ddda      	ble.n	10006d6a <_malloc_trim_r+0x4e>
10006db4:	f043 0301 	orr.w	r3, r3, #1
10006db8:	4903      	ldr	r1, [pc, #12]	@ (10006dc8 <_malloc_trim_r+0xac>)
10006dba:	6053      	str	r3, [r2, #4]
10006dbc:	4b03      	ldr	r3, [pc, #12]	@ (10006dcc <_malloc_trim_r+0xb0>)
10006dbe:	681b      	ldr	r3, [r3, #0]
10006dc0:	1ac0      	subs	r0, r0, r3
10006dc2:	6008      	str	r0, [r1, #0]
10006dc4:	e7d1      	b.n	10006d6a <_malloc_trim_r+0x4e>
10006dc6:	bf00      	nop
10006dc8:	200010a0 	.word	0x200010a0
10006dcc:	200006f4 	.word	0x200006f4
10006dd0:	20000700 	.word	0x20000700

10006dd4 <_free_r>:
10006dd4:	2900      	cmp	r1, #0
10006dd6:	d07c      	beq.n	10006ed2 <_free_r+0xfe>
10006dd8:	e92d 41f0 	stmdb	sp!, {r4, r5, r6, r7, r8, lr}
10006ddc:	460c      	mov	r4, r1
10006dde:	4680      	mov	r8, r0
10006de0:	f7ff fb16 	bl	10006410 <__malloc_lock>
10006de4:	4f76      	ldr	r7, [pc, #472]	@ (10006fc0 <_free_r+0x1ec>)
10006de6:	f854 3c04 	ldr.w	r3, [r4, #-4]
10006dea:	f1a4 0508 	sub.w	r5, r4, #8
10006dee:	68be      	ldr	r6, [r7, #8]
10006df0:	f023 0101 	bic.w	r1, r3, #1
10006df4:	1868      	adds	r0, r5, r1
10006df6:	6842      	ldr	r2, [r0, #4]
10006df8:	4286      	cmp	r6, r0
10006dfa:	f022 0203 	bic.w	r2, r2, #3
10006dfe:	f000 8083 	beq.w	10006f08 <_free_r+0x134>
10006e02:	07de      	lsls	r6, r3, #31
10006e04:	eb00 0c02 	add.w	ip, r0, r2
10006e08:	6042      	str	r2, [r0, #4]
10006e0a:	d433      	bmi.n	10006e74 <_free_r+0xa0>
10006e0c:	f854 4c08 	ldr.w	r4, [r4, #-8]
10006e10:	f8dc 3004 	ldr.w	r3, [ip, #4]
10006e14:	f107 0c08 	add.w	ip, r7, #8
10006e18:	1b2d      	subs	r5, r5, r4
10006e1a:	4421      	add	r1, r4
10006e1c:	f003 0301 	and.w	r3, r3, #1
10006e20:	68ac      	ldr	r4, [r5, #8]
10006e22:	4564      	cmp	r4, ip
10006e24:	d064      	beq.n	10006ef0 <_free_r+0x11c>
10006e26:	f8d5 e00c 	ldr.w	lr, [r5, #12]
10006e2a:	f8c4 e00c 	str.w	lr, [r4, #12]
10006e2e:	f8ce 4008 	str.w	r4, [lr, #8]
10006e32:	2b00      	cmp	r3, #0
10006e34:	f000 8081 	beq.w	10006f3a <_free_r+0x166>
10006e38:	f041 0301 	orr.w	r3, r1, #1
10006e3c:	606b      	str	r3, [r5, #4]
10006e3e:	6001      	str	r1, [r0, #0]
10006e40:	f5b1 7f00 	cmp.w	r1, #512	@ 0x200
10006e44:	d222      	bcs.n	10006e8c <_free_r+0xb8>
10006e46:	08cb      	lsrs	r3, r1, #3
10006e48:	2201      	movs	r2, #1
10006e4a:	0949      	lsrs	r1, r1, #5
10006e4c:	3301      	adds	r3, #1
10006e4e:	408a      	lsls	r2, r1
10006e50:	6879      	ldr	r1, [r7, #4]
10006e52:	430a      	orrs	r2, r1
10006e54:	f857 1033 	ldr.w	r1, [r7, r3, lsl #3]
10006e58:	607a      	str	r2, [r7, #4]
10006e5a:	eb07 02c3 	add.w	r2, r7, r3, lsl #3
10006e5e:	3a08      	subs	r2, #8
10006e60:	e9c5 1202 	strd	r1, r2, [r5, #8]
10006e64:	f847 5033 	str.w	r5, [r7, r3, lsl #3]
10006e68:	60cd      	str	r5, [r1, #12]
10006e6a:	4640      	mov	r0, r8
10006e6c:	e8bd 41f0 	ldmia.w	sp!, {r4, r5, r6, r7, r8, lr}
10006e70:	f7ff bad4 	b.w	1000641c <__malloc_unlock>
10006e74:	f8dc 3004 	ldr.w	r3, [ip, #4]
10006e78:	07db      	lsls	r3, r3, #31
10006e7a:	d52b      	bpl.n	10006ed4 <_free_r+0x100>
10006e7c:	f041 0301 	orr.w	r3, r1, #1
10006e80:	f5b1 7f00 	cmp.w	r1, #512	@ 0x200
10006e84:	f844 3c04 	str.w	r3, [r4, #-4]
10006e88:	6001      	str	r1, [r0, #0]
10006e8a:	d3dc      	bcc.n	10006e46 <_free_r+0x72>
10006e8c:	f5b1 6f20 	cmp.w	r1, #2560	@ 0xa00
10006e90:	ea4f 2351 	mov.w	r3, r1, lsr #9
10006e94:	d253      	bcs.n	10006f3e <_free_r+0x16a>
10006e96:	098b      	lsrs	r3, r1, #6
10006e98:	f103 0039 	add.w	r0, r3, #57	@ 0x39
10006e9c:	f103 0238 	add.w	r2, r3, #56	@ 0x38
10006ea0:	00c3      	lsls	r3, r0, #3
10006ea2:	18f8      	adds	r0, r7, r3
10006ea4:	58fb      	ldr	r3, [r7, r3]
10006ea6:	3808      	subs	r0, #8
10006ea8:	4298      	cmp	r0, r3
10006eaa:	d103      	bne.n	10006eb4 <_free_r+0xe0>
10006eac:	e061      	b.n	10006f72 <_free_r+0x19e>
10006eae:	689b      	ldr	r3, [r3, #8]
10006eb0:	4298      	cmp	r0, r3
10006eb2:	d004      	beq.n	10006ebe <_free_r+0xea>
10006eb4:	685a      	ldr	r2, [r3, #4]
10006eb6:	f022 0203 	bic.w	r2, r2, #3
10006eba:	428a      	cmp	r2, r1
10006ebc:	d8f7      	bhi.n	10006eae <_free_r+0xda>
10006ebe:	68d8      	ldr	r0, [r3, #12]
10006ec0:	e9c5 3002 	strd	r3, r0, [r5, #8]
10006ec4:	6085      	str	r5, [r0, #8]
10006ec6:	4640      	mov	r0, r8
10006ec8:	60dd      	str	r5, [r3, #12]
10006eca:	e8bd 41f0 	ldmia.w	sp!, {r4, r5, r6, r7, r8, lr}
10006ece:	f7ff baa5 	b.w	1000641c <__malloc_unlock>
10006ed2:	4770      	bx	lr
10006ed4:	4411      	add	r1, r2
10006ed6:	f107 0c08 	add.w	ip, r7, #8
10006eda:	6883      	ldr	r3, [r0, #8]
10006edc:	4563      	cmp	r3, ip
10006ede:	d03f      	beq.n	10006f60 <_free_r+0x18c>
10006ee0:	68c2      	ldr	r2, [r0, #12]
10006ee2:	60da      	str	r2, [r3, #12]
10006ee4:	6093      	str	r3, [r2, #8]
10006ee6:	f041 0301 	orr.w	r3, r1, #1
10006eea:	606b      	str	r3, [r5, #4]
10006eec:	5069      	str	r1, [r5, r1]
10006eee:	e7a7      	b.n	10006e40 <_free_r+0x6c>
10006ef0:	2b00      	cmp	r3, #0
10006ef2:	d15f      	bne.n	10006fb4 <_free_r+0x1e0>
10006ef4:	440a      	add	r2, r1
10006ef6:	e9d0 1302 	ldrd	r1, r3, [r0, #8]
10006efa:	60cb      	str	r3, [r1, #12]
10006efc:	6099      	str	r1, [r3, #8]
10006efe:	f042 0301 	orr.w	r3, r2, #1
10006f02:	606b      	str	r3, [r5, #4]
10006f04:	50aa      	str	r2, [r5, r2]
10006f06:	e7b0      	b.n	10006e6a <_free_r+0x96>
10006f08:	07db      	lsls	r3, r3, #31
10006f0a:	440a      	add	r2, r1
10006f0c:	d407      	bmi.n	10006f1e <_free_r+0x14a>
10006f0e:	f854 3c08 	ldr.w	r3, [r4, #-8]
10006f12:	1aed      	subs	r5, r5, r3
10006f14:	441a      	add	r2, r3
10006f16:	e9d5 1302 	ldrd	r1, r3, [r5, #8]
10006f1a:	60cb      	str	r3, [r1, #12]
10006f1c:	6099      	str	r1, [r3, #8]
10006f1e:	f042 0301 	orr.w	r3, r2, #1
10006f22:	606b      	str	r3, [r5, #4]
10006f24:	4b27      	ldr	r3, [pc, #156]	@ (10006fc4 <_free_r+0x1f0>)
10006f26:	60bd      	str	r5, [r7, #8]
10006f28:	681b      	ldr	r3, [r3, #0]
10006f2a:	4293      	cmp	r3, r2
10006f2c:	d89d      	bhi.n	10006e6a <_free_r+0x96>
10006f2e:	4b26      	ldr	r3, [pc, #152]	@ (10006fc8 <_free_r+0x1f4>)
10006f30:	4640      	mov	r0, r8
10006f32:	6819      	ldr	r1, [r3, #0]
10006f34:	f7ff fef2 	bl	10006d1c <_malloc_trim_r>
10006f38:	e797      	b.n	10006e6a <_free_r+0x96>
10006f3a:	4411      	add	r1, r2
10006f3c:	e7cd      	b.n	10006eda <_free_r+0x106>
10006f3e:	2b14      	cmp	r3, #20
10006f40:	d908      	bls.n	10006f54 <_free_r+0x180>
10006f42:	2b54      	cmp	r3, #84	@ 0x54
10006f44:	d81d      	bhi.n	10006f82 <_free_r+0x1ae>
10006f46:	0b0b      	lsrs	r3, r1, #12
10006f48:	f103 006f 	add.w	r0, r3, #111	@ 0x6f
10006f4c:	f103 026e 	add.w	r2, r3, #110	@ 0x6e
10006f50:	00c3      	lsls	r3, r0, #3
10006f52:	e7a6      	b.n	10006ea2 <_free_r+0xce>
10006f54:	f103 005c 	add.w	r0, r3, #92	@ 0x5c
10006f58:	f103 025b 	add.w	r2, r3, #91	@ 0x5b
10006f5c:	00c3      	lsls	r3, r0, #3
10006f5e:	e7a0      	b.n	10006ea2 <_free_r+0xce>
10006f60:	f041 0301 	orr.w	r3, r1, #1
10006f64:	e9c7 5504 	strd	r5, r5, [r7, #16]
10006f68:	e9c5 cc02 	strd	ip, ip, [r5, #8]
10006f6c:	606b      	str	r3, [r5, #4]
10006f6e:	5069      	str	r1, [r5, r1]
10006f70:	e77b      	b.n	10006e6a <_free_r+0x96>
10006f72:	2101      	movs	r1, #1
10006f74:	1092      	asrs	r2, r2, #2
10006f76:	fa01 f202 	lsl.w	r2, r1, r2
10006f7a:	6879      	ldr	r1, [r7, #4]
10006f7c:	430a      	orrs	r2, r1
10006f7e:	607a      	str	r2, [r7, #4]
10006f80:	e79e      	b.n	10006ec0 <_free_r+0xec>
10006f82:	f5b3 7faa 	cmp.w	r3, #340	@ 0x154
10006f86:	d806      	bhi.n	10006f96 <_free_r+0x1c2>
10006f88:	0bcb      	lsrs	r3, r1, #15
10006f8a:	f103 0078 	add.w	r0, r3, #120	@ 0x78
10006f8e:	f103 0277 	add.w	r2, r3, #119	@ 0x77
10006f92:	00c3      	lsls	r3, r0, #3
10006f94:	e785      	b.n	10006ea2 <_free_r+0xce>
10006f96:	f240 5254 	movw	r2, #1364	@ 0x554
10006f9a:	4293      	cmp	r3, r2
10006f9c:	d806      	bhi.n	10006fac <_free_r+0x1d8>
10006f9e:	0c8b      	lsrs	r3, r1, #18
10006fa0:	f103 007d 	add.w	r0, r3, #125	@ 0x7d
10006fa4:	f103 027c 	add.w	r2, r3, #124	@ 0x7c
10006fa8:	00c3      	lsls	r3, r0, #3
10006faa:	e77a      	b.n	10006ea2 <_free_r+0xce>
10006fac:	f44f 737e 	mov.w	r3, #1016	@ 0x3f8
10006fb0:	227e      	movs	r2, #126	@ 0x7e
10006fb2:	e776      	b.n	10006ea2 <_free_r+0xce>
10006fb4:	f041 0301 	orr.w	r3, r1, #1
10006fb8:	606b      	str	r3, [r5, #4]
10006fba:	6001      	str	r1, [r0, #0]
10006fbc:	e755      	b.n	10006e6a <_free_r+0x96>
10006fbe:	bf00      	nop
10006fc0:	20000700 	.word	0x20000700
10006fc4:	200006f8 	.word	0x200006f8
10006fc8:	200010d0 	.word	0x200010d0

10006fcc <_strtoul_l.isra.0>:
10006fcc:	e92d 47f0 	stmdb	sp!, {r4, r5, r6, r7, r8, r9, sl, lr}
10006fd0:	4680      	mov	r8, r0
10006fd2:	460c      	mov	r4, r1
10006fd4:	4845      	ldr	r0, [pc, #276]	@ (100070ec <_strtoul_l.isra.0+0x120>)
10006fd6:	4626      	mov	r6, r4
10006fd8:	f814 eb01 	ldrb.w	lr, [r4], #1
10006fdc:	f810 c00e 	ldrb.w	ip, [r0, lr]
10006fe0:	f01c 0c08 	ands.w	ip, ip, #8
10006fe4:	d1f7      	bne.n	10006fd6 <_strtoul_l.isra.0+0xa>
10006fe6:	f1be 0f2d 	cmp.w	lr, #45	@ 0x2d
10006fea:	d05b      	beq.n	100070a4 <_strtoul_l.isra.0+0xd8>
10006fec:	f1be 0f2b 	cmp.w	lr, #43	@ 0x2b
10006ff0:	d03a      	beq.n	10007068 <_strtoul_l.isra.0+0x9c>
10006ff2:	4665      	mov	r5, ip
10006ff4:	f033 0010 	bics.w	r0, r3, #16
10006ff8:	d03e      	beq.n	10007078 <_strtoul_l.isra.0+0xac>
10006ffa:	f04f 37ff 	mov.w	r7, #4294967295
10006ffe:	469a      	mov	sl, r3
10007000:	fbb7 f7f3 	udiv	r7, r7, r3
10007004:	fb03 f907 	mul.w	r9, r3, r7
10007008:	ea6f 0909 	mvn.w	r9, r9
1000700c:	2600      	movs	r6, #0
1000700e:	4630      	mov	r0, r6
10007010:	e00e      	b.n	10007030 <_strtoul_l.isra.0+0x64>
10007012:	f1ae 0c37 	sub.w	ip, lr, #55	@ 0x37
10007016:	4563      	cmp	r3, ip
10007018:	dd1d      	ble.n	10007056 <_strtoul_l.isra.0+0x8a>
1000701a:	2e00      	cmp	r6, #0
1000701c:	db04      	blt.n	10007028 <_strtoul_l.isra.0+0x5c>
1000701e:	42b8      	cmp	r0, r7
10007020:	d802      	bhi.n	10007028 <_strtoul_l.isra.0+0x5c>
10007022:	d133      	bne.n	1000708c <_strtoul_l.isra.0+0xc0>
10007024:	45cc      	cmp	ip, r9
10007026:	dd31      	ble.n	1000708c <_strtoul_l.isra.0+0xc0>
10007028:	f04f 36ff 	mov.w	r6, #4294967295
1000702c:	f814 eb01 	ldrb.w	lr, [r4], #1
10007030:	f1ae 0c30 	sub.w	ip, lr, #48	@ 0x30
10007034:	f1bc 0f09 	cmp.w	ip, #9
10007038:	d9ed      	bls.n	10007016 <_strtoul_l.isra.0+0x4a>
1000703a:	f1ae 0c41 	sub.w	ip, lr, #65	@ 0x41
1000703e:	f1bc 0f19 	cmp.w	ip, #25
10007042:	d9e6      	bls.n	10007012 <_strtoul_l.isra.0+0x46>
10007044:	f1ae 0c61 	sub.w	ip, lr, #97	@ 0x61
10007048:	f1bc 0f19 	cmp.w	ip, #25
1000704c:	d803      	bhi.n	10007056 <_strtoul_l.isra.0+0x8a>
1000704e:	f1ae 0c57 	sub.w	ip, lr, #87	@ 0x57
10007052:	4563      	cmp	r3, ip
10007054:	dce1      	bgt.n	1000701a <_strtoul_l.isra.0+0x4e>
10007056:	1c73      	adds	r3, r6, #1
10007058:	d01c      	beq.n	10007094 <_strtoul_l.isra.0+0xc8>
1000705a:	b105      	cbz	r5, 1000705e <_strtoul_l.isra.0+0x92>
1000705c:	4240      	negs	r0, r0
1000705e:	b10a      	cbz	r2, 10007064 <_strtoul_l.isra.0+0x98>
10007060:	b9f6      	cbnz	r6, 100070a0 <_strtoul_l.isra.0+0xd4>
10007062:	6011      	str	r1, [r2, #0]
10007064:	e8bd 87f0 	ldmia.w	sp!, {r4, r5, r6, r7, r8, r9, sl, pc}
10007068:	f033 0010 	bics.w	r0, r3, #16
1000706c:	f894 e000 	ldrb.w	lr, [r4]
10007070:	4665      	mov	r5, ip
10007072:	f106 0402 	add.w	r4, r6, #2
10007076:	d1c0      	bne.n	10006ffa <_strtoul_l.isra.0+0x2e>
10007078:	f1be 0f30 	cmp.w	lr, #48	@ 0x30
1000707c:	d017      	beq.n	100070ae <_strtoul_l.isra.0+0xe2>
1000707e:	bb6b      	cbnz	r3, 100070dc <_strtoul_l.isra.0+0x110>
10007080:	230a      	movs	r3, #10
10007082:	f04f 0905 	mov.w	r9, #5
10007086:	4f1a      	ldr	r7, [pc, #104]	@ (100070f0 <_strtoul_l.isra.0+0x124>)
10007088:	469a      	mov	sl, r3
1000708a:	e7bf      	b.n	1000700c <_strtoul_l.isra.0+0x40>
1000708c:	fb00 c00a 	mla	r0, r0, sl, ip
10007090:	2601      	movs	r6, #1
10007092:	e7cb      	b.n	1000702c <_strtoul_l.isra.0+0x60>
10007094:	2322      	movs	r3, #34	@ 0x22
10007096:	4630      	mov	r0, r6
10007098:	f8c8 3000 	str.w	r3, [r8]
1000709c:	2a00      	cmp	r2, #0
1000709e:	d0e1      	beq.n	10007064 <_strtoul_l.isra.0+0x98>
100070a0:	1e61      	subs	r1, r4, #1
100070a2:	e7de      	b.n	10007062 <_strtoul_l.isra.0+0x96>
100070a4:	f894 e000 	ldrb.w	lr, [r4]
100070a8:	2501      	movs	r5, #1
100070aa:	1cb4      	adds	r4, r6, #2
100070ac:	e7a2      	b.n	10006ff4 <_strtoul_l.isra.0+0x28>
100070ae:	7820      	ldrb	r0, [r4, #0]
100070b0:	f000 00df 	and.w	r0, r0, #223	@ 0xdf
100070b4:	2858      	cmp	r0, #88	@ 0x58
100070b6:	d007      	beq.n	100070c8 <_strtoul_l.isra.0+0xfc>
100070b8:	b983      	cbnz	r3, 100070dc <_strtoul_l.isra.0+0x110>
100070ba:	2308      	movs	r3, #8
100070bc:	f04f 0907 	mov.w	r9, #7
100070c0:	f06f 4760 	mvn.w	r7, #3758096384	@ 0xe0000000
100070c4:	469a      	mov	sl, r3
100070c6:	e7a1      	b.n	1000700c <_strtoul_l.isra.0+0x40>
100070c8:	2310      	movs	r3, #16
100070ca:	f894 e001 	ldrb.w	lr, [r4, #1]
100070ce:	f04f 090f 	mov.w	r9, #15
100070d2:	3402      	adds	r4, #2
100070d4:	f06f 4770 	mvn.w	r7, #4026531840	@ 0xf0000000
100070d8:	469a      	mov	sl, r3
100070da:	e797      	b.n	1000700c <_strtoul_l.isra.0+0x40>
100070dc:	2310      	movs	r3, #16
100070de:	f04f 090f 	mov.w	r9, #15
100070e2:	f06f 4770 	mvn.w	r7, #4026531840	@ 0xf0000000
100070e6:	469a      	mov	sl, r3
100070e8:	e790      	b.n	1000700c <_strtoul_l.isra.0+0x40>
100070ea:	bf00      	nop
100070ec:	1000c87d 	.word	0x1000c87d
100070f0:	19999999 	.word	0x19999999

100070f4 <_strtoul_r>:
100070f4:	f7ff bf6a 	b.w	10006fcc <_strtoul_l.isra.0>

100070f8 <__svfscanf_r>:
100070f8:	e92d 4ff0 	stmdb	sp!, {r4, r5, r6, r7, r8, r9, sl, fp, lr}
100070fc:	f5ad 7d37 	sub.w	sp, sp, #732	@ 0x2dc
10007100:	468a      	mov	sl, r1
10007102:	af02      	add	r7, sp, #8
10007104:	62fb      	str	r3, [r7, #44]	@ 0x2c
10007106:	6e4b      	ldr	r3, [r1, #100]	@ 0x64
10007108:	e9c7 0212 	strd	r0, r2, [r7, #72]	@ 0x48
1000710c:	07d8      	lsls	r0, r3, #31
1000710e:	f9b1 200c 	ldrsh.w	r2, [r1, #12]
10007112:	d402      	bmi.n	1000711a <__svfscanf_r+0x22>
10007114:	0591      	lsls	r1, r2, #22
10007116:	f140 8754 	bpl.w	10007fc2 <__svfscanf_r+0xeca>
1000711a:	0496      	lsls	r6, r2, #18
1000711c:	d407      	bmi.n	1000712e <__svfscanf_r+0x36>
1000711e:	f442 5200 	orr.w	r2, r2, #8192	@ 0x2000
10007122:	f423 5300 	bic.w	r3, r3, #8192	@ 0x2000
10007126:	f8aa 200c 	strh.w	r2, [sl, #12]
1000712a:	f8ca 3064 	str.w	r3, [sl, #100]	@ 0x64
1000712e:	049d      	lsls	r5, r3, #18
10007130:	f3c3 3440 	ubfx	r4, r3, #13, #1
10007134:	f101 82ff 	bmi.w	10008736 <__svfscanf_r+0x163e>
10007138:	46a1      	mov	r9, r4
1000713a:	2208      	movs	r2, #8
1000713c:	4621      	mov	r1, r4
1000713e:	f107 0058 	add.w	r0, r7, #88	@ 0x58
10007142:	f7ff fbc5 	bl	100068d0 <memset>
10007146:	63bc      	str	r4, [r7, #56]	@ 0x38
10007148:	61bc      	str	r4, [r7, #24]
1000714a:	637c      	str	r4, [r7, #52]	@ 0x34
1000714c:	643c      	str	r4, [r7, #64]	@ 0x40
1000714e:	62bc      	str	r4, [r7, #40]	@ 0x28
10007150:	4bb8      	ldr	r3, [pc, #736]	@ (10007434 <__svfscanf_r+0x33c>)
10007152:	f8d3 40e4 	ldr.w	r4, [r3, #228]	@ 0xe4
10007156:	f002 f8dd 	bl	10009314 <__locale_mb_cur_max>
1000715a:	f107 0258 	add.w	r2, r7, #88	@ 0x58
1000715e:	4603      	mov	r3, r0
10007160:	f107 0154 	add.w	r1, r7, #84	@ 0x54
10007164:	9200      	str	r2, [sp, #0]
10007166:	6cfa      	ldr	r2, [r7, #76]	@ 0x4c
10007168:	6cb8      	ldr	r0, [r7, #72]	@ 0x48
1000716a:	47a0      	blx	r4
1000716c:	2800      	cmp	r0, #0
1000716e:	db54      	blt.n	1000721a <__svfscanf_r+0x122>
10007170:	6cfb      	ldr	r3, [r7, #76]	@ 0x4c
10007172:	4602      	mov	r2, r0
10007174:	4403      	add	r3, r0
10007176:	64fb      	str	r3, [r7, #76]	@ 0x4c
10007178:	6d7b      	ldr	r3, [r7, #84]	@ 0x54
1000717a:	2b00      	cmp	r3, #0
1000717c:	d037      	beq.n	100071ee <__svfscanf_r+0xf6>
1000717e:	2801      	cmp	r0, #1
10007180:	d05a      	beq.n	10007238 <__svfscanf_r+0x140>
10007182:	2b25      	cmp	r3, #37	@ 0x25
10007184:	d061      	beq.n	1000724a <__svfscanf_r+0x152>
10007186:	2800      	cmp	r0, #0
10007188:	d0e2      	beq.n	10007150 <__svfscanf_r+0x58>
1000718a:	6cfb      	ldr	r3, [r7, #76]	@ 0x4c
1000718c:	3801      	subs	r0, #1
1000718e:	1a9e      	subs	r6, r3, r2
10007190:	f8da 3004 	ldr.w	r3, [sl, #4]
10007194:	461a      	mov	r2, r3
10007196:	1834      	adds	r4, r6, r0
10007198:	1e75      	subs	r5, r6, #1
1000719a:	2a00      	cmp	r2, #0
1000719c:	dd15      	ble.n	100071ca <__svfscanf_r+0xd2>
1000719e:	f8da 3000 	ldr.w	r3, [sl]
100071a2:	1c69      	adds	r1, r5, #1
100071a4:	786a      	ldrb	r2, [r5, #1]
100071a6:	7818      	ldrb	r0, [r3, #0]
100071a8:	3301      	adds	r3, #1
100071aa:	4290      	cmp	r0, r2
100071ac:	d11f      	bne.n	100071ee <__svfscanf_r+0xf6>
100071ae:	f8da 2004 	ldr.w	r2, [sl, #4]
100071b2:	428c      	cmp	r4, r1
100071b4:	f8ca 3000 	str.w	r3, [sl]
100071b8:	f102 32ff 	add.w	r2, r2, #4294967295
100071bc:	f8ca 2004 	str.w	r2, [sl, #4]
100071c0:	f000 80fe 	beq.w	100073c0 <__svfscanf_r+0x2c8>
100071c4:	2a00      	cmp	r2, #0
100071c6:	460d      	mov	r5, r1
100071c8:	dce9      	bgt.n	1000719e <__svfscanf_r+0xa6>
100071ca:	4651      	mov	r1, sl
100071cc:	6cb8      	ldr	r0, [r7, #72]	@ 0x48
100071ce:	f001 fe3f 	bl	10008e50 <__srefill_r>
100071d2:	2800      	cmp	r0, #0
100071d4:	d0e3      	beq.n	1000719e <__svfscanf_r+0xa6>
100071d6:	6c3a      	ldr	r2, [r7, #64]	@ 0x40
100071d8:	2a00      	cmp	r2, #0
100071da:	f001 82a7 	beq.w	1000872c <__svfscanf_r+0x1634>
100071de:	f8ba 300c 	ldrh.w	r3, [sl, #12]
100071e2:	f013 0f40 	tst.w	r3, #64	@ 0x40
100071e6:	bf18      	it	ne
100071e8:	f04f 32ff 	movne.w	r2, #4294967295
100071ec:	643a      	str	r2, [r7, #64]	@ 0x40
100071ee:	f8da 3064 	ldr.w	r3, [sl, #100]	@ 0x64
100071f2:	07dc      	lsls	r4, r3, #31
100071f4:	f140 80e9 	bpl.w	100073ca <__svfscanf_r+0x2d2>
100071f8:	6bbb      	ldr	r3, [r7, #56]	@ 0x38
100071fa:	b143      	cbz	r3, 1000720e <__svfscanf_r+0x116>
100071fc:	6bbb      	ldr	r3, [r7, #56]	@ 0x38
100071fe:	6818      	ldr	r0, [r3, #0]
10007200:	6c3b      	ldr	r3, [r7, #64]	@ 0x40
10007202:	3301      	adds	r3, #1
10007204:	f000 80ed 	beq.w	100073e2 <__svfscanf_r+0x2ea>
10007208:	b108      	cbz	r0, 1000720e <__svfscanf_r+0x116>
1000720a:	f7fc fd49 	bl	10003ca0 <__wrap_free>
1000720e:	6c38      	ldr	r0, [r7, #64]	@ 0x40
10007210:	f507 7735 	add.w	r7, r7, #724	@ 0x2d4
10007214:	46bd      	mov	sp, r7
10007216:	e8bd 8ff0 	ldmia.w	sp!, {r4, r5, r6, r7, r8, r9, sl, fp, pc}
1000721a:	f64f 73fd 	movw	r3, #65533	@ 0xfffd
1000721e:	2208      	movs	r2, #8
10007220:	2100      	movs	r1, #0
10007222:	f107 0058 	add.w	r0, r7, #88	@ 0x58
10007226:	657b      	str	r3, [r7, #84]	@ 0x54
10007228:	f7ff fb52 	bl	100068d0 <memset>
1000722c:	6cfb      	ldr	r3, [r7, #76]	@ 0x4c
1000722e:	3301      	adds	r3, #1
10007230:	64fb      	str	r3, [r7, #76]	@ 0x4c
10007232:	6d7b      	ldr	r3, [r7, #84]	@ 0x54
10007234:	2b00      	cmp	r3, #0
10007236:	d0da      	beq.n	100071ee <__svfscanf_r+0xf6>
10007238:	4a7f      	ldr	r2, [pc, #508]	@ (10007438 <__svfscanf_r+0x340>)
1000723a:	5cd2      	ldrb	r2, [r2, r3]
1000723c:	0714      	lsls	r4, r2, #28
1000723e:	f100 8562 	bmi.w	10007d06 <__svfscanf_r+0xc0e>
10007242:	2001      	movs	r0, #1
10007244:	2b25      	cmp	r3, #37	@ 0x25
10007246:	4602      	mov	r2, r0
10007248:	d19f      	bne.n	1000718a <__svfscanf_r+0x92>
1000724a:	2400      	movs	r4, #0
1000724c:	6cfe      	ldr	r6, [r7, #76]	@ 0x4c
1000724e:	4625      	mov	r5, r4
10007250:	7831      	ldrb	r1, [r6, #0]
10007252:	f1a1 0325 	sub.w	r3, r1, #37	@ 0x25
10007256:	f106 0801 	add.w	r8, r6, #1
1000725a:	2b55      	cmp	r3, #85	@ 0x55
1000725c:	d8c7      	bhi.n	100071ee <__svfscanf_r+0xf6>
1000725e:	f20f 0c08 	addw	ip, pc, #8
10007262:	f85c f023 	ldr.w	pc, [ip, r3, lsl #2]
10007266:	bf00      	nop
10007268:	1000820d 	.word	0x1000820d
1000726c:	100071ef 	.word	0x100071ef
10007270:	100071ef 	.word	0x100071ef
10007274:	100071ef 	.word	0x100071ef
10007278:	100071ef 	.word	0x100071ef
1000727c:	10008145 	.word	0x10008145
10007280:	100071ef 	.word	0x100071ef
10007284:	100071ef 	.word	0x100071ef
10007288:	100071ef 	.word	0x100071ef
1000728c:	100071ef 	.word	0x100071ef
10007290:	100071ef 	.word	0x100071ef
10007294:	10007f85 	.word	0x10007f85
10007298:	10007f85 	.word	0x10007f85
1000729c:	10007f85 	.word	0x10007f85
100072a0:	10007f85 	.word	0x10007f85
100072a4:	10007f85 	.word	0x10007f85
100072a8:	10007f85 	.word	0x10007f85
100072ac:	10007f85 	.word	0x10007f85
100072b0:	10007f85 	.word	0x10007f85
100072b4:	10007f85 	.word	0x10007f85
100072b8:	10007f85 	.word	0x10007f85
100072bc:	100071ef 	.word	0x100071ef
100072c0:	100071ef 	.word	0x100071ef
100072c4:	100071ef 	.word	0x100071ef
100072c8:	100071ef 	.word	0x100071ef
100072cc:	100071ef 	.word	0x100071ef
100072d0:	100071ef 	.word	0x100071ef
100072d4:	100071ef 	.word	0x100071ef
100072d8:	10007f9f 	.word	0x10007f9f
100072dc:	100071ef 	.word	0x100071ef
100072e0:	10007c09 	.word	0x10007c09
100072e4:	1000743d 	.word	0x1000743d
100072e8:	10007f9f 	.word	0x10007f9f
100072ec:	10007f9f 	.word	0x10007f9f
100072f0:	10007f9f 	.word	0x10007f9f
100072f4:	100071ef 	.word	0x100071ef
100072f8:	100071ef 	.word	0x100071ef
100072fc:	100071ef 	.word	0x100071ef
10007300:	100071ef 	.word	0x100071ef
10007304:	10007423 	.word	0x10007423
10007308:	100071ef 	.word	0x100071ef
1000730c:	100071ef 	.word	0x100071ef
10007310:	10007c29 	.word	0x10007c29
10007314:	100071ef 	.word	0x100071ef
10007318:	100071ef 	.word	0x100071ef
1000731c:	100071ef 	.word	0x100071ef
10007320:	10007c9b 	.word	0x10007c9b
10007324:	100071ef 	.word	0x100071ef
10007328:	100071ef 	.word	0x100071ef
1000732c:	100071ef 	.word	0x100071ef
10007330:	100071ef 	.word	0x100071ef
10007334:	10007fd7 	.word	0x10007fd7
10007338:	100071ef 	.word	0x100071ef
1000733c:	100071ef 	.word	0x100071ef
10007340:	100081cd 	.word	0x100081cd
10007344:	100071ef 	.word	0x100071ef
10007348:	100071ef 	.word	0x100071ef
1000734c:	100071ef 	.word	0x100071ef
10007350:	100071ef 	.word	0x100071ef
10007354:	100071ef 	.word	0x100071ef
10007358:	10007f9f 	.word	0x10007f9f
1000735c:	100071ef 	.word	0x100071ef
10007360:	10007c0d 	.word	0x10007c0d
10007364:	10007441 	.word	0x10007441
10007368:	10007f9f 	.word	0x10007f9f
1000736c:	10007f9f 	.word	0x10007f9f
10007370:	10007f9f 	.word	0x10007f9f
10007374:	100081e3 	.word	0x100081e3
10007378:	100081fb 	.word	0x100081fb
1000737c:	10007423 	.word	0x10007423
10007380:	100071ef 	.word	0x100071ef
10007384:	100081b5 	.word	0x100081b5
10007388:	10008165 	.word	0x10008165
1000738c:	10008181 	.word	0x10008181
10007390:	10007c2d 	.word	0x10007c2d
10007394:	1000813f 	.word	0x1000813f
10007398:	100071ef 	.word	0x100071ef
1000739c:	100071ef 	.word	0x100071ef
100073a0:	10007c9f 	.word	0x10007c9f
100073a4:	10007417 	.word	0x10007417
100073a8:	10008155 	.word	0x10008155
100073ac:	100071ef 	.word	0x100071ef
100073b0:	100071ef 	.word	0x100071ef
100073b4:	10007fd7 	.word	0x10007fd7
100073b8:	100071ef 	.word	0x100071ef
100073bc:	10007417 	.word	0x10007417
100073c0:	3502      	adds	r5, #2
100073c2:	444d      	add	r5, r9
100073c4:	eba5 0906 	sub.w	r9, r5, r6
100073c8:	e6c2      	b.n	10007150 <__svfscanf_r+0x58>
100073ca:	f8ba 300c 	ldrh.w	r3, [sl, #12]
100073ce:	0598      	lsls	r0, r3, #22
100073d0:	f53f af12 	bmi.w	100071f8 <__svfscanf_r+0x100>
100073d4:	f8da 0058 	ldr.w	r0, [sl, #88]	@ 0x58
100073d8:	f7ff fb0e 	bl	100069f8 <__retarget_lock_release_recursive>
100073dc:	e70c      	b.n	100071f8 <__svfscanf_r+0x100>
100073de:	6bbb      	ldr	r3, [r7, #56]	@ 0x38
100073e0:	6818      	ldr	r0, [r3, #0]
100073e2:	6bbb      	ldr	r3, [r7, #56]	@ 0x38
100073e4:	88de      	ldrh	r6, [r3, #6]
100073e6:	b17e      	cbz	r6, 10007408 <__svfscanf_r+0x310>
100073e8:	2400      	movs	r4, #0
100073ea:	1f05      	subs	r5, r0, #4
100073ec:	4681      	mov	r9, r0
100073ee:	46a0      	mov	r8, r4
100073f0:	f855 3f04 	ldr.w	r3, [r5, #4]!
100073f4:	3401      	adds	r4, #1
100073f6:	6818      	ldr	r0, [r3, #0]
100073f8:	f7fc fc52 	bl	10003ca0 <__wrap_free>
100073fc:	682b      	ldr	r3, [r5, #0]
100073fe:	42a6      	cmp	r6, r4
10007400:	f8c3 8000 	str.w	r8, [r3]
10007404:	d1f4      	bne.n	100073f0 <__svfscanf_r+0x2f8>
10007406:	4648      	mov	r0, r9
10007408:	f04f 33ff 	mov.w	r3, #4294967295
1000740c:	643b      	str	r3, [r7, #64]	@ 0x40
1000740e:	2800      	cmp	r0, #0
10007410:	f47f aefb 	bne.w	1000720a <__svfscanf_r+0x112>
10007414:	e6fb      	b.n	1000720e <__svfscanf_r+0x116>
10007416:	0723      	lsls	r3, r4, #28
10007418:	f47f aee9 	bne.w	100071ee <__svfscanf_r+0xf6>
1000741c:	7871      	ldrb	r1, [r6, #1]
1000741e:	4646      	mov	r6, r8
10007420:	e717      	b.n	10007252 <__svfscanf_r+0x15a>
10007422:	0721      	lsls	r1, r4, #28
10007424:	f47f aee3 	bne.w	100071ee <__svfscanf_r+0xf6>
10007428:	7871      	ldrb	r1, [r6, #1]
1000742a:	f044 0402 	orr.w	r4, r4, #2
1000742e:	4646      	mov	r6, r8
10007430:	e70f      	b.n	10007252 <__svfscanf_r+0x15a>
10007432:	bf00      	nop
10007434:	20000c5c 	.word	0x20000c5c
10007438:	1000c87d 	.word	0x1000c87d
1000743c:	f044 0401 	orr.w	r4, r4, #1
10007440:	4ba5      	ldr	r3, [pc, #660]	@ (100076d8 <__svfscanf_r+0x5e0>)
10007442:	f04f 0b03 	mov.w	fp, #3
10007446:	62bb      	str	r3, [r7, #40]	@ 0x28
10007448:	230a      	movs	r3, #10
1000744a:	637b      	str	r3, [r7, #52]	@ 0x34
1000744c:	f8da 3004 	ldr.w	r3, [sl, #4]
10007450:	2b00      	cmp	r3, #0
10007452:	f300 83f6 	bgt.w	10007c42 <__svfscanf_r+0xb4a>
10007456:	4651      	mov	r1, sl
10007458:	6cb8      	ldr	r0, [r7, #72]	@ 0x48
1000745a:	f001 fcf9 	bl	10008e50 <__srefill_r>
1000745e:	2800      	cmp	r0, #0
10007460:	f47f aeb9 	bne.w	100071d6 <__svfscanf_r+0xde>
10007464:	f8c7 804c 	str.w	r8, [r7, #76]	@ 0x4c
10007468:	0660      	lsls	r0, r4, #25
1000746a:	f141 8224 	bpl.w	100088b6 <__svfscanf_r+0x17be>
1000746e:	f10b 33ff 	add.w	r3, fp, #4294967295
10007472:	2b03      	cmp	r3, #3
10007474:	f201 80ef 	bhi.w	10008656 <__svfscanf_r+0x155e>
10007478:	e8df f013 	tbh	[pc, r3, lsl #1]
1000747c:	01da022e 	.word	0x01da022e
10007480:	00040130 	.word	0x00040130
10007484:	6cb8      	ldr	r0, [r7, #72]	@ 0x48
10007486:	f444 68f0 	orr.w	r8, r4, #1920	@ 0x780
1000748a:	f001 ff49 	bl	10009320 <_localeconv_r>
1000748e:	6803      	ldr	r3, [r0, #0]
10007490:	623b      	str	r3, [r7, #32]
10007492:	1e6b      	subs	r3, r5, #1
10007494:	f5b3 7fae 	cmp.w	r3, #348	@ 0x15c
10007498:	f240 873b 	bls.w	10008312 <__svfscanf_r+0x121a>
1000749c:	f46f 7bae 	mvn.w	fp, #348	@ 0x15c
100074a0:	eb05 0c0b 	add.w	ip, r5, fp
100074a4:	f240 155d 	movw	r5, #349	@ 0x15d
100074a8:	f507 7bb8 	add.w	fp, r7, #368	@ 0x170
100074ac:	2300      	movs	r3, #0
100074ae:	f8c7 c00c 	str.w	ip, [r7, #12]
100074b2:	465c      	mov	r4, fp
100074b4:	647b      	str	r3, [r7, #68]	@ 0x44
100074b6:	63fb      	str	r3, [r7, #60]	@ 0x3c
100074b8:	633b      	str	r3, [r7, #48]	@ 0x30
100074ba:	61fb      	str	r3, [r7, #28]
100074bc:	f8c7 b024 	str.w	fp, [r7, #36]	@ 0x24
100074c0:	e9c7 3304 	strd	r3, r3, [r7, #16]
100074c4:	f8da 1000 	ldr.w	r1, [sl]
100074c8:	780a      	ldrb	r2, [r1, #0]
100074ca:	f1a2 032b 	sub.w	r3, r2, #43	@ 0x2b
100074ce:	2b4e      	cmp	r3, #78	@ 0x4e
100074d0:	d850      	bhi.n	10007574 <__svfscanf_r+0x47c>
100074d2:	e8df f013 	tbh	[pc, r3, lsl #1]
100074d6:	033e      	.short	0x033e
100074d8:	033e004f 	.word	0x033e004f
100074dc:	004f004f 	.word	0x004f004f
100074e0:	009d0388 	.word	0x009d0388
100074e4:	009d009d 	.word	0x009d009d
100074e8:	009d009d 	.word	0x009d009d
100074ec:	009d009d 	.word	0x009d009d
100074f0:	009d009d 	.word	0x009d009d
100074f4:	004f004f 	.word	0x004f004f
100074f8:	004f004f 	.word	0x004f004f
100074fc:	004f004f 	.word	0x004f004f
10007500:	032c004f 	.word	0x032c004f
10007504:	009a009a 	.word	0x009a009a
10007508:	036b009a 	.word	0x036b009a
1000750c:	004f0360 	.word	0x004f0360
10007510:	034b004f 	.word	0x034b004f
10007514:	004f004f 	.word	0x004f004f
10007518:	004f004f 	.word	0x004f004f
1000751c:	004f0313 	.word	0x004f0313
10007520:	004f02f3 	.word	0x004f02f3
10007524:	004f004f 	.word	0x004f004f
10007528:	004f02ec 	.word	0x004f02ec
1000752c:	004f004f 	.word	0x004f004f
10007530:	033702d7 	.word	0x033702d7
10007534:	004f004f 	.word	0x004f004f
10007538:	004f004f 	.word	0x004f004f
1000753c:	004f004f 	.word	0x004f004f
10007540:	032c004f 	.word	0x032c004f
10007544:	009a009a 	.word	0x009a009a
10007548:	036b009a 	.word	0x036b009a
1000754c:	004f0360 	.word	0x004f0360
10007550:	034b004f 	.word	0x034b004f
10007554:	004f004f 	.word	0x004f004f
10007558:	004f004f 	.word	0x004f004f
1000755c:	004f0313 	.word	0x004f0313
10007560:	004f02f3 	.word	0x004f02f3
10007564:	004f004f 	.word	0x004f004f
10007568:	004f02ec 	.word	0x004f02ec
1000756c:	004f004f 	.word	0x004f004f
10007570:	033702d7 	.word	0x033702d7
10007574:	f418 7f00 	tst.w	r8, #512	@ 0x200
10007578:	d067      	beq.n	1000764a <__svfscanf_r+0x552>
1000757a:	6a38      	ldr	r0, [r7, #32]
1000757c:	7803      	ldrb	r3, [r0, #0]
1000757e:	4293      	cmp	r3, r2
10007580:	d163      	bne.n	1000764a <__svfscanf_r+0x552>
10007582:	4683      	mov	fp, r0
10007584:	2600      	movs	r6, #0
10007586:	e9c7 5401 	strd	r5, r4, [r7, #4]
1000758a:	4655      	mov	r5, sl
1000758c:	46c2      	mov	sl, r8
1000758e:	e006      	b.n	1000759e <__svfscanf_r+0x4a6>
10007590:	6029      	str	r1, [r5, #0]
10007592:	f89b 0000 	ldrb.w	r0, [fp]
10007596:	f891 e000 	ldrb.w	lr, [r1]
1000759a:	4586      	cmp	lr, r0
1000759c:	d11b      	bne.n	100075d6 <__svfscanf_r+0x4de>
1000759e:	f81b 0f01 	ldrb.w	r0, [fp, #1]!
100075a2:	4634      	mov	r4, r6
100075a4:	46c8      	mov	r8, r9
100075a6:	3101      	adds	r1, #1
100075a8:	3601      	adds	r6, #1
100075aa:	f109 0901 	add.w	r9, r9, #1
100075ae:	2800      	cmp	r0, #0
100075b0:	f000 869a 	beq.w	100082e8 <__svfscanf_r+0x11f0>
100075b4:	6868      	ldr	r0, [r5, #4]
100075b6:	3801      	subs	r0, #1
100075b8:	2800      	cmp	r0, #0
100075ba:	6068      	str	r0, [r5, #4]
100075bc:	dce8      	bgt.n	10007590 <__svfscanf_r+0x498>
100075be:	4629      	mov	r1, r5
100075c0:	6cb8      	ldr	r0, [r7, #72]	@ 0x48
100075c2:	f001 fc45 	bl	10008e50 <__srefill_r>
100075c6:	b930      	cbnz	r0, 100075d6 <__svfscanf_r+0x4de>
100075c8:	6829      	ldr	r1, [r5, #0]
100075ca:	f89b 0000 	ldrb.w	r0, [fp]
100075ce:	f891 e000 	ldrb.w	lr, [r1]
100075d2:	4586      	cmp	lr, r0
100075d4:	d0e3      	beq.n	1000759e <__svfscanf_r+0x4a6>
100075d6:	4643      	mov	r3, r8
100075d8:	46d0      	mov	r8, sl
100075da:	46aa      	mov	sl, r5
100075dc:	4622      	mov	r2, r4
100075de:	68bc      	ldr	r4, [r7, #8]
100075e0:	4691      	mov	r9, r2
100075e2:	e9d7 5b08 	ldrd	r5, fp, [r7, #32]
100075e6:	627c      	str	r4, [r7, #36]	@ 0x24
100075e8:	442e      	add	r6, r5
100075ea:	623b      	str	r3, [r7, #32]
100075ec:	4634      	mov	r4, r6
100075ee:	6cbe      	ldr	r6, [r7, #72]	@ 0x48
100075f0:	f814 1d01 	ldrb.w	r1, [r4, #-1]!
100075f4:	4652      	mov	r2, sl
100075f6:	4630      	mov	r0, r6
100075f8:	f001 fd7a 	bl	100090f0 <_ungetc_r>
100075fc:	42a5      	cmp	r5, r4
100075fe:	d1f7      	bne.n	100075f0 <__svfscanf_r+0x4f8>
10007600:	6a3b      	ldr	r3, [r7, #32]
10007602:	6a7c      	ldr	r4, [r7, #36]	@ 0x24
10007604:	eba3 0909 	sub.w	r9, r3, r9
10007608:	e021      	b.n	1000764e <__svfscanf_r+0x556>
1000760a:	f418 6f00 	tst.w	r8, #2048	@ 0x800
1000760e:	d01c      	beq.n	1000764a <__svfscanf_r+0x552>
10007610:	6bfb      	ldr	r3, [r7, #60]	@ 0x3c
10007612:	6c79      	ldr	r1, [r7, #68]	@ 0x44
10007614:	185b      	adds	r3, r3, r1
10007616:	d118      	bne.n	1000764a <__svfscanf_r+0x552>
10007618:	f428 78c0 	bic.w	r8, r8, #384	@ 0x180
1000761c:	647b      	str	r3, [r7, #68]	@ 0x44
1000761e:	63fb      	str	r3, [r7, #60]	@ 0x3c
10007620:	f804 2b01 	strb.w	r2, [r4], #1
10007624:	3d01      	subs	r5, #1
10007626:	f8da 3004 	ldr.w	r3, [sl, #4]
1000762a:	f109 0901 	add.w	r9, r9, #1
1000762e:	3b01      	subs	r3, #1
10007630:	2b00      	cmp	r3, #0
10007632:	f8ca 3004 	str.w	r3, [sl, #4]
10007636:	f340 835b 	ble.w	10007cf0 <__svfscanf_r+0xbf8>
1000763a:	f8da 3000 	ldr.w	r3, [sl]
1000763e:	3301      	adds	r3, #1
10007640:	f8ca 3000 	str.w	r3, [sl]
10007644:	2d00      	cmp	r5, #0
10007646:	f47f af3d 	bne.w	100074c4 <__svfscanf_r+0x3cc>
1000764a:	f8d7 b024 	ldr.w	fp, [r7, #36]	@ 0x24
1000764e:	6b3b      	ldr	r3, [r7, #48]	@ 0x30
10007650:	b10b      	cbz	r3, 10007656 <__svfscanf_r+0x55e>
10007652:	f428 7880 	bic.w	r8, r8, #256	@ 0x100
10007656:	6bfb      	ldr	r3, [r7, #60]	@ 0x3c
10007658:	3b01      	subs	r3, #1
1000765a:	2b01      	cmp	r3, #1
1000765c:	f241 80c0 	bls.w	100087e0 <__svfscanf_r+0x16e8>
10007660:	6c7b      	ldr	r3, [r7, #68]	@ 0x44
10007662:	3b01      	subs	r3, #1
10007664:	2b06      	cmp	r3, #6
10007666:	f240 8661 	bls.w	1000832c <__svfscanf_r+0x1234>
1000766a:	f418 7f80 	tst.w	r8, #256	@ 0x100
1000766e:	f000 846c 	beq.w	10007f4a <__svfscanf_r+0xe52>
10007672:	f418 6f80 	tst.w	r8, #1024	@ 0x400
10007676:	f040 877a 	bne.w	1000856e <__svfscanf_r+0x1476>
1000767a:	f814 1c01 	ldrb.w	r1, [r4, #-1]
1000767e:	f001 03df 	and.w	r3, r1, #223	@ 0xdf
10007682:	2b45      	cmp	r3, #69	@ 0x45
10007684:	f040 8691 	bne.w	100083aa <__svfscanf_r+0x12b2>
10007688:	1e65      	subs	r5, r4, #1
1000768a:	f109 39ff 	add.w	r9, r9, #4294967295
1000768e:	4652      	mov	r2, sl
10007690:	6cb8      	ldr	r0, [r7, #72]	@ 0x48
10007692:	f001 fd2d 	bl	100090f0 <_ungetc_r>
10007696:	f018 0310 	ands.w	r3, r8, #16
1000769a:	f47f ad59 	bne.w	10007150 <__svfscanf_r+0x58>
1000769e:	702b      	strb	r3, [r5, #0]
100076a0:	697b      	ldr	r3, [r7, #20]
100076a2:	2b00      	cmp	r3, #0
100076a4:	f040 8787 	bne.w	100085b6 <__svfscanf_r+0x14be>
100076a8:	2200      	movs	r2, #0
100076aa:	4659      	mov	r1, fp
100076ac:	6cb8      	ldr	r0, [r7, #72]	@ 0x48
100076ae:	f002 fe77 	bl	1000a3a0 <_strtod_r>
100076b2:	6afb      	ldr	r3, [r7, #44]	@ 0x2c
100076b4:	f018 0f01 	tst.w	r8, #1
100076b8:	4602      	mov	r2, r0
100076ba:	4605      	mov	r5, r0
100076bc:	460e      	mov	r6, r1
100076be:	f103 0404 	add.w	r4, r3, #4
100076c2:	f000 8667 	beq.w	10008394 <__svfscanf_r+0x129c>
100076c6:	681b      	ldr	r3, [r3, #0]
100076c8:	e9c3 5600 	strd	r5, r6, [r3]
100076cc:	6c3b      	ldr	r3, [r7, #64]	@ 0x40
100076ce:	62fc      	str	r4, [r7, #44]	@ 0x2c
100076d0:	3301      	adds	r3, #1
100076d2:	643b      	str	r3, [r7, #64]	@ 0x40
100076d4:	e53c      	b.n	10007150 <__svfscanf_r+0x58>
100076d6:	bf00      	nop
100076d8:	1000a4b9 	.word	0x1000a4b9
100076dc:	1e6b      	subs	r3, r5, #1
100076de:	f444 6458 	orr.w	r4, r4, #3456	@ 0xd80
100076e2:	f5b3 7fae 	cmp.w	r3, #348	@ 0x15c
100076e6:	f240 832e 	bls.w	10007d46 <__svfscanf_r+0xc4e>
100076ea:	f46f 72ae 	mvn.w	r2, #348	@ 0x15c
100076ee:	18a9      	adds	r1, r5, r2
100076f0:	f240 155d 	movw	r5, #349	@ 0x15d
100076f4:	f507 7bb8 	add.w	fp, r7, #368	@ 0x170
100076f8:	f04f 0800 	mov.w	r8, #0
100076fc:	6b7a      	ldr	r2, [r7, #52]	@ 0x34
100076fe:	465e      	mov	r6, fp
10007700:	46cb      	mov	fp, r9
10007702:	46d1      	mov	r9, sl
10007704:	46c2      	mov	sl, r8
10007706:	46b0      	mov	r8, r6
10007708:	63f9      	str	r1, [r7, #60]	@ 0x3c
1000770a:	f8d9 0000 	ldr.w	r0, [r9]
1000770e:	f890 c000 	ldrb.w	ip, [r0]
10007712:	f1ac 032b 	sub.w	r3, ip, #43	@ 0x2b
10007716:	2b4d      	cmp	r3, #77	@ 0x4d
10007718:	d862      	bhi.n	100077e0 <__svfscanf_r+0x6e8>
1000771a:	e8df f013 	tbh	[pc, r3, lsl #1]
1000771e:	0257      	.short	0x0257
10007720:	02570061 	.word	0x02570061
10007724:	00610061 	.word	0x00610061
10007728:	01ad02c4 	.word	0x01ad02c4
1000772c:	01ad01ad 	.word	0x01ad01ad
10007730:	01ad01ad 	.word	0x01ad01ad
10007734:	01ad01ad 	.word	0x01ad01ad
10007738:	025d025d 	.word	0x025d025d
1000773c:	00610061 	.word	0x00610061
10007740:	00610061 	.word	0x00610061
10007744:	00610061 	.word	0x00610061
10007748:	004e0061 	.word	0x004e0061
1000774c:	004e004e 	.word	0x004e004e
10007750:	004e004e 	.word	0x004e004e
10007754:	0061004e 	.word	0x0061004e
10007758:	00610061 	.word	0x00610061
1000775c:	00610061 	.word	0x00610061
10007760:	00610061 	.word	0x00610061
10007764:	00610061 	.word	0x00610061
10007768:	00610061 	.word	0x00610061
1000776c:	00610061 	.word	0x00610061
10007770:	00610061 	.word	0x00610061
10007774:	00610061 	.word	0x00610061
10007778:	0061024b 	.word	0x0061024b
1000777c:	00610061 	.word	0x00610061
10007780:	00610061 	.word	0x00610061
10007784:	00610061 	.word	0x00610061
10007788:	004e0061 	.word	0x004e0061
1000778c:	004e004e 	.word	0x004e004e
10007790:	004e004e 	.word	0x004e004e
10007794:	0061004e 	.word	0x0061004e
10007798:	00610061 	.word	0x00610061
1000779c:	00610061 	.word	0x00610061
100077a0:	00610061 	.word	0x00610061
100077a4:	00610061 	.word	0x00610061
100077a8:	00610061 	.word	0x00610061
100077ac:	00610061 	.word	0x00610061
100077b0:	00610061 	.word	0x00610061
100077b4:	00610061 	.word	0x00610061
100077b8:	024b      	.short	0x024b
100077ba:	2a0a      	cmp	r2, #10
100077bc:	dd10      	ble.n	100077e0 <__svfscanf_r+0x6e8>
100077be:	f424 6438 	bic.w	r4, r4, #2944	@ 0xb80
100077c2:	f806 cb01 	strb.w	ip, [r6], #1
100077c6:	f8d9 3004 	ldr.w	r3, [r9, #4]
100077ca:	3b01      	subs	r3, #1
100077cc:	2b00      	cmp	r3, #0
100077ce:	f8c9 3004 	str.w	r3, [r9, #4]
100077d2:	f340 8283 	ble.w	10007cdc <__svfscanf_r+0xbe4>
100077d6:	3001      	adds	r0, #1
100077d8:	f8c9 0000 	str.w	r0, [r9]
100077dc:	3d01      	subs	r5, #1
100077de:	d194      	bne.n	1000770a <__svfscanf_r+0x612>
100077e0:	4643      	mov	r3, r8
100077e2:	05e1      	lsls	r1, r4, #23
100077e4:	46d0      	mov	r8, sl
100077e6:	637a      	str	r2, [r7, #52]	@ 0x34
100077e8:	46ca      	mov	sl, r9
100077ea:	46d9      	mov	r9, fp
100077ec:	469b      	mov	fp, r3
100077ee:	d505      	bpl.n	100077fc <__svfscanf_r+0x704>
100077f0:	429e      	cmp	r6, r3
100077f2:	f200 8416 	bhi.w	10008022 <__svfscanf_r+0xf2a>
100077f6:	455e      	cmp	r6, fp
100077f8:	f43f acf9 	beq.w	100071ee <__svfscanf_r+0xf6>
100077fc:	f014 0210 	ands.w	r2, r4, #16
10007800:	d111      	bne.n	10007826 <__svfscanf_r+0x72e>
10007802:	6b7b      	ldr	r3, [r7, #52]	@ 0x34
10007804:	4659      	mov	r1, fp
10007806:	6abd      	ldr	r5, [r7, #40]	@ 0x28
10007808:	7032      	strb	r2, [r6, #0]
1000780a:	6cb8      	ldr	r0, [r7, #72]	@ 0x48
1000780c:	47a8      	blx	r5
1000780e:	6afb      	ldr	r3, [r7, #44]	@ 0x2c
10007810:	06a2      	lsls	r2, r4, #26
10007812:	f103 0504 	add.w	r5, r3, #4
10007816:	f140 83ec 	bpl.w	10007ff2 <__svfscanf_r+0xefa>
1000781a:	681b      	ldr	r3, [r3, #0]
1000781c:	6018      	str	r0, [r3, #0]
1000781e:	6c3b      	ldr	r3, [r7, #64]	@ 0x40
10007820:	62fd      	str	r5, [r7, #44]	@ 0x2c
10007822:	3301      	adds	r3, #1
10007824:	643b      	str	r3, [r7, #64]	@ 0x40
10007826:	eba6 060b 	sub.w	r6, r6, fp
1000782a:	4446      	add	r6, r8
1000782c:	44b1      	add	r9, r6
1000782e:	e48f      	b.n	10007150 <__svfscanf_r+0x58>
10007830:	2d00      	cmp	r5, #0
10007832:	f004 0810 	and.w	r8, r4, #16
10007836:	bf08      	it	eq
10007838:	f04f 35ff 	moveq.w	r5, #4294967295
1000783c:	07e3      	lsls	r3, r4, #31
1000783e:	f140 8303 	bpl.w	10007e48 <__svfscanf_r+0xd50>
10007842:	f1b8 0f00 	cmp.w	r8, #0
10007846:	f040 8522 	bne.w	1000828e <__svfscanf_r+0x1196>
1000784a:	6afb      	ldr	r3, [r7, #44]	@ 0x2c
1000784c:	0626      	lsls	r6, r4, #24
1000784e:	f853 2b04 	ldr.w	r2, [r3], #4
10007852:	62fb      	str	r3, [r7, #44]	@ 0x2c
10007854:	f140 86c5 	bpl.w	100085e2 <__svfscanf_r+0x14ea>
10007858:	647a      	str	r2, [r7, #68]	@ 0x44
1000785a:	2a00      	cmp	r2, #0
1000785c:	f43f acc7 	beq.w	100071ee <__svfscanf_r+0xf6>
10007860:	2080      	movs	r0, #128	@ 0x80
10007862:	f7fc f9f9 	bl	10003c58 <__wrap_malloc>
10007866:	6c7a      	ldr	r2, [r7, #68]	@ 0x44
10007868:	4603      	mov	r3, r0
1000786a:	2800      	cmp	r0, #0
1000786c:	f000 875e 	beq.w	1000872c <__svfscanf_r+0x1634>
10007870:	6bb9      	ldr	r1, [r7, #56]	@ 0x38
10007872:	6010      	str	r0, [r2, #0]
10007874:	88cc      	ldrh	r4, [r1, #6]
10007876:	888e      	ldrh	r6, [r1, #4]
10007878:	42b4      	cmp	r4, r6
1000787a:	f080 85b5 	bcs.w	100083e8 <__svfscanf_r+0x12f0>
1000787e:	6808      	ldr	r0, [r1, #0]
10007880:	6bb9      	ldr	r1, [r7, #56]	@ 0x38
10007882:	f04f 0c20 	mov.w	ip, #32
10007886:	f840 2024 	str.w	r2, [r0, r4, lsl #2]
1000788a:	3401      	adds	r4, #1
1000788c:	647b      	str	r3, [r7, #68]	@ 0x44
1000788e:	80cc      	strh	r4, [r1, #6]
10007890:	f8da 1000 	ldr.w	r1, [sl]
10007894:	4eb2      	ldr	r6, [pc, #712]	@ (10007b60 <__svfscanf_r+0xa68>)
10007896:	7809      	ldrb	r1, [r1, #0]
10007898:	5c74      	ldrb	r4, [r6, r1]
1000789a:	f014 0408 	ands.w	r4, r4, #8
1000789e:	f000 83c9 	beq.w	10008034 <__svfscanf_r+0xf3c>
100078a2:	f1b8 0f00 	cmp.w	r8, #0
100078a6:	f47f ac53 	bne.w	10007150 <__svfscanf_r+0x58>
100078aa:	6c79      	ldr	r1, [r7, #68]	@ 0x44
100078ac:	f8c3 8000 	str.w	r8, [r3]
100078b0:	1a5b      	subs	r3, r3, r1
100078b2:	1099      	asrs	r1, r3, #2
100078b4:	3101      	adds	r1, #1
100078b6:	458c      	cmp	ip, r1
100078b8:	f240 80d9 	bls.w	10007a6e <__svfscanf_r+0x976>
100078bc:	2a00      	cmp	r2, #0
100078be:	f000 80d6 	beq.w	10007a6e <__svfscanf_r+0x976>
100078c2:	1d19      	adds	r1, r3, #4
100078c4:	6810      	ldr	r0, [r2, #0]
100078c6:	647a      	str	r2, [r7, #68]	@ 0x44
100078c8:	f7fc f9d8 	bl	10003c7c <__wrap_realloc>
100078cc:	2800      	cmp	r0, #0
100078ce:	f000 80ce 	beq.w	10007a6e <__svfscanf_r+0x976>
100078d2:	6c7a      	ldr	r2, [r7, #68]	@ 0x44
100078d4:	6010      	str	r0, [r2, #0]
100078d6:	e0ca      	b.n	10007a6e <__svfscanf_r+0x976>
100078d8:	2d00      	cmp	r5, #0
100078da:	f004 0310 	and.w	r3, r4, #16
100078de:	bf08      	it	eq
100078e0:	f04f 35ff 	moveq.w	r5, #4294967295
100078e4:	07e6      	lsls	r6, r4, #31
100078e6:	633b      	str	r3, [r7, #48]	@ 0x30
100078e8:	f140 822f 	bpl.w	10007d4a <__svfscanf_r+0xc52>
100078ec:	2b00      	cmp	r3, #0
100078ee:	f040 84c5 	bne.w	1000827c <__svfscanf_r+0x1184>
100078f2:	6afb      	ldr	r3, [r7, #44]	@ 0x2c
100078f4:	0624      	lsls	r4, r4, #24
100078f6:	f853 2b04 	ldr.w	r2, [r3], #4
100078fa:	61fa      	str	r2, [r7, #28]
100078fc:	62fb      	str	r3, [r7, #44]	@ 0x2c
100078fe:	f140 8664 	bpl.w	100085ca <__svfscanf_r+0x14d2>
10007902:	2a00      	cmp	r2, #0
10007904:	f43f ac73 	beq.w	100071ee <__svfscanf_r+0xf6>
10007908:	2080      	movs	r0, #128	@ 0x80
1000790a:	f7fc f9a5 	bl	10003c58 <__wrap_malloc>
1000790e:	4680      	mov	r8, r0
10007910:	2800      	cmp	r0, #0
10007912:	f000 870b 	beq.w	1000872c <__svfscanf_r+0x1634>
10007916:	69fb      	ldr	r3, [r7, #28]
10007918:	6018      	str	r0, [r3, #0]
1000791a:	6bbb      	ldr	r3, [r7, #56]	@ 0x38
1000791c:	88dc      	ldrh	r4, [r3, #6]
1000791e:	889e      	ldrh	r6, [r3, #4]
10007920:	42b4      	cmp	r4, r6
10007922:	f080 858d 	bcs.w	10008440 <__svfscanf_r+0x1348>
10007926:	6818      	ldr	r0, [r3, #0]
10007928:	69fb      	ldr	r3, [r7, #28]
1000792a:	f8c7 8024 	str.w	r8, [r7, #36]	@ 0x24
1000792e:	f840 3024 	str.w	r3, [r0, r4, lsl #2]
10007932:	3401      	adds	r4, #1
10007934:	6bbb      	ldr	r3, [r7, #56]	@ 0x38
10007936:	80dc      	strh	r4, [r3, #6]
10007938:	2320      	movs	r3, #32
1000793a:	623b      	str	r3, [r7, #32]
1000793c:	647d      	str	r5, [r7, #68]	@ 0x44
1000793e:	2400      	movs	r4, #0
10007940:	f507 7bb8 	add.w	fp, r7, #368	@ 0x170
10007944:	69bd      	ldr	r5, [r7, #24]
10007946:	f8c7 903c 	str.w	r9, [r7, #60]	@ 0x3c
1000794a:	f001 fce3 	bl	10009314 <__locale_mb_cur_max>
1000794e:	42a0      	cmp	r0, r4
10007950:	f43f ac41 	beq.w	100071d6 <__svfscanf_r+0xde>
10007954:	2d03      	cmp	r5, #3
10007956:	f107 0960 	add.w	r9, r7, #96	@ 0x60
1000795a:	e9da 3200 	ldrd	r3, r2, [sl]
1000795e:	f813 1b01 	ldrb.w	r1, [r3], #1
10007962:	f102 32ff 	add.w	r2, r2, #4294967295
10007966:	f80b 1004 	strb.w	r1, [fp, r4]
1000796a:	f104 0401 	add.w	r4, r4, #1
1000796e:	f8ca 2004 	str.w	r2, [sl, #4]
10007972:	f8ca 3000 	str.w	r3, [sl]
10007976:	d103      	bne.n	10007980 <__svfscanf_r+0x888>
10007978:	f8d9 3000 	ldr.w	r3, [r9]
1000797c:	2b04      	cmp	r3, #4
1000797e:	d004      	beq.n	1000798a <__svfscanf_r+0x892>
10007980:	2208      	movs	r2, #8
10007982:	2100      	movs	r1, #0
10007984:	4648      	mov	r0, r9
10007986:	f7fe ffa3 	bl	100068d0 <memset>
1000798a:	f8cd 9000 	str.w	r9, [sp]
1000798e:	4623      	mov	r3, r4
10007990:	465a      	mov	r2, fp
10007992:	4641      	mov	r1, r8
10007994:	6cb8      	ldr	r0, [r7, #72]	@ 0x48
10007996:	f002 ff29 	bl	1000a7ec <_mbrtowc_r>
1000799a:	4605      	mov	r5, r0
1000799c:	1c68      	adds	r0, r5, #1
1000799e:	f43f ac1a 	beq.w	100071d6 <__svfscanf_r+0xde>
100079a2:	2d00      	cmp	r5, #0
100079a4:	f040 847c 	bne.w	100082a0 <__svfscanf_r+0x11a8>
100079a8:	462e      	mov	r6, r5
100079aa:	f8c8 5000 	str.w	r5, [r8]
100079ae:	2208      	movs	r2, #8
100079b0:	2100      	movs	r1, #0
100079b2:	f107 0068 	add.w	r0, r7, #104	@ 0x68
100079b6:	f7fe ff8b 	bl	100068d0 <memset>
100079ba:	4b6a      	ldr	r3, [pc, #424]	@ (10007b64 <__svfscanf_r+0xa6c>)
100079bc:	4632      	mov	r2, r6
100079be:	6cb8      	ldr	r0, [r7, #72]	@ 0x48
100079c0:	f8d3 60e0 	ldr.w	r6, [r3, #224]	@ 0xe0
100079c4:	f107 0150 	add.w	r1, r7, #80	@ 0x50
100079c8:	f107 0368 	add.w	r3, r7, #104	@ 0x68
100079cc:	47b0      	blx	r6
100079ce:	2801      	cmp	r0, #1
100079d0:	bf0c      	ite	eq
100079d2:	f897 6050 	ldrbeq.w	r6, [r7, #80]	@ 0x50
100079d6:	2600      	movne	r6, #0
100079d8:	f107 0370 	add.w	r3, r7, #112	@ 0x70
100079dc:	5d9b      	ldrb	r3, [r3, r6]
100079de:	2b00      	cmp	r3, #0
100079e0:	f000 8606 	beq.w	100085f0 <__svfscanf_r+0x14f8>
100079e4:	6bfb      	ldr	r3, [r7, #60]	@ 0x3c
100079e6:	2d03      	cmp	r5, #3
100079e8:	4423      	add	r3, r4
100079ea:	63fb      	str	r3, [r7, #60]	@ 0x3c
100079ec:	f000 8461 	beq.w	100082b2 <__svfscanf_r+0x11ba>
100079f0:	6c7b      	ldr	r3, [r7, #68]	@ 0x44
100079f2:	3b01      	subs	r3, #1
100079f4:	647b      	str	r3, [r7, #68]	@ 0x44
100079f6:	6b3b      	ldr	r3, [r7, #48]	@ 0x30
100079f8:	b9bb      	cbnz	r3, 10007a2a <__svfscanf_r+0x932>
100079fa:	f108 0804 	add.w	r8, r8, #4
100079fe:	6a78      	ldr	r0, [r7, #36]	@ 0x24
10007a00:	6a3e      	ldr	r6, [r7, #32]
10007a02:	eba8 0400 	sub.w	r4, r8, r0
10007a06:	ebb6 0fa4 	cmp.w	r6, r4, asr #2
10007a0a:	d80e      	bhi.n	10007a2a <__svfscanf_r+0x932>
10007a0c:	69fb      	ldr	r3, [r7, #28]
10007a0e:	b163      	cbz	r3, 10007a2a <__svfscanf_r+0x932>
10007a10:	00f1      	lsls	r1, r6, #3
10007a12:	f7fc f933 	bl	10003c7c <__wrap_realloc>
10007a16:	6278      	str	r0, [r7, #36]	@ 0x24
10007a18:	2800      	cmp	r0, #0
10007a1a:	f000 8687 	beq.w	1000872c <__svfscanf_r+0x1634>
10007a1e:	0071      	lsls	r1, r6, #1
10007a20:	69fb      	ldr	r3, [r7, #28]
10007a22:	eb00 0804 	add.w	r8, r0, r4
10007a26:	6239      	str	r1, [r7, #32]
10007a28:	6018      	str	r0, [r3, #0]
10007a2a:	f8da 3004 	ldr.w	r3, [sl, #4]
10007a2e:	2400      	movs	r4, #0
10007a30:	2b00      	cmp	r3, #0
10007a32:	f340 844a 	ble.w	100082ca <__svfscanf_r+0x11d2>
10007a36:	6c7b      	ldr	r3, [r7, #68]	@ 0x44
10007a38:	2b00      	cmp	r3, #0
10007a3a:	d186      	bne.n	1000794a <__svfscanf_r+0x852>
10007a3c:	f8d7 903c 	ldr.w	r9, [r7, #60]	@ 0x3c
10007a40:	61bd      	str	r5, [r7, #24]
10007a42:	6b3b      	ldr	r3, [r7, #48]	@ 0x30
10007a44:	2b00      	cmp	r3, #0
10007a46:	f47f ab83 	bne.w	10007150 <__svfscanf_r+0x58>
10007a4a:	f8c8 3000 	str.w	r3, [r8]
10007a4e:	6a7b      	ldr	r3, [r7, #36]	@ 0x24
10007a50:	6a3a      	ldr	r2, [r7, #32]
10007a52:	eba8 0103 	sub.w	r1, r8, r3
10007a56:	108b      	asrs	r3, r1, #2
10007a58:	3301      	adds	r3, #1
10007a5a:	429a      	cmp	r2, r3
10007a5c:	d907      	bls.n	10007a6e <__svfscanf_r+0x976>
10007a5e:	69fc      	ldr	r4, [r7, #28]
10007a60:	b12c      	cbz	r4, 10007a6e <__svfscanf_r+0x976>
10007a62:	3104      	adds	r1, #4
10007a64:	6820      	ldr	r0, [r4, #0]
10007a66:	f7fc f909 	bl	10003c7c <__wrap_realloc>
10007a6a:	b100      	cbz	r0, 10007a6e <__svfscanf_r+0x976>
10007a6c:	6020      	str	r0, [r4, #0]
10007a6e:	6c3b      	ldr	r3, [r7, #64]	@ 0x40
10007a70:	3301      	adds	r3, #1
10007a72:	643b      	str	r3, [r7, #64]	@ 0x40
10007a74:	f7ff bb6c 	b.w	10007150 <__svfscanf_r+0x58>
10007a78:	4b3b      	ldr	r3, [pc, #236]	@ (10007b68 <__svfscanf_r+0xa70>)
10007a7a:	f424 6438 	bic.w	r4, r4, #2944	@ 0xb80
10007a7e:	f933 2012 	ldrsh.w	r2, [r3, r2, lsl #1]
10007a82:	e69e      	b.n	100077c2 <__svfscanf_r+0x6ca>
10007a84:	f408 6318 	and.w	r3, r8, #2432	@ 0x980
10007a88:	f5b3 7f80 	cmp.w	r3, #256	@ 0x100
10007a8c:	f47f addd 	bne.w	1000764a <__svfscanf_r+0x552>
10007a90:	6b3b      	ldr	r3, [r7, #48]	@ 0x30
10007a92:	2b01      	cmp	r3, #1
10007a94:	f47f add9 	bne.w	1000764a <__svfscanf_r+0x552>
10007a98:	2330      	movs	r3, #48	@ 0x30
10007a9a:	f428 7880 	bic.w	r8, r8, #256	@ 0x100
10007a9e:	3d01      	subs	r5, #1
10007aa0:	f804 3b01 	strb.w	r3, [r4], #1
10007aa4:	2300      	movs	r3, #0
10007aa6:	f448 6800 	orr.w	r8, r8, #2048	@ 0x800
10007aaa:	633b      	str	r3, [r7, #48]	@ 0x30
10007aac:	e5b8      	b.n	10007620 <__svfscanf_r+0x528>
10007aae:	6c7b      	ldr	r3, [r7, #68]	@ 0x44
10007ab0:	2b06      	cmp	r3, #6
10007ab2:	f47f adca 	bne.w	1000764a <__svfscanf_r+0x552>
10007ab6:	2307      	movs	r3, #7
10007ab8:	647b      	str	r3, [r7, #68]	@ 0x44
10007aba:	e5b1      	b.n	10007620 <__svfscanf_r+0x528>
10007abc:	f418 6f00 	tst.w	r8, #2048	@ 0x800
10007ac0:	f43f adc3 	beq.w	1000764a <__svfscanf_r+0x552>
10007ac4:	f408 63a0 	and.w	r3, r8, #1280	@ 0x500
10007ac8:	f5b3 6f80 	cmp.w	r3, #1024	@ 0x400
10007acc:	d007      	beq.n	10007ade <__svfscanf_r+0x9e6>
10007ace:	f418 6f80 	tst.w	r8, #1024	@ 0x400
10007ad2:	f43f adba 	beq.w	1000764a <__svfscanf_r+0x552>
10007ad6:	6b3b      	ldr	r3, [r7, #48]	@ 0x30
10007ad8:	2b00      	cmp	r3, #0
10007ada:	f000 8690 	beq.w	100087fe <__svfscanf_r+0x1706>
10007ade:	f418 7f00 	tst.w	r8, #512	@ 0x200
10007ae2:	d104      	bne.n	10007aee <__svfscanf_r+0x9f6>
10007ae4:	6b3b      	ldr	r3, [r7, #48]	@ 0x30
10007ae6:	69f9      	ldr	r1, [r7, #28]
10007ae8:	1a5b      	subs	r3, r3, r1
10007aea:	e9c7 4304 	strd	r4, r3, [r7, #16]
10007aee:	f428 6878 	bic.w	r8, r8, #3968	@ 0xf80
10007af2:	2300      	movs	r3, #0
10007af4:	f448 78c0 	orr.w	r8, r8, #384	@ 0x180
10007af8:	633b      	str	r3, [r7, #48]	@ 0x30
10007afa:	e591      	b.n	10007620 <__svfscanf_r+0x528>
10007afc:	6bfb      	ldr	r3, [r7, #60]	@ 0x3c
10007afe:	2b00      	cmp	r3, #0
10007b00:	f040 827e 	bne.w	10008000 <__svfscanf_r+0xf08>
10007b04:	6b3b      	ldr	r3, [r7, #48]	@ 0x30
10007b06:	2b00      	cmp	r3, #0
10007b08:	f040 827a 	bne.w	10008000 <__svfscanf_r+0xf08>
10007b0c:	f408 63e0 	and.w	r3, r8, #1792	@ 0x700
10007b10:	f5b3 6fe0 	cmp.w	r3, #1792	@ 0x700
10007b14:	f000 8581 	beq.w	1000861a <__svfscanf_r+0x1522>
10007b18:	6c7b      	ldr	r3, [r7, #68]	@ 0x44
10007b1a:	2b01      	cmp	r3, #1
10007b1c:	d002      	beq.n	10007b24 <__svfscanf_r+0xa2c>
10007b1e:	2b04      	cmp	r3, #4
10007b20:	f47f ad93 	bne.w	1000764a <__svfscanf_r+0x552>
10007b24:	6c7b      	ldr	r3, [r7, #68]	@ 0x44
10007b26:	3301      	adds	r3, #1
10007b28:	b2db      	uxtb	r3, r3
10007b2a:	647b      	str	r3, [r7, #68]	@ 0x44
10007b2c:	e578      	b.n	10007620 <__svfscanf_r+0x528>
10007b2e:	f418 6f00 	tst.w	r8, #2048	@ 0x800
10007b32:	f040 823f 	bne.w	10007fb4 <__svfscanf_r+0xebc>
10007b36:	6bfb      	ldr	r3, [r7, #60]	@ 0x3c
10007b38:	2b01      	cmp	r3, #1
10007b3a:	f47f ad86 	bne.w	1000764a <__svfscanf_r+0x552>
10007b3e:	2302      	movs	r3, #2
10007b40:	63fb      	str	r3, [r7, #60]	@ 0x3c
10007b42:	e56d      	b.n	10007620 <__svfscanf_r+0x528>
10007b44:	6c7b      	ldr	r3, [r7, #68]	@ 0x44
10007b46:	2b07      	cmp	r3, #7
10007b48:	f47f ad7f 	bne.w	1000764a <__svfscanf_r+0x552>
10007b4c:	2308      	movs	r3, #8
10007b4e:	647b      	str	r3, [r7, #68]	@ 0x44
10007b50:	e566      	b.n	10007620 <__svfscanf_r+0x528>
10007b52:	f018 0f80 	tst.w	r8, #128	@ 0x80
10007b56:	f43f ad78 	beq.w	1000764a <__svfscanf_r+0x552>
10007b5a:	f028 0880 	bic.w	r8, r8, #128	@ 0x80
10007b5e:	e55f      	b.n	10007620 <__svfscanf_r+0x528>
10007b60:	1000c87d 	.word	0x1000c87d
10007b64:	20000c5c 	.word	0x20000c5c
10007b68:	1000c980 	.word	0x1000c980
10007b6c:	6c7b      	ldr	r3, [r7, #68]	@ 0x44
10007b6e:	2b00      	cmp	r3, #0
10007b70:	f040 824e 	bne.w	10008010 <__svfscanf_r+0xf18>
10007b74:	6b3b      	ldr	r3, [r7, #48]	@ 0x30
10007b76:	2b00      	cmp	r3, #0
10007b78:	f040 824a 	bne.w	10008010 <__svfscanf_r+0xf18>
10007b7c:	f408 63e0 	and.w	r3, r8, #1792	@ 0x700
10007b80:	f5b3 6fe0 	cmp.w	r3, #1792	@ 0x700
10007b84:	f000 8551 	beq.w	1000862a <__svfscanf_r+0x1532>
10007b88:	2300      	movs	r3, #0
10007b8a:	f8d7 b024 	ldr.w	fp, [r7, #36]	@ 0x24
10007b8e:	647b      	str	r3, [r7, #68]	@ 0x44
10007b90:	2300      	movs	r3, #0
10007b92:	633b      	str	r3, [r7, #48]	@ 0x30
10007b94:	e55f      	b.n	10007656 <__svfscanf_r+0x55e>
10007b96:	f418 6f00 	tst.w	r8, #2048	@ 0x800
10007b9a:	f040 8204 	bne.w	10007fa6 <__svfscanf_r+0xeae>
10007b9e:	6c7b      	ldr	r3, [r7, #68]	@ 0x44
10007ba0:	2b02      	cmp	r3, #2
10007ba2:	f47f ad52 	bne.w	1000764a <__svfscanf_r+0x552>
10007ba6:	2303      	movs	r3, #3
10007ba8:	647b      	str	r3, [r7, #68]	@ 0x44
10007baa:	e539      	b.n	10007620 <__svfscanf_r+0x528>
10007bac:	f418 6f00 	tst.w	r8, #2048	@ 0x800
10007bb0:	d088      	beq.n	10007ac4 <__svfscanf_r+0x9cc>
10007bb2:	e52d      	b.n	10007610 <__svfscanf_r+0x518>
10007bb4:	f404 63c0 	and.w	r3, r4, #1536	@ 0x600
10007bb8:	f5b3 7f00 	cmp.w	r3, #512	@ 0x200
10007bbc:	f47f ae10 	bne.w	100077e0 <__svfscanf_r+0x6e8>
10007bc0:	f424 7400 	bic.w	r4, r4, #512	@ 0x200
10007bc4:	2210      	movs	r2, #16
10007bc6:	f444 64a0 	orr.w	r4, r4, #1280	@ 0x500
10007bca:	e5fa      	b.n	100077c2 <__svfscanf_r+0x6ca>
10007bcc:	0623      	lsls	r3, r4, #24
10007bce:	f57f ae07 	bpl.w	100077e0 <__svfscanf_r+0x6e8>
10007bd2:	f024 0480 	bic.w	r4, r4, #128	@ 0x80
10007bd6:	e5f4      	b.n	100077c2 <__svfscanf_r+0x6ca>
10007bd8:	4b98      	ldr	r3, [pc, #608]	@ (10007e3c <__svfscanf_r+0xd44>)
10007bda:	f933 2012 	ldrsh.w	r2, [r3, r2, lsl #1]
10007bde:	2a08      	cmp	r2, #8
10007be0:	f73f aded 	bgt.w	100077be <__svfscanf_r+0x6c6>
10007be4:	e5fc      	b.n	100077e0 <__svfscanf_r+0x6e8>
10007be6:	f418 7f80 	tst.w	r8, #256	@ 0x100
10007bea:	f43f ad11 	beq.w	10007610 <__svfscanf_r+0x518>
10007bee:	6b3b      	ldr	r3, [r7, #48]	@ 0x30
10007bf0:	f028 0880 	bic.w	r8, r8, #128	@ 0x80
10007bf4:	3301      	adds	r3, #1
10007bf6:	633b      	str	r3, [r7, #48]	@ 0x30
10007bf8:	68fb      	ldr	r3, [r7, #12]
10007bfa:	2b00      	cmp	r3, #0
10007bfc:	f43f ad12 	beq.w	10007624 <__svfscanf_r+0x52c>
10007c00:	68fb      	ldr	r3, [r7, #12]
10007c02:	3b01      	subs	r3, #1
10007c04:	60fb      	str	r3, [r7, #12]
10007c06:	e50e      	b.n	10007626 <__svfscanf_r+0x52e>
10007c08:	f044 0401 	orr.w	r4, r4, #1
10007c0c:	f044 0440 	orr.w	r4, r4, #64	@ 0x40
10007c10:	f04f 0b00 	mov.w	fp, #0
10007c14:	f8c7 804c 	str.w	r8, [r7, #76]	@ 0x4c
10007c18:	f8da 3004 	ldr.w	r3, [sl, #4]
10007c1c:	2b00      	cmp	r3, #0
10007c1e:	f73f ac23 	bgt.w	10007468 <__svfscanf_r+0x370>
10007c22:	f8d7 804c 	ldr.w	r8, [r7, #76]	@ 0x4c
10007c26:	e416      	b.n	10007456 <__svfscanf_r+0x35e>
10007c28:	f044 0401 	orr.w	r4, r4, #1
10007c2c:	4b84      	ldr	r3, [pc, #528]	@ (10007e40 <__svfscanf_r+0xd48>)
10007c2e:	f04f 0b03 	mov.w	fp, #3
10007c32:	62bb      	str	r3, [r7, #40]	@ 0x28
10007c34:	2308      	movs	r3, #8
10007c36:	637b      	str	r3, [r7, #52]	@ 0x34
10007c38:	f8da 3004 	ldr.w	r3, [sl, #4]
10007c3c:	2b00      	cmp	r3, #0
10007c3e:	f77f ac0a 	ble.w	10007456 <__svfscanf_r+0x35e>
10007c42:	f8da 2000 	ldr.w	r2, [sl]
10007c46:	4e7f      	ldr	r6, [pc, #508]	@ (10007e44 <__svfscanf_r+0xd4c>)
10007c48:	7813      	ldrb	r3, [r2, #0]
10007c4a:	5cf3      	ldrb	r3, [r6, r3]
10007c4c:	0719      	lsls	r1, r3, #28
10007c4e:	f140 84fe 	bpl.w	1000864e <__svfscanf_r+0x1556>
10007c52:	4633      	mov	r3, r6
10007c54:	4656      	mov	r6, sl
10007c56:	469a      	mov	sl, r3
10007c58:	e005      	b.n	10007c66 <__svfscanf_r+0xb6e>
10007c5a:	6032      	str	r2, [r6, #0]
10007c5c:	7813      	ldrb	r3, [r2, #0]
10007c5e:	f81a 3003 	ldrb.w	r3, [sl, r3]
10007c62:	071b      	lsls	r3, r3, #28
10007c64:	d514      	bpl.n	10007c90 <__svfscanf_r+0xb98>
10007c66:	6873      	ldr	r3, [r6, #4]
10007c68:	f109 0901 	add.w	r9, r9, #1
10007c6c:	3201      	adds	r2, #1
10007c6e:	3b01      	subs	r3, #1
10007c70:	2b00      	cmp	r3, #0
10007c72:	6073      	str	r3, [r6, #4]
10007c74:	dcf1      	bgt.n	10007c5a <__svfscanf_r+0xb62>
10007c76:	4631      	mov	r1, r6
10007c78:	6cb8      	ldr	r0, [r7, #72]	@ 0x48
10007c7a:	f001 f8e9 	bl	10008e50 <__srefill_r>
10007c7e:	2800      	cmp	r0, #0
10007c80:	f040 8351 	bne.w	10008326 <__svfscanf_r+0x122e>
10007c84:	6832      	ldr	r2, [r6, #0]
10007c86:	7813      	ldrb	r3, [r2, #0]
10007c88:	f81a 3003 	ldrb.w	r3, [sl, r3]
10007c8c:	071b      	lsls	r3, r3, #28
10007c8e:	d4ea      	bmi.n	10007c66 <__svfscanf_r+0xb6e>
10007c90:	46b2      	mov	sl, r6
10007c92:	f8c7 804c 	str.w	r8, [r7, #76]	@ 0x4c
10007c96:	f7ff bbea 	b.w	1000746e <__svfscanf_r+0x376>
10007c9a:	f044 0401 	orr.w	r4, r4, #1
10007c9e:	f04f 0b02 	mov.w	fp, #2
10007ca2:	f7ff bbd3 	b.w	1000744c <__svfscanf_r+0x354>
10007ca6:	0523      	lsls	r3, r4, #20
10007ca8:	f57f ad8b 	bpl.w	100077c2 <__svfscanf_r+0x6ca>
10007cac:	b912      	cbnz	r2, 10007cb4 <__svfscanf_r+0xbbc>
10007cae:	f444 7400 	orr.w	r4, r4, #512	@ 0x200
10007cb2:	2208      	movs	r2, #8
10007cb4:	0561      	lsls	r1, r4, #21
10007cb6:	f100 8198 	bmi.w	10007fea <__svfscanf_r+0xef2>
10007cba:	6bfb      	ldr	r3, [r7, #60]	@ 0x3c
10007cbc:	f424 7460 	bic.w	r4, r4, #896	@ 0x380
10007cc0:	b113      	cbz	r3, 10007cc8 <__svfscanf_r+0xbd0>
10007cc2:	3b01      	subs	r3, #1
10007cc4:	3501      	adds	r5, #1
10007cc6:	63fb      	str	r3, [r7, #60]	@ 0x3c
10007cc8:	f8d9 3004 	ldr.w	r3, [r9, #4]
10007ccc:	f10a 0a01 	add.w	sl, sl, #1
10007cd0:	3b01      	subs	r3, #1
10007cd2:	2b00      	cmp	r3, #0
10007cd4:	f8c9 3004 	str.w	r3, [r9, #4]
10007cd8:	f73f ad7d 	bgt.w	100077d6 <__svfscanf_r+0x6de>
10007cdc:	4649      	mov	r1, r9
10007cde:	6cb8      	ldr	r0, [r7, #72]	@ 0x48
10007ce0:	647a      	str	r2, [r7, #68]	@ 0x44
10007ce2:	f001 f8b5 	bl	10008e50 <__srefill_r>
10007ce6:	6c7a      	ldr	r2, [r7, #68]	@ 0x44
10007ce8:	2800      	cmp	r0, #0
10007cea:	f43f ad77 	beq.w	100077dc <__svfscanf_r+0x6e4>
10007cee:	e577      	b.n	100077e0 <__svfscanf_r+0x6e8>
10007cf0:	4651      	mov	r1, sl
10007cf2:	6cb8      	ldr	r0, [r7, #72]	@ 0x48
10007cf4:	f001 f8ac 	bl	10008e50 <__srefill_r>
10007cf8:	2800      	cmp	r0, #0
10007cfa:	f47f aca6 	bne.w	1000764a <__svfscanf_r+0x552>
10007cfe:	2d00      	cmp	r5, #0
10007d00:	f47f abe0 	bne.w	100074c4 <__svfscanf_r+0x3cc>
10007d04:	e4a1      	b.n	1000764a <__svfscanf_r+0x552>
10007d06:	f8da 2004 	ldr.w	r2, [sl, #4]
10007d0a:	6cbc      	ldr	r4, [r7, #72]	@ 0x48
10007d0c:	e011      	b.n	10007d32 <__svfscanf_r+0xc3a>
10007d0e:	f8da 3000 	ldr.w	r3, [sl]
10007d12:	494c      	ldr	r1, [pc, #304]	@ (10007e44 <__svfscanf_r+0xd4c>)
10007d14:	781a      	ldrb	r2, [r3, #0]
10007d16:	3301      	adds	r3, #1
10007d18:	5c8a      	ldrb	r2, [r1, r2]
10007d1a:	0710      	lsls	r0, r2, #28
10007d1c:	f57f aa18 	bpl.w	10007150 <__svfscanf_r+0x58>
10007d20:	f8da 2004 	ldr.w	r2, [sl, #4]
10007d24:	f109 0901 	add.w	r9, r9, #1
10007d28:	f8ca 3000 	str.w	r3, [sl]
10007d2c:	3a01      	subs	r2, #1
10007d2e:	f8ca 2004 	str.w	r2, [sl, #4]
10007d32:	2a00      	cmp	r2, #0
10007d34:	dceb      	bgt.n	10007d0e <__svfscanf_r+0xc16>
10007d36:	4651      	mov	r1, sl
10007d38:	4620      	mov	r0, r4
10007d3a:	f001 f889 	bl	10008e50 <__srefill_r>
10007d3e:	2800      	cmp	r0, #0
10007d40:	d0e5      	beq.n	10007d0e <__svfscanf_r+0xc16>
10007d42:	f7ff ba05 	b.w	10007150 <__svfscanf_r+0x58>
10007d46:	2100      	movs	r1, #0
10007d48:	e4d4      	b.n	100076f4 <__svfscanf_r+0x5fc>
10007d4a:	6b3b      	ldr	r3, [r7, #48]	@ 0x30
10007d4c:	2b00      	cmp	r3, #0
10007d4e:	f040 8261 	bne.w	10008214 <__svfscanf_r+0x111c>
10007d52:	6afb      	ldr	r3, [r7, #44]	@ 0x2c
10007d54:	f853 2b04 	ldr.w	r2, [r3], #4
10007d58:	62fb      	str	r3, [r7, #44]	@ 0x2c
10007d5a:	f014 0380 	ands.w	r3, r4, #128	@ 0x80
10007d5e:	4616      	mov	r6, r2
10007d60:	63fa      	str	r2, [r7, #60]	@ 0x3c
10007d62:	f000 843a 	beq.w	100085da <__svfscanf_r+0x14e2>
10007d66:	2a00      	cmp	r2, #0
10007d68:	f43f aa41 	beq.w	100071ee <__svfscanf_r+0xf6>
10007d6c:	2020      	movs	r0, #32
10007d6e:	f7fb ff73 	bl	10003c58 <__wrap_malloc>
10007d72:	4604      	mov	r4, r0
10007d74:	2800      	cmp	r0, #0
10007d76:	f000 84d9 	beq.w	1000872c <__svfscanf_r+0x1634>
10007d7a:	6bbb      	ldr	r3, [r7, #56]	@ 0x38
10007d7c:	6030      	str	r0, [r6, #0]
10007d7e:	f8b3 8004 	ldrh.w	r8, [r3, #4]
10007d82:	88de      	ldrh	r6, [r3, #6]
10007d84:	4546      	cmp	r6, r8
10007d86:	f080 8346 	bcs.w	10008416 <__svfscanf_r+0x131e>
10007d8a:	6818      	ldr	r0, [r3, #0]
10007d8c:	6bfb      	ldr	r3, [r7, #60]	@ 0x3c
10007d8e:	f840 3026 	str.w	r3, [r0, r6, lsl #2]
10007d92:	3601      	adds	r6, #1
10007d94:	6bbb      	ldr	r3, [r7, #56]	@ 0x38
10007d96:	80de      	strh	r6, [r3, #6]
10007d98:	2320      	movs	r3, #32
10007d9a:	f8da 0000 	ldr.w	r0, [sl]
10007d9e:	f107 0270 	add.w	r2, r7, #112	@ 0x70
10007da2:	7801      	ldrb	r1, [r0, #0]
10007da4:	5c51      	ldrb	r1, [r2, r1]
10007da6:	2900      	cmp	r1, #0
10007da8:	f43f aa21 	beq.w	100071ee <__svfscanf_r+0xf6>
10007dac:	6bf9      	ldr	r1, [r7, #60]	@ 0x3c
10007dae:	4626      	mov	r6, r4
10007db0:	f8c7 9030 	str.w	r9, [r7, #48]	@ 0x30
10007db4:	4690      	mov	r8, r2
10007db6:	f1b1 0b00 	subs.w	fp, r1, #0
10007dba:	4699      	mov	r9, r3
10007dbc:	bf18      	it	ne
10007dbe:	f04f 0b01 	movne.w	fp, #1
10007dc2:	e007      	b.n	10007dd4 <__svfscanf_r+0xcdc>
10007dc4:	f8da 0000 	ldr.w	r0, [sl]
10007dc8:	7802      	ldrb	r2, [r0, #0]
10007dca:	f818 2002 	ldrb.w	r2, [r8, r2]
10007dce:	2a00      	cmp	r2, #0
10007dd0:	f000 82cb 	beq.w	1000836a <__svfscanf_r+0x1272>
10007dd4:	f8da 2004 	ldr.w	r2, [sl, #4]
10007dd8:	1c41      	adds	r1, r0, #1
10007dda:	3a01      	subs	r2, #1
10007ddc:	e9ca 1200 	strd	r1, r2, [sl]
10007de0:	7802      	ldrb	r2, [r0, #0]
10007de2:	f804 2b01 	strb.w	r2, [r4], #1
10007de6:	1ba2      	subs	r2, r4, r6
10007de8:	454a      	cmp	r2, r9
10007dea:	647a      	str	r2, [r7, #68]	@ 0x44
10007dec:	d310      	bcc.n	10007e10 <__svfscanf_r+0xd18>
10007dee:	4630      	mov	r0, r6
10007df0:	f1bb 0f00 	cmp.w	fp, #0
10007df4:	d00c      	beq.n	10007e10 <__svfscanf_r+0xd18>
10007df6:	ea4f 0949 	mov.w	r9, r9, lsl #1
10007dfa:	4649      	mov	r1, r9
10007dfc:	f7fb ff3e 	bl	10003c7c <__wrap_realloc>
10007e00:	4606      	mov	r6, r0
10007e02:	2800      	cmp	r0, #0
10007e04:	f000 8492 	beq.w	1000872c <__svfscanf_r+0x1634>
10007e08:	6c7a      	ldr	r2, [r7, #68]	@ 0x44
10007e0a:	6bfb      	ldr	r3, [r7, #60]	@ 0x3c
10007e0c:	1884      	adds	r4, r0, r2
10007e0e:	6018      	str	r0, [r3, #0]
10007e10:	3d01      	subs	r5, #1
10007e12:	f000 82aa 	beq.w	1000836a <__svfscanf_r+0x1272>
10007e16:	f8da 2004 	ldr.w	r2, [sl, #4]
10007e1a:	2a00      	cmp	r2, #0
10007e1c:	dcd2      	bgt.n	10007dc4 <__svfscanf_r+0xccc>
10007e1e:	4651      	mov	r1, sl
10007e20:	6cb8      	ldr	r0, [r7, #72]	@ 0x48
10007e22:	f001 f815 	bl	10008e50 <__srefill_r>
10007e26:	2800      	cmp	r0, #0
10007e28:	d0cc      	beq.n	10007dc4 <__svfscanf_r+0xccc>
10007e2a:	42b4      	cmp	r4, r6
10007e2c:	464b      	mov	r3, r9
10007e2e:	f8d7 9030 	ldr.w	r9, [r7, #48]	@ 0x30
10007e32:	f43f a9d0 	beq.w	100071d6 <__svfscanf_r+0xde>
10007e36:	1ba6      	subs	r6, r4, r6
10007e38:	e29d      	b.n	10008376 <__svfscanf_r+0x127e>
10007e3a:	bf00      	nop
10007e3c:	1000c980 	.word	0x1000c980
10007e40:	100070f5 	.word	0x100070f5
10007e44:	1000c87d 	.word	0x1000c87d
10007e48:	f1b8 0f00 	cmp.w	r8, #0
10007e4c:	f040 8354 	bne.w	100084f8 <__svfscanf_r+0x1400>
10007e50:	6afa      	ldr	r2, [r7, #44]	@ 0x2c
10007e52:	f014 0480 	ands.w	r4, r4, #128	@ 0x80
10007e56:	f852 3b04 	ldr.w	r3, [r2], #4
10007e5a:	647b      	str	r3, [r7, #68]	@ 0x44
10007e5c:	62fa      	str	r2, [r7, #44]	@ 0x2c
10007e5e:	f000 839e 	beq.w	1000859e <__svfscanf_r+0x14a6>
10007e62:	461c      	mov	r4, r3
10007e64:	2b00      	cmp	r3, #0
10007e66:	f43f a9c2 	beq.w	100071ee <__svfscanf_r+0xf6>
10007e6a:	2020      	movs	r0, #32
10007e6c:	f7fb fef4 	bl	10003c58 <__wrap_malloc>
10007e70:	4680      	mov	r8, r0
10007e72:	2800      	cmp	r0, #0
10007e74:	f000 845a 	beq.w	1000872c <__svfscanf_r+0x1634>
10007e78:	6bbb      	ldr	r3, [r7, #56]	@ 0x38
10007e7a:	6020      	str	r0, [r4, #0]
10007e7c:	889e      	ldrh	r6, [r3, #4]
10007e7e:	88dc      	ldrh	r4, [r3, #6]
10007e80:	42b4      	cmp	r4, r6
10007e82:	f080 829d 	bcs.w	100083c0 <__svfscanf_r+0x12c8>
10007e86:	6818      	ldr	r0, [r3, #0]
10007e88:	6c7b      	ldr	r3, [r7, #68]	@ 0x44
10007e8a:	f04f 0b01 	mov.w	fp, #1
10007e8e:	f840 3024 	str.w	r3, [r0, r4, lsl #2]
10007e92:	3401      	adds	r4, #1
10007e94:	6bbb      	ldr	r3, [r7, #56]	@ 0x38
10007e96:	80dc      	strh	r4, [r3, #6]
10007e98:	2320      	movs	r3, #32
10007e9a:	f8da 0000 	ldr.w	r0, [sl]
10007e9e:	4ec2      	ldr	r6, [pc, #776]	@ (100081a8 <__svfscanf_r+0x10b0>)
10007ea0:	7801      	ldrb	r1, [r0, #0]
10007ea2:	5c71      	ldrb	r1, [r6, r1]
10007ea4:	0709      	lsls	r1, r1, #28
10007ea6:	f100 829d 	bmi.w	100083e4 <__svfscanf_r+0x12ec>
10007eaa:	4644      	mov	r4, r8
10007eac:	4641      	mov	r1, r8
10007eae:	4698      	mov	r8, r3
10007eb0:	464b      	mov	r3, r9
10007eb2:	46b1      	mov	r9, r6
10007eb4:	462e      	mov	r6, r5
10007eb6:	f8da 2004 	ldr.w	r2, [sl, #4]
10007eba:	460d      	mov	r5, r1
10007ebc:	3a01      	subs	r2, #1
10007ebe:	f8ca 2004 	str.w	r2, [sl, #4]
10007ec2:	1c42      	adds	r2, r0, #1
10007ec4:	f8ca 2000 	str.w	r2, [sl]
10007ec8:	7802      	ldrb	r2, [r0, #0]
10007eca:	f805 2b01 	strb.w	r2, [r5], #1
10007ece:	1b2a      	subs	r2, r5, r4
10007ed0:	4542      	cmp	r2, r8
10007ed2:	63fa      	str	r2, [r7, #60]	@ 0x3c
10007ed4:	d312      	bcc.n	10007efc <__svfscanf_r+0xe04>
10007ed6:	4620      	mov	r0, r4
10007ed8:	f1bb 0f00 	cmp.w	fp, #0
10007edc:	d00e      	beq.n	10007efc <__svfscanf_r+0xe04>
10007ede:	ea4f 0848 	mov.w	r8, r8, lsl #1
10007ee2:	633b      	str	r3, [r7, #48]	@ 0x30
10007ee4:	4641      	mov	r1, r8
10007ee6:	f7fb fec9 	bl	10003c7c <__wrap_realloc>
10007eea:	6b3b      	ldr	r3, [r7, #48]	@ 0x30
10007eec:	4604      	mov	r4, r0
10007eee:	6bfa      	ldr	r2, [r7, #60]	@ 0x3c
10007ef0:	2800      	cmp	r0, #0
10007ef2:	f000 841b 	beq.w	1000872c <__svfscanf_r+0x1634>
10007ef6:	1885      	adds	r5, r0, r2
10007ef8:	6c7a      	ldr	r2, [r7, #68]	@ 0x44
10007efa:	6010      	str	r0, [r2, #0]
10007efc:	3e01      	subs	r6, #1
10007efe:	d00c      	beq.n	10007f1a <__svfscanf_r+0xe22>
10007f00:	f8da 2004 	ldr.w	r2, [sl, #4]
10007f04:	2a00      	cmp	r2, #0
10007f06:	f340 8398 	ble.w	1000863a <__svfscanf_r+0x1542>
10007f0a:	f8da 0000 	ldr.w	r0, [sl]
10007f0e:	4629      	mov	r1, r5
10007f10:	7802      	ldrb	r2, [r0, #0]
10007f12:	f819 2002 	ldrb.w	r2, [r9, r2]
10007f16:	0712      	lsls	r2, r2, #28
10007f18:	d5cd      	bpl.n	10007eb6 <__svfscanf_r+0xdbe>
10007f1a:	4699      	mov	r9, r3
10007f1c:	1b29      	subs	r1, r5, r4
10007f1e:	4643      	mov	r3, r8
10007f20:	46a8      	mov	r8, r5
10007f22:	4489      	add	r9, r1
10007f24:	3101      	adds	r1, #1
10007f26:	2000      	movs	r0, #0
10007f28:	428b      	cmp	r3, r1
10007f2a:	f888 0000 	strb.w	r0, [r8]
10007f2e:	f67f ad9e 	bls.w	10007a6e <__svfscanf_r+0x976>
10007f32:	f1bb 0f00 	cmp.w	fp, #0
10007f36:	f43f ad9a 	beq.w	10007a6e <__svfscanf_r+0x976>
10007f3a:	6c7c      	ldr	r4, [r7, #68]	@ 0x44
10007f3c:	6820      	ldr	r0, [r4, #0]
10007f3e:	f7fb fe9d 	bl	10003c7c <__wrap_realloc>
10007f42:	2800      	cmp	r0, #0
10007f44:	f47f ad92 	bne.w	10007a6c <__svfscanf_r+0x974>
10007f48:	e591      	b.n	10007a6e <__svfscanf_r+0x976>
10007f4a:	f018 0310 	ands.w	r3, r8, #16
10007f4e:	f47f a8ff 	bne.w	10007150 <__svfscanf_r+0x58>
10007f52:	7023      	strb	r3, [r4, #0]
10007f54:	f408 63c0 	and.w	r3, r8, #1536	@ 0x600
10007f58:	f5b3 6f80 	cmp.w	r3, #1024	@ 0x400
10007f5c:	f47f aba0 	bne.w	100076a0 <__svfscanf_r+0x5a8>
10007f60:	69fb      	ldr	r3, [r7, #28]
10007f62:	6b3a      	ldr	r2, [r7, #48]	@ 0x30
10007f64:	4293      	cmp	r3, r2
10007f66:	f43f ab9f 	beq.w	100076a8 <__svfscanf_r+0x5b0>
10007f6a:	1a9a      	subs	r2, r3, r2
10007f6c:	f207 23c3 	addw	r3, r7, #707	@ 0x2c3
10007f70:	498e      	ldr	r1, [pc, #568]	@ (100081ac <__svfscanf_r+0x10b4>)
10007f72:	429c      	cmp	r4, r3
10007f74:	bf28      	it	cs
10007f76:	f207 24c2 	addwcs	r4, r7, #706	@ 0x2c2
10007f7a:	4620      	mov	r0, r4
10007f7c:	f7fd f962 	bl	10005244 <__wrap_sprintf>
10007f80:	f7ff bb92 	b.w	100076a8 <__svfscanf_r+0x5b0>
10007f84:	f014 0f8f 	tst.w	r4, #143	@ 0x8f
10007f88:	f47f a931 	bne.w	100071ee <__svfscanf_r+0xf6>
10007f8c:	eb05 0585 	add.w	r5, r5, r5, lsl #2
10007f90:	eb01 0545 	add.w	r5, r1, r5, lsl #1
10007f94:	7871      	ldrb	r1, [r6, #1]
10007f96:	4646      	mov	r6, r8
10007f98:	3d30      	subs	r5, #48	@ 0x30
10007f9a:	f7ff b95a 	b.w	10007252 <__svfscanf_r+0x15a>
10007f9e:	f04f 0b04 	mov.w	fp, #4
10007fa2:	f7ff ba53 	b.w	1000744c <__svfscanf_r+0x354>
10007fa6:	6bfb      	ldr	r3, [r7, #60]	@ 0x3c
10007fa8:	6c79      	ldr	r1, [r7, #68]	@ 0x44
10007faa:	185b      	adds	r3, r3, r1
10007fac:	f47f adf7 	bne.w	10007b9e <__svfscanf_r+0xaa6>
10007fb0:	f7ff bb32 	b.w	10007618 <__svfscanf_r+0x520>
10007fb4:	6bfb      	ldr	r3, [r7, #60]	@ 0x3c
10007fb6:	6c79      	ldr	r1, [r7, #68]	@ 0x44
10007fb8:	185b      	adds	r3, r3, r1
10007fba:	f47f adbc 	bne.w	10007b36 <__svfscanf_r+0xa3e>
10007fbe:	f7ff bb2b 	b.w	10007618 <__svfscanf_r+0x520>
10007fc2:	f8da 0058 	ldr.w	r0, [sl, #88]	@ 0x58
10007fc6:	f7fe fd15 	bl	100069f4 <__retarget_lock_acquire_recursive>
10007fca:	f9ba 200c 	ldrsh.w	r2, [sl, #12]
10007fce:	f8da 3064 	ldr.w	r3, [sl, #100]	@ 0x64
10007fd2:	f7ff b8a2 	b.w	1000711a <__svfscanf_r+0x22>
10007fd6:	f444 7400 	orr.w	r4, r4, #512	@ 0x200
10007fda:	4b75      	ldr	r3, [pc, #468]	@ (100081b0 <__svfscanf_r+0x10b8>)
10007fdc:	f04f 0b03 	mov.w	fp, #3
10007fe0:	62bb      	str	r3, [r7, #40]	@ 0x28
10007fe2:	2310      	movs	r3, #16
10007fe4:	637b      	str	r3, [r7, #52]	@ 0x34
10007fe6:	f7ff ba31 	b.w	1000744c <__svfscanf_r+0x354>
10007fea:	f424 64b0 	bic.w	r4, r4, #1408	@ 0x580
10007fee:	f7ff bbe8 	b.w	100077c2 <__svfscanf_r+0x6ca>
10007ff2:	0721      	lsls	r1, r4, #28
10007ff4:	f140 8243 	bpl.w	1000847e <__svfscanf_r+0x1386>
10007ff8:	6afb      	ldr	r3, [r7, #44]	@ 0x2c
10007ffa:	681b      	ldr	r3, [r3, #0]
10007ffc:	7018      	strb	r0, [r3, #0]
10007ffe:	e40e      	b.n	1000781e <__svfscanf_r+0x726>
10008000:	6bfb      	ldr	r3, [r7, #60]	@ 0x3c
10008002:	2b02      	cmp	r3, #2
10008004:	f47f ad88 	bne.w	10007b18 <__svfscanf_r+0xa20>
10008008:	2303      	movs	r3, #3
1000800a:	63fb      	str	r3, [r7, #60]	@ 0x3c
1000800c:	f7ff bb08 	b.w	10007620 <__svfscanf_r+0x528>
10008010:	6c7b      	ldr	r3, [r7, #68]	@ 0x44
10008012:	2b03      	cmp	r3, #3
10008014:	f43f ad86 	beq.w	10007b24 <__svfscanf_r+0xa2c>
10008018:	2b05      	cmp	r3, #5
1000801a:	f43f ad83 	beq.w	10007b24 <__svfscanf_r+0xa2c>
1000801e:	f7ff bb14 	b.w	1000764a <__svfscanf_r+0x552>
10008022:	f816 1c01 	ldrb.w	r1, [r6, #-1]
10008026:	4652      	mov	r2, sl
10008028:	6cb8      	ldr	r0, [r7, #72]	@ 0x48
1000802a:	3e01      	subs	r6, #1
1000802c:	f001 f860 	bl	100090f0 <_ungetc_r>
10008030:	f7ff bbe1 	b.w	100077f6 <__svfscanf_r+0x6fe>
10008034:	f8c7 803c 	str.w	r8, [r7, #60]	@ 0x3c
10008038:	46a8      	mov	r8, r5
1000803a:	623e      	str	r6, [r7, #32]
1000803c:	461e      	mov	r6, r3
1000803e:	f8d7 b018 	ldr.w	fp, [r7, #24]
10008042:	627a      	str	r2, [r7, #36]	@ 0x24
10008044:	f8c7 c030 	str.w	ip, [r7, #48]	@ 0x30
10008048:	f001 f964 	bl	10009314 <__locale_mb_cur_max>
1000804c:	42a0      	cmp	r0, r4
1000804e:	f43f a8c2 	beq.w	100071d6 <__svfscanf_r+0xde>
10008052:	f1bb 0f03 	cmp.w	fp, #3
10008056:	f107 0568 	add.w	r5, r7, #104	@ 0x68
1000805a:	e9da 3200 	ldrd	r3, r2, [sl]
1000805e:	f102 32ff 	add.w	r2, r2, #4294967295
10008062:	f813 1b01 	ldrb.w	r1, [r3], #1
10008066:	f8ca 2004 	str.w	r2, [sl, #4]
1000806a:	f507 72b8 	add.w	r2, r7, #368	@ 0x170
1000806e:	f8ca 3000 	str.w	r3, [sl]
10008072:	5511      	strb	r1, [r2, r4]
10008074:	f104 0401 	add.w	r4, r4, #1
10008078:	d102      	bne.n	10008080 <__svfscanf_r+0xf88>
1000807a:	682b      	ldr	r3, [r5, #0]
1000807c:	2b04      	cmp	r3, #4
1000807e:	d004      	beq.n	1000808a <__svfscanf_r+0xf92>
10008080:	2208      	movs	r2, #8
10008082:	2100      	movs	r1, #0
10008084:	4628      	mov	r0, r5
10008086:	f7fe fc23 	bl	100068d0 <memset>
1000808a:	9500      	str	r5, [sp, #0]
1000808c:	4623      	mov	r3, r4
1000808e:	f507 72b8 	add.w	r2, r7, #368	@ 0x170
10008092:	4631      	mov	r1, r6
10008094:	6cb8      	ldr	r0, [r7, #72]	@ 0x48
10008096:	f002 fba9 	bl	1000a7ec <_mbrtowc_r>
1000809a:	f1b0 3fff 	cmp.w	r0, #4294967295
1000809e:	4683      	mov	fp, r0
100080a0:	f43f a899 	beq.w	100071d6 <__svfscanf_r+0xde>
100080a4:	2800      	cmp	r0, #0
100080a6:	f000 8211 	beq.w	100084cc <__svfscanf_r+0x13d4>
100080aa:	f110 0f02 	cmn.w	r0, #2
100080ae:	d02d      	beq.n	1000810c <__svfscanf_r+0x1014>
100080b0:	6830      	ldr	r0, [r6, #0]
100080b2:	f002 fbc5 	bl	1000a840 <iswspace>
100080b6:	2800      	cmp	r0, #0
100080b8:	f040 8370 	bne.w	1000879c <__svfscanf_r+0x16a4>
100080bc:	f1bb 0f03 	cmp.w	fp, #3
100080c0:	44a1      	add	r9, r4
100080c2:	d102      	bne.n	100080ca <__svfscanf_r+0xfd2>
100080c4:	682b      	ldr	r3, [r5, #0]
100080c6:	2b04      	cmp	r3, #4
100080c8:	d001      	beq.n	100080ce <__svfscanf_r+0xfd6>
100080ca:	f108 38ff 	add.w	r8, r8, #4294967295
100080ce:	6bfd      	ldr	r5, [r7, #60]	@ 0x3c
100080d0:	2d00      	cmp	r5, #0
100080d2:	f040 8262 	bne.w	1000859a <__svfscanf_r+0x14a2>
100080d6:	3604      	adds	r6, #4
100080d8:	6c78      	ldr	r0, [r7, #68]	@ 0x44
100080da:	6b3b      	ldr	r3, [r7, #48]	@ 0x30
100080dc:	1a34      	subs	r4, r6, r0
100080de:	ebb3 0fa4 	cmp.w	r3, r4, asr #2
100080e2:	f200 825a 	bhi.w	1000859a <__svfscanf_r+0x14a2>
100080e6:	6a7a      	ldr	r2, [r7, #36]	@ 0x24
100080e8:	2a00      	cmp	r2, #0
100080ea:	f000 8256 	beq.w	1000859a <__svfscanf_r+0x14a2>
100080ee:	00d9      	lsls	r1, r3, #3
100080f0:	f7fb fdc4 	bl	10003c7c <__wrap_realloc>
100080f4:	4601      	mov	r1, r0
100080f6:	6478      	str	r0, [r7, #68]	@ 0x44
100080f8:	2800      	cmp	r0, #0
100080fa:	f000 8317 	beq.w	1000872c <__svfscanf_r+0x1634>
100080fe:	6b3b      	ldr	r3, [r7, #48]	@ 0x30
10008100:	1906      	adds	r6, r0, r4
10008102:	462c      	mov	r4, r5
10008104:	0058      	lsls	r0, r3, #1
10008106:	6a7b      	ldr	r3, [r7, #36]	@ 0x24
10008108:	6338      	str	r0, [r7, #48]	@ 0x30
1000810a:	6019      	str	r1, [r3, #0]
1000810c:	f8da 3004 	ldr.w	r3, [sl, #4]
10008110:	2b00      	cmp	r3, #0
10008112:	f340 831c 	ble.w	1000874e <__svfscanf_r+0x1656>
10008116:	f8da 3000 	ldr.w	r3, [sl]
1000811a:	6a3a      	ldr	r2, [r7, #32]
1000811c:	781b      	ldrb	r3, [r3, #0]
1000811e:	5cd3      	ldrb	r3, [r2, r3]
10008120:	071d      	lsls	r5, r3, #28
10008122:	d402      	bmi.n	1000812a <__svfscanf_r+0x1032>
10008124:	f1b8 0f00 	cmp.w	r8, #0
10008128:	d18e      	bne.n	10008048 <__svfscanf_r+0xf50>
1000812a:	4633      	mov	r3, r6
1000812c:	6a7a      	ldr	r2, [r7, #36]	@ 0x24
1000812e:	f8d7 c030 	ldr.w	ip, [r7, #48]	@ 0x30
10008132:	f8d7 803c 	ldr.w	r8, [r7, #60]	@ 0x3c
10008136:	f8c7 b018 	str.w	fp, [r7, #24]
1000813a:	f7ff bbb2 	b.w	100078a2 <__svfscanf_r+0x7aa>
1000813e:	f444 7408 	orr.w	r4, r4, #544	@ 0x220
10008142:	e74a      	b.n	10007fda <__svfscanf_r+0xee2>
10008144:	4325      	orrs	r5, r4
10008146:	f47f a852 	bne.w	100071ee <__svfscanf_r+0xf6>
1000814a:	7871      	ldrb	r1, [r6, #1]
1000814c:	2410      	movs	r4, #16
1000814e:	4646      	mov	r6, r8
10008150:	f7ff b87f 	b.w	10007252 <__svfscanf_r+0x15a>
10008154:	4b16      	ldr	r3, [pc, #88]	@ (100081b0 <__svfscanf_r+0x10b8>)
10008156:	f04f 0b03 	mov.w	fp, #3
1000815a:	62bb      	str	r3, [r7, #40]	@ 0x28
1000815c:	230a      	movs	r3, #10
1000815e:	637b      	str	r3, [r7, #52]	@ 0x34
10008160:	f7ff b974 	b.w	1000744c <__svfscanf_r+0x354>
10008164:	f014 038f 	ands.w	r3, r4, #143	@ 0x8f
10008168:	f47f a841 	bne.w	100071ee <__svfscanf_r+0xf6>
1000816c:	6bb9      	ldr	r1, [r7, #56]	@ 0x38
1000816e:	2900      	cmp	r1, #0
10008170:	f000 821b 	beq.w	100085aa <__svfscanf_r+0x14b2>
10008174:	7871      	ldrb	r1, [r6, #1]
10008176:	f044 0480 	orr.w	r4, r4, #128	@ 0x80
1000817a:	4646      	mov	r6, r8
1000817c:	f7ff b869 	b.w	10007252 <__svfscanf_r+0x15a>
10008180:	06e1      	lsls	r1, r4, #27
10008182:	f100 80cc 	bmi.w	1000831e <__svfscanf_r+0x1226>
10008186:	6afa      	ldr	r2, [r7, #44]	@ 0x2c
10008188:	f852 3b04 	ldr.w	r3, [r2], #4
1000818c:	62fa      	str	r2, [r7, #44]	@ 0x2c
1000818e:	0722      	lsls	r2, r4, #28
10008190:	f100 80c3 	bmi.w	1000831a <__svfscanf_r+0x1222>
10008194:	0766      	lsls	r6, r4, #29
10008196:	f140 82ee 	bpl.w	10008776 <__svfscanf_r+0x167e>
1000819a:	f8a3 9000 	strh.w	r9, [r3]
1000819e:	f8c7 804c 	str.w	r8, [r7, #76]	@ 0x4c
100081a2:	f7fe bfd5 	b.w	10007150 <__svfscanf_r+0x58>
100081a6:	bf00      	nop
100081a8:	1000c87d 	.word	0x1000c87d
100081ac:	1000c628 	.word	0x1000c628
100081b0:	100070f5 	.word	0x100070f5
100081b4:	0721      	lsls	r1, r4, #28
100081b6:	f47f a81a 	bne.w	100071ee <__svfscanf_r+0xf6>
100081ba:	7871      	ldrb	r1, [r6, #1]
100081bc:	296c      	cmp	r1, #108	@ 0x6c
100081be:	f000 8152 	beq.w	10008466 <__svfscanf_r+0x136e>
100081c2:	f044 0401 	orr.w	r4, r4, #1
100081c6:	4646      	mov	r6, r8
100081c8:	f7ff b843 	b.w	10007252 <__svfscanf_r+0x15a>
100081cc:	4641      	mov	r1, r8
100081ce:	f107 0070 	add.w	r0, r7, #112	@ 0x70
100081d2:	f000 feb9 	bl	10008f48 <__sccl>
100081d6:	f044 0440 	orr.w	r4, r4, #64	@ 0x40
100081da:	f04f 0b01 	mov.w	fp, #1
100081de:	64f8      	str	r0, [r7, #76]	@ 0x4c
100081e0:	e51a      	b.n	10007c18 <__svfscanf_r+0xb20>
100081e2:	0723      	lsls	r3, r4, #28
100081e4:	f47f a803 	bne.w	100071ee <__svfscanf_r+0xf6>
100081e8:	7871      	ldrb	r1, [r6, #1]
100081ea:	2968      	cmp	r1, #104	@ 0x68
100081ec:	f000 8141 	beq.w	10008472 <__svfscanf_r+0x137a>
100081f0:	f044 0404 	orr.w	r4, r4, #4
100081f4:	4646      	mov	r6, r8
100081f6:	f7ff b82c 	b.w	10007252 <__svfscanf_r+0x15a>
100081fa:	4bbd      	ldr	r3, [pc, #756]	@ (100084f0 <__svfscanf_r+0x13f8>)
100081fc:	f04f 0b03 	mov.w	fp, #3
10008200:	f8c7 804c 	str.w	r8, [r7, #76]	@ 0x4c
10008204:	62bb      	str	r3, [r7, #40]	@ 0x28
10008206:	2300      	movs	r3, #0
10008208:	637b      	str	r3, [r7, #52]	@ 0x34
1000820a:	e505      	b.n	10007c18 <__svfscanf_r+0xb20>
1000820c:	f8c7 804c 	str.w	r8, [r7, #76]	@ 0x4c
10008210:	f7fe bfb9 	b.w	10007186 <__svfscanf_r+0x8e>
10008214:	f8da 3000 	ldr.w	r3, [sl]
10008218:	f107 0270 	add.w	r2, r7, #112	@ 0x70
1000821c:	7819      	ldrb	r1, [r3, #0]
1000821e:	5c51      	ldrb	r1, [r2, r1]
10008220:	2900      	cmp	r1, #0
10008222:	f43e afe4 	beq.w	100071ee <__svfscanf_r+0xf6>
10008226:	3301      	adds	r3, #1
10008228:	2d01      	cmp	r5, #1
1000822a:	f8ca 3000 	str.w	r3, [sl]
1000822e:	f8da 3004 	ldr.w	r3, [sl, #4]
10008232:	f103 33ff 	add.w	r3, r3, #4294967295
10008236:	f8ca 3004 	str.w	r3, [sl, #4]
1000823a:	d01c      	beq.n	10008276 <__svfscanf_r+0x117e>
1000823c:	6cbc      	ldr	r4, [r7, #72]	@ 0x48
1000823e:	4616      	mov	r6, r2
10008240:	e011      	b.n	10008266 <__svfscanf_r+0x116e>
10008242:	f8da 3000 	ldr.w	r3, [sl]
10008246:	781a      	ldrb	r2, [r3, #0]
10008248:	3301      	adds	r3, #1
1000824a:	5cb2      	ldrb	r2, [r6, r2]
1000824c:	b19a      	cbz	r2, 10008276 <__svfscanf_r+0x117e>
1000824e:	f10b 0b01 	add.w	fp, fp, #1
10008252:	f8ca 3000 	str.w	r3, [sl]
10008256:	f8da 3004 	ldr.w	r3, [sl, #4]
1000825a:	455d      	cmp	r5, fp
1000825c:	f103 33ff 	add.w	r3, r3, #4294967295
10008260:	f8ca 3004 	str.w	r3, [sl, #4]
10008264:	d007      	beq.n	10008276 <__svfscanf_r+0x117e>
10008266:	2b00      	cmp	r3, #0
10008268:	dceb      	bgt.n	10008242 <__svfscanf_r+0x114a>
1000826a:	4651      	mov	r1, sl
1000826c:	4620      	mov	r0, r4
1000826e:	f000 fdef 	bl	10008e50 <__srefill_r>
10008272:	2800      	cmp	r0, #0
10008274:	d0e5      	beq.n	10008242 <__svfscanf_r+0x114a>
10008276:	44d9      	add	r9, fp
10008278:	f7fe bf6a 	b.w	10007150 <__svfscanf_r+0x58>
1000827c:	2300      	movs	r3, #0
1000827e:	f107 0254 	add.w	r2, r7, #84	@ 0x54
10008282:	623b      	str	r3, [r7, #32]
10008284:	4690      	mov	r8, r2
10008286:	627b      	str	r3, [r7, #36]	@ 0x24
10008288:	61fb      	str	r3, [r7, #28]
1000828a:	f7ff bb57 	b.w	1000793c <__svfscanf_r+0x844>
1000828e:	f04f 0c00 	mov.w	ip, #0
10008292:	f107 0354 	add.w	r3, r7, #84	@ 0x54
10008296:	4662      	mov	r2, ip
10008298:	f8c7 c044 	str.w	ip, [r7, #68]	@ 0x44
1000829c:	f7ff baf8 	b.w	10007890 <__svfscanf_r+0x798>
100082a0:	1ca9      	adds	r1, r5, #2
100082a2:	d00d      	beq.n	100082c0 <__svfscanf_r+0x11c8>
100082a4:	f8d8 6000 	ldr.w	r6, [r8]
100082a8:	1c72      	adds	r2, r6, #1
100082aa:	f47f ab80 	bne.w	100079ae <__svfscanf_r+0x8b6>
100082ae:	f7ff bb93 	b.w	100079d8 <__svfscanf_r+0x8e0>
100082b2:	f8d9 3000 	ldr.w	r3, [r9]
100082b6:	2b04      	cmp	r3, #4
100082b8:	f47f ab9a 	bne.w	100079f0 <__svfscanf_r+0x8f8>
100082bc:	f7ff bb9b 	b.w	100079f6 <__svfscanf_r+0x8fe>
100082c0:	f8da 3004 	ldr.w	r3, [sl, #4]
100082c4:	2b00      	cmp	r3, #0
100082c6:	f73f ab40 	bgt.w	1000794a <__svfscanf_r+0x852>
100082ca:	4651      	mov	r1, sl
100082cc:	6cb8      	ldr	r0, [r7, #72]	@ 0x48
100082ce:	f000 fdbf 	bl	10008e50 <__srefill_r>
100082d2:	2800      	cmp	r0, #0
100082d4:	f43f abaf 	beq.w	10007a36 <__svfscanf_r+0x93e>
100082d8:	f8d7 903c 	ldr.w	r9, [r7, #60]	@ 0x3c
100082dc:	61bd      	str	r5, [r7, #24]
100082de:	2c00      	cmp	r4, #0
100082e0:	f43f abaf 	beq.w	10007a42 <__svfscanf_r+0x94a>
100082e4:	f7fe bf77 	b.w	100071d6 <__svfscanf_r+0xde>
100082e8:	68bc      	ldr	r4, [r7, #8]
100082ea:	4632      	mov	r2, r6
100082ec:	6a39      	ldr	r1, [r7, #32]
100082ee:	4620      	mov	r0, r4
100082f0:	f8c7 801c 	str.w	r8, [r7, #28]
100082f4:	46d0      	mov	r8, sl
100082f6:	46aa      	mov	sl, r5
100082f8:	687d      	ldr	r5, [r7, #4]
100082fa:	f000 ffcb 	bl	10009294 <stpncpy>
100082fe:	69fb      	ldr	r3, [r7, #28]
10008300:	f428 7820 	bic.w	r8, r8, #640	@ 0x280
10008304:	3d01      	subs	r5, #1
10008306:	4604      	mov	r4, r0
10008308:	4699      	mov	r9, r3
1000830a:	6b3b      	ldr	r3, [r7, #48]	@ 0x30
1000830c:	61fb      	str	r3, [r7, #28]
1000830e:	f7ff b98a 	b.w	10007626 <__svfscanf_r+0x52e>
10008312:	f04f 0c00 	mov.w	ip, #0
10008316:	f7ff b8c7 	b.w	100074a8 <__svfscanf_r+0x3b0>
1000831a:	f883 9000 	strb.w	r9, [r3]
1000831e:	f8c7 804c 	str.w	r8, [r7, #76]	@ 0x4c
10008322:	f7fe bf15 	b.w	10007150 <__svfscanf_r+0x58>
10008326:	46b2      	mov	sl, r6
10008328:	f7fe bf55 	b.w	100071d6 <__svfscanf_r+0xde>
1000832c:	6c7b      	ldr	r3, [r7, #68]	@ 0x44
1000832e:	2b02      	cmp	r3, #2
10008330:	f240 82ab 	bls.w	1000888a <__svfscanf_r+0x1792>
10008334:	2b03      	cmp	r3, #3
10008336:	f43f a998 	beq.w	1000766a <__svfscanf_r+0x572>
1000833a:	6c7b      	ldr	r3, [r7, #68]	@ 0x44
1000833c:	1f1e      	subs	r6, r3, #4
1000833e:	b2f6      	uxtb	r6, r6
10008340:	43f5      	mvns	r5, r6
10008342:	647e      	str	r6, [r7, #68]	@ 0x44
10008344:	4626      	mov	r6, r4
10008346:	4425      	add	r5, r4
10008348:	6cbc      	ldr	r4, [r7, #72]	@ 0x48
1000834a:	f816 1d01 	ldrb.w	r1, [r6, #-1]!
1000834e:	4652      	mov	r2, sl
10008350:	4620      	mov	r0, r4
10008352:	f000 fecd 	bl	100090f0 <_ungetc_r>
10008356:	42ae      	cmp	r6, r5
10008358:	d1f7      	bne.n	1000834a <__svfscanf_r+0x1252>
1000835a:	4634      	mov	r4, r6
1000835c:	f109 39ff 	add.w	r9, r9, #4294967295
10008360:	6c7e      	ldr	r6, [r7, #68]	@ 0x44
10008362:	eba9 0906 	sub.w	r9, r9, r6
10008366:	f7ff b980 	b.w	1000766a <__svfscanf_r+0x572>
1000836a:	1ba6      	subs	r6, r4, r6
1000836c:	464b      	mov	r3, r9
1000836e:	f8d7 9030 	ldr.w	r9, [r7, #48]	@ 0x30
10008372:	f43e af3c 	beq.w	100071ee <__svfscanf_r+0xf6>
10008376:	1c71      	adds	r1, r6, #1
10008378:	2200      	movs	r2, #0
1000837a:	428b      	cmp	r3, r1
1000837c:	7022      	strb	r2, [r4, #0]
1000837e:	d903      	bls.n	10008388 <__svfscanf_r+0x1290>
10008380:	f1bb 0f00 	cmp.w	fp, #0
10008384:	f040 80aa 	bne.w	100084dc <__svfscanf_r+0x13e4>
10008388:	6c3b      	ldr	r3, [r7, #64]	@ 0x40
1000838a:	44b1      	add	r9, r6
1000838c:	3301      	adds	r3, #1
1000838e:	643b      	str	r3, [r7, #64]	@ 0x40
10008390:	f7fe bede 	b.w	10007150 <__svfscanf_r+0x58>
10008394:	6afb      	ldr	r3, [r7, #44]	@ 0x2c
10008396:	f018 0f02 	tst.w	r8, #2
1000839a:	f8d3 b000 	ldr.w	fp, [r3]
1000839e:	f000 8088 	beq.w	100084b2 <__svfscanf_r+0x13ba>
100083a2:	e9cb 5600 	strd	r5, r6, [fp]
100083a6:	f7ff b991 	b.w	100076cc <__svfscanf_r+0x5d4>
100083aa:	4652      	mov	r2, sl
100083ac:	6cb8      	ldr	r0, [r7, #72]	@ 0x48
100083ae:	f000 fe9f 	bl	100090f0 <_ungetc_r>
100083b2:	f1a9 0902 	sub.w	r9, r9, #2
100083b6:	1ea5      	subs	r5, r4, #2
100083b8:	f814 1c02 	ldrb.w	r1, [r4, #-2]
100083bc:	f7ff b967 	b.w	1000768e <__svfscanf_r+0x596>
100083c0:	f64f 72f6 	movw	r2, #65526	@ 0xfff6
100083c4:	4296      	cmp	r6, r2
100083c6:	f200 824b 	bhi.w	10008860 <__svfscanf_r+0x1768>
100083ca:	3608      	adds	r6, #8
100083cc:	6bbb      	ldr	r3, [r7, #56]	@ 0x38
100083ce:	00b1      	lsls	r1, r6, #2
100083d0:	6818      	ldr	r0, [r3, #0]
100083d2:	f7fb fc53 	bl	10003c7c <__wrap_realloc>
100083d6:	2800      	cmp	r0, #0
100083d8:	f000 8242 	beq.w	10008860 <__svfscanf_r+0x1768>
100083dc:	6bbb      	ldr	r3, [r7, #56]	@ 0x38
100083de:	809e      	strh	r6, [r3, #4]
100083e0:	6018      	str	r0, [r3, #0]
100083e2:	e551      	b.n	10007e88 <__svfscanf_r+0xd90>
100083e4:	2101      	movs	r1, #1
100083e6:	e59e      	b.n	10007f26 <__svfscanf_r+0xe2e>
100083e8:	f64f 71f6 	movw	r1, #65526	@ 0xfff6
100083ec:	63fa      	str	r2, [r7, #60]	@ 0x3c
100083ee:	6478      	str	r0, [r7, #68]	@ 0x44
100083f0:	428e      	cmp	r6, r1
100083f2:	f200 819b 	bhi.w	1000872c <__svfscanf_r+0x1634>
100083f6:	3608      	adds	r6, #8
100083f8:	6bbb      	ldr	r3, [r7, #56]	@ 0x38
100083fa:	00b1      	lsls	r1, r6, #2
100083fc:	6818      	ldr	r0, [r3, #0]
100083fe:	f7fb fc3d 	bl	10003c7c <__wrap_realloc>
10008402:	2800      	cmp	r0, #0
10008404:	f000 8192 	beq.w	1000872c <__svfscanf_r+0x1634>
10008408:	6bbb      	ldr	r3, [r7, #56]	@ 0x38
1000840a:	6bfa      	ldr	r2, [r7, #60]	@ 0x3c
1000840c:	809e      	strh	r6, [r3, #4]
1000840e:	6018      	str	r0, [r3, #0]
10008410:	6c7b      	ldr	r3, [r7, #68]	@ 0x44
10008412:	f7ff ba35 	b.w	10007880 <__svfscanf_r+0x788>
10008416:	f64f 73f6 	movw	r3, #65526	@ 0xfff6
1000841a:	4598      	cmp	r8, r3
1000841c:	f200 8220 	bhi.w	10008860 <__svfscanf_r+0x1768>
10008420:	f108 0808 	add.w	r8, r8, #8
10008424:	6bbb      	ldr	r3, [r7, #56]	@ 0x38
10008426:	ea4f 0188 	mov.w	r1, r8, lsl #2
1000842a:	6818      	ldr	r0, [r3, #0]
1000842c:	f7fb fc26 	bl	10003c7c <__wrap_realloc>
10008430:	2800      	cmp	r0, #0
10008432:	f000 8215 	beq.w	10008860 <__svfscanf_r+0x1768>
10008436:	6bbb      	ldr	r3, [r7, #56]	@ 0x38
10008438:	f8a3 8004 	strh.w	r8, [r3, #4]
1000843c:	6018      	str	r0, [r3, #0]
1000843e:	e4a5      	b.n	10007d8c <__svfscanf_r+0xc94>
10008440:	f64f 73f6 	movw	r3, #65526	@ 0xfff6
10008444:	429e      	cmp	r6, r3
10008446:	f200 8171 	bhi.w	1000872c <__svfscanf_r+0x1634>
1000844a:	3608      	adds	r6, #8
1000844c:	6bbb      	ldr	r3, [r7, #56]	@ 0x38
1000844e:	00b1      	lsls	r1, r6, #2
10008450:	6818      	ldr	r0, [r3, #0]
10008452:	f7fb fc13 	bl	10003c7c <__wrap_realloc>
10008456:	2800      	cmp	r0, #0
10008458:	f000 8168 	beq.w	1000872c <__svfscanf_r+0x1634>
1000845c:	6bbb      	ldr	r3, [r7, #56]	@ 0x38
1000845e:	809e      	strh	r6, [r3, #4]
10008460:	6018      	str	r0, [r3, #0]
10008462:	f7ff ba61 	b.w	10007928 <__svfscanf_r+0x830>
10008466:	78b1      	ldrb	r1, [r6, #2]
10008468:	f044 0402 	orr.w	r4, r4, #2
1000846c:	3602      	adds	r6, #2
1000846e:	f7fe bef0 	b.w	10007252 <__svfscanf_r+0x15a>
10008472:	78b1      	ldrb	r1, [r6, #2]
10008474:	f044 0408 	orr.w	r4, r4, #8
10008478:	3602      	adds	r6, #2
1000847a:	f7fe beea 	b.w	10007252 <__svfscanf_r+0x15a>
1000847e:	0762      	lsls	r2, r4, #29
10008480:	d470      	bmi.n	10008564 <__svfscanf_r+0x146c>
10008482:	f014 0201 	ands.w	r2, r4, #1
10008486:	f040 8180 	bne.w	1000878a <__svfscanf_r+0x1692>
1000848a:	07a3      	lsls	r3, r4, #30
1000848c:	f140 817d 	bpl.w	1000878a <__svfscanf_r+0x1692>
10008490:	4b18      	ldr	r3, [pc, #96]	@ (100084f4 <__svfscanf_r+0x13fc>)
10008492:	6ab9      	ldr	r1, [r7, #40]	@ 0x28
10008494:	6cb8      	ldr	r0, [r7, #72]	@ 0x48
10008496:	4299      	cmp	r1, r3
10008498:	6b7b      	ldr	r3, [r7, #52]	@ 0x34
1000849a:	4659      	mov	r1, fp
1000849c:	f000 8203 	beq.w	100088a6 <__svfscanf_r+0x17ae>
100084a0:	f002 f8da 	bl	1000a658 <_strtoll_r>
100084a4:	460b      	mov	r3, r1
100084a6:	6afa      	ldr	r2, [r7, #44]	@ 0x2c
100084a8:	6811      	ldr	r1, [r2, #0]
100084aa:	e9c1 0300 	strd	r0, r3, [r1]
100084ae:	f7ff b9b6 	b.w	1000781e <__svfscanf_r+0x726>
100084b2:	460b      	mov	r3, r1
100084b4:	f7fb fa0a 	bl	100038cc <__wrap___aeabi_dcmpun>
100084b8:	2800      	cmp	r0, #0
100084ba:	d167      	bne.n	1000858c <__svfscanf_r+0x1494>
100084bc:	4628      	mov	r0, r5
100084be:	4631      	mov	r1, r6
100084c0:	f7fb f9ae 	bl	10003820 <__wrap___aeabi_d2f>
100084c4:	f8cb 0000 	str.w	r0, [fp]
100084c8:	f7ff b900 	b.w	100076cc <__svfscanf_r+0x5d4>
100084cc:	6030      	str	r0, [r6, #0]
100084ce:	f002 f9b7 	bl	1000a840 <iswspace>
100084d2:	2800      	cmp	r0, #0
100084d4:	f040 8162 	bne.w	1000879c <__svfscanf_r+0x16a4>
100084d8:	44a1      	add	r9, r4
100084da:	e5f6      	b.n	100080ca <__svfscanf_r+0xfd2>
100084dc:	6bfc      	ldr	r4, [r7, #60]	@ 0x3c
100084de:	6820      	ldr	r0, [r4, #0]
100084e0:	f7fb fbcc 	bl	10003c7c <__wrap_realloc>
100084e4:	2800      	cmp	r0, #0
100084e6:	f43f af4f 	beq.w	10008388 <__svfscanf_r+0x1290>
100084ea:	6020      	str	r0, [r4, #0]
100084ec:	e74c      	b.n	10008388 <__svfscanf_r+0x1290>
100084ee:	bf00      	nop
100084f0:	1000a4b9 	.word	0x1000a4b9
100084f4:	100070f5 	.word	0x100070f5
100084f8:	f8da 3000 	ldr.w	r3, [sl]
100084fc:	4ec2      	ldr	r6, [pc, #776]	@ (10008808 <__svfscanf_r+0x1710>)
100084fe:	781a      	ldrb	r2, [r3, #0]
10008500:	5cb2      	ldrb	r2, [r6, r2]
10008502:	0714      	lsls	r4, r2, #28
10008504:	f53e ae24 	bmi.w	10007150 <__svfscanf_r+0x58>
10008508:	3301      	adds	r3, #1
1000850a:	2d01      	cmp	r5, #1
1000850c:	f8ca 3000 	str.w	r3, [sl]
10008510:	f8da 3004 	ldr.w	r3, [sl, #4]
10008514:	f103 33ff 	add.w	r3, r3, #4294967295
10008518:	f8ca 3004 	str.w	r3, [sl, #4]
1000851c:	f000 81c7 	beq.w	100088ae <__svfscanf_r+0x17b6>
10008520:	2401      	movs	r4, #1
10008522:	f8d7 8048 	ldr.w	r8, [r7, #72]	@ 0x48
10008526:	e012      	b.n	1000854e <__svfscanf_r+0x1456>
10008528:	f8da 3000 	ldr.w	r3, [sl]
1000852c:	781a      	ldrb	r2, [r3, #0]
1000852e:	3301      	adds	r3, #1
10008530:	5cb2      	ldrb	r2, [r6, r2]
10008532:	0710      	lsls	r0, r2, #28
10008534:	d413      	bmi.n	1000855e <__svfscanf_r+0x1466>
10008536:	3401      	adds	r4, #1
10008538:	f8ca 3000 	str.w	r3, [sl]
1000853c:	f8da 3004 	ldr.w	r3, [sl, #4]
10008540:	42a5      	cmp	r5, r4
10008542:	f103 33ff 	add.w	r3, r3, #4294967295
10008546:	f8ca 3004 	str.w	r3, [sl, #4]
1000854a:	f000 8124 	beq.w	10008796 <__svfscanf_r+0x169e>
1000854e:	2b00      	cmp	r3, #0
10008550:	dcea      	bgt.n	10008528 <__svfscanf_r+0x1430>
10008552:	4651      	mov	r1, sl
10008554:	4640      	mov	r0, r8
10008556:	f000 fc7b 	bl	10008e50 <__srefill_r>
1000855a:	2800      	cmp	r0, #0
1000855c:	d0e4      	beq.n	10008528 <__svfscanf_r+0x1430>
1000855e:	44a1      	add	r9, r4
10008560:	f7fe bdf6 	b.w	10007150 <__svfscanf_r+0x58>
10008564:	6afb      	ldr	r3, [r7, #44]	@ 0x2c
10008566:	681b      	ldr	r3, [r3, #0]
10008568:	8018      	strh	r0, [r3, #0]
1000856a:	f7ff b958 	b.w	1000781e <__svfscanf_r+0x726>
1000856e:	455c      	cmp	r4, fp
10008570:	465e      	mov	r6, fp
10008572:	f67e ae3c 	bls.w	100071ee <__svfscanf_r+0xf6>
10008576:	6cbd      	ldr	r5, [r7, #72]	@ 0x48
10008578:	f814 1d01 	ldrb.w	r1, [r4, #-1]!
1000857c:	4652      	mov	r2, sl
1000857e:	4628      	mov	r0, r5
10008580:	f000 fdb6 	bl	100090f0 <_ungetc_r>
10008584:	42b4      	cmp	r4, r6
10008586:	d1f7      	bne.n	10008578 <__svfscanf_r+0x1480>
10008588:	f7fe be31 	b.w	100071ee <__svfscanf_r+0xf6>
1000858c:	489f      	ldr	r0, [pc, #636]	@ (1000880c <__svfscanf_r+0x1714>)
1000858e:	f000 ff1f 	bl	100093d0 <nanf>
10008592:	f8cb 0000 	str.w	r0, [fp]
10008596:	f7ff b899 	b.w	100076cc <__svfscanf_r+0x5d4>
1000859a:	2400      	movs	r4, #0
1000859c:	e5b6      	b.n	1000810c <__svfscanf_r+0x1014>
1000859e:	f8d7 8044 	ldr.w	r8, [r7, #68]	@ 0x44
100085a2:	46a3      	mov	fp, r4
100085a4:	4623      	mov	r3, r4
100085a6:	647c      	str	r4, [r7, #68]	@ 0x44
100085a8:	e477      	b.n	10007e9a <__svfscanf_r+0xda2>
100085aa:	b082      	sub	sp, #8
100085ac:	e9cd 3302 	strd	r3, r3, [sp, #8]
100085b0:	ab02      	add	r3, sp, #8
100085b2:	63bb      	str	r3, [r7, #56]	@ 0x38
100085b4:	e5de      	b.n	10008174 <__svfscanf_r+0x107c>
100085b6:	693c      	ldr	r4, [r7, #16]
100085b8:	230a      	movs	r3, #10
100085ba:	2200      	movs	r2, #0
100085bc:	6cb8      	ldr	r0, [r7, #72]	@ 0x48
100085be:	1c61      	adds	r1, r4, #1
100085c0:	f001 ff7a 	bl	1000a4b8 <_strtol_r>
100085c4:	697b      	ldr	r3, [r7, #20]
100085c6:	1ac2      	subs	r2, r0, r3
100085c8:	e4d0      	b.n	10007f6c <__svfscanf_r+0xe74>
100085ca:	6b3b      	ldr	r3, [r7, #48]	@ 0x30
100085cc:	f8d7 801c 	ldr.w	r8, [r7, #28]
100085d0:	61fb      	str	r3, [r7, #28]
100085d2:	e9c7 3308 	strd	r3, r3, [r7, #32]
100085d6:	f7ff b9b1 	b.w	1000793c <__svfscanf_r+0x844>
100085da:	6bfc      	ldr	r4, [r7, #60]	@ 0x3c
100085dc:	63fb      	str	r3, [r7, #60]	@ 0x3c
100085de:	f7ff bbdc 	b.w	10007d9a <__svfscanf_r+0xca2>
100085e2:	4613      	mov	r3, r2
100085e4:	46c4      	mov	ip, r8
100085e6:	4642      	mov	r2, r8
100085e8:	f8c7 8044 	str.w	r8, [r7, #68]	@ 0x44
100085ec:	f7ff b950 	b.w	10007890 <__svfscanf_r+0x798>
100085f0:	f8d7 903c 	ldr.w	r9, [r7, #60]	@ 0x3c
100085f4:	4623      	mov	r3, r4
100085f6:	61bd      	str	r5, [r7, #24]
100085f8:	2c00      	cmp	r4, #0
100085fa:	f43f aa22 	beq.w	10007a42 <__svfscanf_r+0x94a>
100085fe:	445c      	add	r4, fp
10008600:	461d      	mov	r5, r3
10008602:	6cbe      	ldr	r6, [r7, #72]	@ 0x48
10008604:	3d01      	subs	r5, #1
10008606:	4652      	mov	r2, sl
10008608:	f814 1d01 	ldrb.w	r1, [r4, #-1]!
1000860c:	4630      	mov	r0, r6
1000860e:	f000 fd6f 	bl	100090f0 <_ungetc_r>
10008612:	2d00      	cmp	r5, #0
10008614:	d1f6      	bne.n	10008604 <__svfscanf_r+0x150c>
10008616:	f7ff ba14 	b.w	10007a42 <__svfscanf_r+0x94a>
1000861a:	2301      	movs	r3, #1
1000861c:	f428 68f0 	bic.w	r8, r8, #1920	@ 0x780
10008620:	63fb      	str	r3, [r7, #60]	@ 0x3c
10008622:	2300      	movs	r3, #0
10008624:	633b      	str	r3, [r7, #48]	@ 0x30
10008626:	f7fe bffb 	b.w	10007620 <__svfscanf_r+0x528>
1000862a:	2301      	movs	r3, #1
1000862c:	f428 68f0 	bic.w	r8, r8, #1920	@ 0x780
10008630:	647b      	str	r3, [r7, #68]	@ 0x44
10008632:	2300      	movs	r3, #0
10008634:	633b      	str	r3, [r7, #48]	@ 0x30
10008636:	f7fe bff3 	b.w	10007620 <__svfscanf_r+0x528>
1000863a:	4651      	mov	r1, sl
1000863c:	6cb8      	ldr	r0, [r7, #72]	@ 0x48
1000863e:	63fb      	str	r3, [r7, #60]	@ 0x3c
10008640:	f000 fc06 	bl	10008e50 <__srefill_r>
10008644:	6bfb      	ldr	r3, [r7, #60]	@ 0x3c
10008646:	2800      	cmp	r0, #0
10008648:	f43f ac5f 	beq.w	10007f0a <__svfscanf_r+0xe12>
1000864c:	e465      	b.n	10007f1a <__svfscanf_r+0xe22>
1000864e:	f8c7 804c 	str.w	r8, [r7, #76]	@ 0x4c
10008652:	f7fe bf0c 	b.w	1000746e <__svfscanf_r+0x376>
10008656:	2d01      	cmp	r5, #1
10008658:	f004 0210 	and.w	r2, r4, #16
1000865c:	bf38      	it	cc
1000865e:	2501      	movcc	r5, #1
10008660:	f014 0301 	ands.w	r3, r4, #1
10008664:	647a      	str	r2, [r7, #68]	@ 0x44
10008666:	f000 80d3 	beq.w	10008810 <__svfscanf_r+0x1718>
1000866a:	2a00      	cmp	r2, #0
1000866c:	f040 8127 	bne.w	100088be <__svfscanf_r+0x17c6>
10008670:	6afb      	ldr	r3, [r7, #44]	@ 0x2c
10008672:	0624      	lsls	r4, r4, #24
10008674:	f853 bb04 	ldr.w	fp, [r3], #4
10008678:	62fb      	str	r3, [r7, #44]	@ 0x2c
1000867a:	f100 814b 	bmi.w	10008914 <__svfscanf_r+0x181c>
1000867e:	46d8      	mov	r8, fp
10008680:	f8d7 b044 	ldr.w	fp, [r7, #68]	@ 0x44
10008684:	465b      	mov	r3, fp
10008686:	46dc      	mov	ip, fp
10008688:	f8c7 b03c 	str.w	fp, [r7, #60]	@ 0x3c
1000868c:	2600      	movs	r6, #0
1000868e:	4664      	mov	r4, ip
10008690:	469b      	mov	fp, r3
10008692:	f000 fe3f 	bl	10009314 <__locale_mb_cur_max>
10008696:	42b0      	cmp	r0, r6
10008698:	f43e ad9d 	beq.w	100071d6 <__svfscanf_r+0xde>
1000869c:	e9da 3200 	ldrd	r3, r2, [sl]
100086a0:	3a01      	subs	r2, #1
100086a2:	f813 1b01 	ldrb.w	r1, [r3], #1
100086a6:	f8ca 2004 	str.w	r2, [sl, #4]
100086aa:	f507 72b8 	add.w	r2, r7, #368	@ 0x170
100086ae:	f8ca 3000 	str.w	r3, [sl]
100086b2:	1c73      	adds	r3, r6, #1
100086b4:	5591      	strb	r1, [r2, r6]
100086b6:	f107 0668 	add.w	r6, r7, #104	@ 0x68
100086ba:	69ba      	ldr	r2, [r7, #24]
100086bc:	2a03      	cmp	r2, #3
100086be:	d102      	bne.n	100086c6 <__svfscanf_r+0x15ce>
100086c0:	6832      	ldr	r2, [r6, #0]
100086c2:	2a04      	cmp	r2, #4
100086c4:	d006      	beq.n	100086d4 <__svfscanf_r+0x15dc>
100086c6:	2208      	movs	r2, #8
100086c8:	2100      	movs	r1, #0
100086ca:	4630      	mov	r0, r6
100086cc:	633b      	str	r3, [r7, #48]	@ 0x30
100086ce:	f7fe f8ff 	bl	100068d0 <memset>
100086d2:	6b3b      	ldr	r3, [r7, #48]	@ 0x30
100086d4:	9600      	str	r6, [sp, #0]
100086d6:	f507 72b8 	add.w	r2, r7, #368	@ 0x170
100086da:	4641      	mov	r1, r8
100086dc:	6cb8      	ldr	r0, [r7, #72]	@ 0x48
100086de:	633b      	str	r3, [r7, #48]	@ 0x30
100086e0:	f002 f884 	bl	1000a7ec <_mbrtowc_r>
100086e4:	4602      	mov	r2, r0
100086e6:	61b8      	str	r0, [r7, #24]
100086e8:	1c50      	adds	r0, r2, #1
100086ea:	f43e ad74 	beq.w	100071d6 <__svfscanf_r+0xde>
100086ee:	6b3b      	ldr	r3, [r7, #48]	@ 0x30
100086f0:	2a00      	cmp	r2, #0
100086f2:	f040 8169 	bne.w	100089c8 <__svfscanf_r+0x18d0>
100086f6:	4499      	add	r9, r3
100086f8:	6c7b      	ldr	r3, [r7, #68]	@ 0x44
100086fa:	3d01      	subs	r5, #1
100086fc:	2b00      	cmp	r3, #0
100086fe:	f040 8171 	bne.w	100089e4 <__svfscanf_r+0x18ec>
10008702:	f8c8 3000 	str.w	r3, [r8]
10008706:	eba8 0604 	sub.w	r6, r8, r4
1000870a:	ebbb 0fa6 	cmp.w	fp, r6, asr #2
1000870e:	f200 819d 	bhi.w	10008a4c <__svfscanf_r+0x1954>
10008712:	6bfb      	ldr	r3, [r7, #60]	@ 0x3c
10008714:	2b00      	cmp	r3, #0
10008716:	f000 8199 	beq.w	10008a4c <__svfscanf_r+0x1954>
1000871a:	4620      	mov	r0, r4
1000871c:	ea4f 01cb 	mov.w	r1, fp, lsl #3
10008720:	f7fb faac 	bl	10003c7c <__wrap_realloc>
10008724:	4604      	mov	r4, r0
10008726:	2800      	cmp	r0, #0
10008728:	f040 818a 	bne.w	10008a40 <__svfscanf_r+0x1948>
1000872c:	f04f 33ff 	mov.w	r3, #4294967295
10008730:	643b      	str	r3, [r7, #64]	@ 0x40
10008732:	f7fe bd5c 	b.w	100071ee <__svfscanf_r+0xf6>
10008736:	07d9      	lsls	r1, r3, #31
10008738:	d404      	bmi.n	10008744 <__svfscanf_r+0x164c>
1000873a:	f8ba 300c 	ldrh.w	r3, [sl, #12]
1000873e:	059a      	lsls	r2, r3, #22
10008740:	f140 809e 	bpl.w	10008880 <__svfscanf_r+0x1788>
10008744:	f04f 33ff 	mov.w	r3, #4294967295
10008748:	643b      	str	r3, [r7, #64]	@ 0x40
1000874a:	f7fe bd60 	b.w	1000720e <__svfscanf_r+0x116>
1000874e:	4651      	mov	r1, sl
10008750:	6cb8      	ldr	r0, [r7, #72]	@ 0x48
10008752:	f000 fb7d 	bl	10008e50 <__srefill_r>
10008756:	2800      	cmp	r0, #0
10008758:	f43f acdd 	beq.w	10008116 <__svfscanf_r+0x101e>
1000875c:	4633      	mov	r3, r6
1000875e:	6a7a      	ldr	r2, [r7, #36]	@ 0x24
10008760:	f8d7 c030 	ldr.w	ip, [r7, #48]	@ 0x30
10008764:	f8d7 803c 	ldr.w	r8, [r7, #60]	@ 0x3c
10008768:	f8c7 b018 	str.w	fp, [r7, #24]
1000876c:	2c00      	cmp	r4, #0
1000876e:	f47e ad32 	bne.w	100071d6 <__svfscanf_r+0xde>
10008772:	f7ff b896 	b.w	100078a2 <__svfscanf_r+0x7aa>
10008776:	07e5      	lsls	r5, r4, #31
10008778:	d40a      	bmi.n	10008790 <__svfscanf_r+0x1698>
1000877a:	07a4      	lsls	r4, r4, #30
1000877c:	d508      	bpl.n	10008790 <__svfscanf_r+0x1698>
1000877e:	ea4f 72e9 	mov.w	r2, r9, asr #31
10008782:	f8c3 9000 	str.w	r9, [r3]
10008786:	605a      	str	r2, [r3, #4]
10008788:	e5c9      	b.n	1000831e <__svfscanf_r+0x1226>
1000878a:	6afb      	ldr	r3, [r7, #44]	@ 0x2c
1000878c:	f7ff b845 	b.w	1000781a <__svfscanf_r+0x722>
10008790:	f8c3 9000 	str.w	r9, [r3]
10008794:	e5c3      	b.n	1000831e <__svfscanf_r+0x1226>
10008796:	44a9      	add	r9, r5
10008798:	f7fe bcda 	b.w	10007150 <__svfscanf_r+0x58>
1000879c:	4633      	mov	r3, r6
1000879e:	6a7a      	ldr	r2, [r7, #36]	@ 0x24
100087a0:	f8d7 c030 	ldr.w	ip, [r7, #48]	@ 0x30
100087a4:	f8d7 803c 	ldr.w	r8, [r7, #60]	@ 0x3c
100087a8:	f8c7 b018 	str.w	fp, [r7, #24]
100087ac:	2c00      	cmp	r4, #0
100087ae:	f43f a878 	beq.w	100078a2 <__svfscanf_r+0x7aa>
100087b2:	f507 71b8 	add.w	r1, r7, #368	@ 0x170
100087b6:	63fe      	str	r6, [r7, #60]	@ 0x3c
100087b8:	4693      	mov	fp, r2
100087ba:	6cbe      	ldr	r6, [r7, #72]	@ 0x48
100087bc:	190d      	adds	r5, r1, r4
100087be:	f8c7 c030 	str.w	ip, [r7, #48]	@ 0x30
100087c2:	3c01      	subs	r4, #1
100087c4:	4652      	mov	r2, sl
100087c6:	f815 1d01 	ldrb.w	r1, [r5, #-1]!
100087ca:	4630      	mov	r0, r6
100087cc:	f000 fc90 	bl	100090f0 <_ungetc_r>
100087d0:	2c00      	cmp	r4, #0
100087d2:	d1f6      	bne.n	100087c2 <__svfscanf_r+0x16ca>
100087d4:	6bfb      	ldr	r3, [r7, #60]	@ 0x3c
100087d6:	465a      	mov	r2, fp
100087d8:	f8d7 c030 	ldr.w	ip, [r7, #48]	@ 0x30
100087dc:	f7ff b861 	b.w	100078a2 <__svfscanf_r+0x7aa>
100087e0:	455c      	cmp	r4, fp
100087e2:	465e      	mov	r6, fp
100087e4:	f67e ad03 	bls.w	100071ee <__svfscanf_r+0xf6>
100087e8:	6cbd      	ldr	r5, [r7, #72]	@ 0x48
100087ea:	f814 1d01 	ldrb.w	r1, [r4, #-1]!
100087ee:	4652      	mov	r2, sl
100087f0:	4628      	mov	r0, r5
100087f2:	f000 fc7d 	bl	100090f0 <_ungetc_r>
100087f6:	42b4      	cmp	r4, r6
100087f8:	d1f7      	bne.n	100087ea <__svfscanf_r+0x16f2>
100087fa:	f7fe bcf8 	b.w	100071ee <__svfscanf_r+0xf6>
100087fe:	f8d7 b024 	ldr.w	fp, [r7, #36]	@ 0x24
10008802:	f7ff b9c5 	b.w	10007b90 <__svfscanf_r+0xa98>
10008806:	bf00      	nop
10008808:	1000c87d 	.word	0x1000c87d
1000880c:	1000c214 	.word	0x1000c214
10008810:	6c7a      	ldr	r2, [r7, #68]	@ 0x44
10008812:	2a00      	cmp	r2, #0
10008814:	d158      	bne.n	100088c8 <__svfscanf_r+0x17d0>
10008816:	6afb      	ldr	r3, [r7, #44]	@ 0x2c
10008818:	f853 6b04 	ldr.w	r6, [r3], #4
1000881c:	62fb      	str	r3, [r7, #44]	@ 0x2c
1000881e:	0623      	lsls	r3, r4, #24
10008820:	d569      	bpl.n	100088f6 <__svfscanf_r+0x17fe>
10008822:	2e00      	cmp	r6, #0
10008824:	f43e ace3 	beq.w	100071ee <__svfscanf_r+0xf6>
10008828:	4628      	mov	r0, r5
1000882a:	f7fb fa15 	bl	10003c58 <__wrap_malloc>
1000882e:	4680      	mov	r8, r0
10008830:	2800      	cmp	r0, #0
10008832:	f43f af7b 	beq.w	1000872c <__svfscanf_r+0x1634>
10008836:	6bbb      	ldr	r3, [r7, #56]	@ 0x38
10008838:	6030      	str	r0, [r6, #0]
1000883a:	f8b3 b006 	ldrh.w	fp, [r3, #6]
1000883e:	889c      	ldrh	r4, [r3, #4]
10008840:	45a3      	cmp	fp, r4
10008842:	f0c0 809c 	bcc.w	1000897e <__svfscanf_r+0x1886>
10008846:	f64f 73f6 	movw	r3, #65526	@ 0xfff6
1000884a:	429c      	cmp	r4, r3
1000884c:	d808      	bhi.n	10008860 <__svfscanf_r+0x1768>
1000884e:	3408      	adds	r4, #8
10008850:	6bbb      	ldr	r3, [r7, #56]	@ 0x38
10008852:	00a1      	lsls	r1, r4, #2
10008854:	6818      	ldr	r0, [r3, #0]
10008856:	f7fb fa11 	bl	10003c7c <__wrap_realloc>
1000885a:	2800      	cmp	r0, #0
1000885c:	f040 80ae 	bne.w	100089bc <__svfscanf_r+0x18c4>
10008860:	f8da 3064 	ldr.w	r3, [sl, #100]	@ 0x64
10008864:	07db      	lsls	r3, r3, #31
10008866:	f53e adba 	bmi.w	100073de <__svfscanf_r+0x2e6>
1000886a:	f8ba 300c 	ldrh.w	r3, [sl, #12]
1000886e:	f413 7f00 	tst.w	r3, #512	@ 0x200
10008872:	f04f 33ff 	mov.w	r3, #4294967295
10008876:	643b      	str	r3, [r7, #64]	@ 0x40
10008878:	f47e acc0 	bne.w	100071fc <__svfscanf_r+0x104>
1000887c:	f7fe bdaa 	b.w	100073d4 <__svfscanf_r+0x2dc>
10008880:	f8da 0058 	ldr.w	r0, [sl, #88]	@ 0x58
10008884:	f7fe f8b8 	bl	100069f8 <__retarget_lock_release_recursive>
10008888:	e75c      	b.n	10008744 <__svfscanf_r+0x164c>
1000888a:	455c      	cmp	r4, fp
1000888c:	f67e acaf 	bls.w	100071ee <__svfscanf_r+0xf6>
10008890:	465d      	mov	r5, fp
10008892:	f814 1d01 	ldrb.w	r1, [r4, #-1]!
10008896:	4652      	mov	r2, sl
10008898:	6cb8      	ldr	r0, [r7, #72]	@ 0x48
1000889a:	f000 fc29 	bl	100090f0 <_ungetc_r>
1000889e:	42ac      	cmp	r4, r5
100088a0:	d1f7      	bne.n	10008892 <__svfscanf_r+0x179a>
100088a2:	f7fe bca4 	b.w	100071ee <__svfscanf_r+0xf6>
100088a6:	f001 ff9f 	bl	1000a7e8 <_strtoull_r>
100088aa:	460b      	mov	r3, r1
100088ac:	e5fb      	b.n	100084a6 <__svfscanf_r+0x13ae>
100088ae:	f109 0901 	add.w	r9, r9, #1
100088b2:	f7fe bc4d 	b.w	10007150 <__svfscanf_r+0x58>
100088b6:	f8d7 804c 	ldr.w	r8, [r7, #76]	@ 0x4c
100088ba:	f7ff b9c2 	b.w	10007c42 <__svfscanf_r+0xb4a>
100088be:	2300      	movs	r3, #0
100088c0:	469c      	mov	ip, r3
100088c2:	469b      	mov	fp, r3
100088c4:	4698      	mov	r8, r3
100088c6:	e6df      	b.n	10008688 <__svfscanf_r+0x1590>
100088c8:	461c      	mov	r4, r3
100088ca:	e9da 2300 	ldrd	r2, r3, [sl]
100088ce:	429d      	cmp	r5, r3
100088d0:	eb02 0103 	add.w	r1, r2, r3
100088d4:	dd49      	ble.n	1000896a <__svfscanf_r+0x1872>
100088d6:	f8ca 1000 	str.w	r1, [sl]
100088da:	4651      	mov	r1, sl
100088dc:	6cb8      	ldr	r0, [r7, #72]	@ 0x48
100088de:	441c      	add	r4, r3
100088e0:	1aed      	subs	r5, r5, r3
100088e2:	f000 fab5 	bl	10008e50 <__srefill_r>
100088e6:	2800      	cmp	r0, #0
100088e8:	d0ef      	beq.n	100088ca <__svfscanf_r+0x17d2>
100088ea:	2c00      	cmp	r4, #0
100088ec:	f43e ac73 	beq.w	100071d6 <__svfscanf_r+0xde>
100088f0:	44a1      	add	r9, r4
100088f2:	f7fe bc2d 	b.w	10007150 <__svfscanf_r+0x58>
100088f6:	f8cd a000 	str.w	sl, [sp]
100088fa:	462b      	mov	r3, r5
100088fc:	4631      	mov	r1, r6
100088fe:	2201      	movs	r2, #1
10008900:	6cb8      	ldr	r0, [r7, #72]	@ 0x48
10008902:	f000 f997 	bl	10008c34 <_fread_r>
10008906:	4604      	mov	r4, r0
10008908:	2800      	cmp	r0, #0
1000890a:	f43e ac64 	beq.w	100071d6 <__svfscanf_r+0xde>
1000890e:	44a1      	add	r9, r4
10008910:	f7ff b8ad 	b.w	10007a6e <__svfscanf_r+0x976>
10008914:	f1bb 0f00 	cmp.w	fp, #0
10008918:	f43e ac69 	beq.w	100071ee <__svfscanf_r+0xf6>
1000891c:	2080      	movs	r0, #128	@ 0x80
1000891e:	f7fb f99b 	bl	10003c58 <__wrap_malloc>
10008922:	4680      	mov	r8, r0
10008924:	2800      	cmp	r0, #0
10008926:	f43f af01 	beq.w	1000872c <__svfscanf_r+0x1634>
1000892a:	6bbb      	ldr	r3, [r7, #56]	@ 0x38
1000892c:	f8cb 0000 	str.w	r0, [fp]
10008930:	88de      	ldrh	r6, [r3, #6]
10008932:	889c      	ldrh	r4, [r3, #4]
10008934:	42a6      	cmp	r6, r4
10008936:	d345      	bcc.n	100089c4 <__svfscanf_r+0x18cc>
10008938:	f64f 73f6 	movw	r3, #65526	@ 0xfff6
1000893c:	429c      	cmp	r4, r3
1000893e:	f63f aef5 	bhi.w	1000872c <__svfscanf_r+0x1634>
10008942:	3408      	adds	r4, #8
10008944:	6bbb      	ldr	r3, [r7, #56]	@ 0x38
10008946:	00a1      	lsls	r1, r4, #2
10008948:	6818      	ldr	r0, [r3, #0]
1000894a:	f7fb f997 	bl	10003c7c <__wrap_realloc>
1000894e:	2800      	cmp	r0, #0
10008950:	f43f aeec 	beq.w	1000872c <__svfscanf_r+0x1634>
10008954:	6bbb      	ldr	r3, [r7, #56]	@ 0x38
10008956:	809c      	strh	r4, [r3, #4]
10008958:	6018      	str	r0, [r3, #0]
1000895a:	6bbb      	ldr	r3, [r7, #56]	@ 0x38
1000895c:	46c4      	mov	ip, r8
1000895e:	f840 b026 	str.w	fp, [r0, r6, lsl #2]
10008962:	3601      	adds	r6, #1
10008964:	80de      	strh	r6, [r3, #6]
10008966:	2320      	movs	r3, #32
10008968:	e68e      	b.n	10008688 <__svfscanf_r+0x1590>
1000896a:	1b5b      	subs	r3, r3, r5
1000896c:	442a      	add	r2, r5
1000896e:	442c      	add	r4, r5
10008970:	f8ca 3004 	str.w	r3, [sl, #4]
10008974:	44a1      	add	r9, r4
10008976:	f8ca 2000 	str.w	r2, [sl]
1000897a:	f7fe bbe9 	b.w	10007150 <__svfscanf_r+0x58>
1000897e:	6818      	ldr	r0, [r3, #0]
10008980:	6bba      	ldr	r2, [r7, #56]	@ 0x38
10008982:	f10b 0301 	add.w	r3, fp, #1
10008986:	f840 602b 	str.w	r6, [r0, fp, lsl #2]
1000898a:	4641      	mov	r1, r8
1000898c:	80d3      	strh	r3, [r2, #6]
1000898e:	462b      	mov	r3, r5
10008990:	f8cd a000 	str.w	sl, [sp]
10008994:	2201      	movs	r2, #1
10008996:	6cb8      	ldr	r0, [r7, #72]	@ 0x48
10008998:	f000 f94c 	bl	10008c34 <_fread_r>
1000899c:	4604      	mov	r4, r0
1000899e:	2800      	cmp	r0, #0
100089a0:	f43e ac19 	beq.w	100071d6 <__svfscanf_r+0xde>
100089a4:	4285      	cmp	r5, r0
100089a6:	d9b2      	bls.n	1000890e <__svfscanf_r+0x1816>
100089a8:	4601      	mov	r1, r0
100089aa:	6830      	ldr	r0, [r6, #0]
100089ac:	f7fb f966 	bl	10003c7c <__wrap_realloc>
100089b0:	2800      	cmp	r0, #0
100089b2:	d0ac      	beq.n	1000890e <__svfscanf_r+0x1816>
100089b4:	44a1      	add	r9, r4
100089b6:	6030      	str	r0, [r6, #0]
100089b8:	f7ff b859 	b.w	10007a6e <__svfscanf_r+0x976>
100089bc:	6bbb      	ldr	r3, [r7, #56]	@ 0x38
100089be:	809c      	strh	r4, [r3, #4]
100089c0:	6018      	str	r0, [r3, #0]
100089c2:	e7dd      	b.n	10008980 <__svfscanf_r+0x1888>
100089c4:	6818      	ldr	r0, [r3, #0]
100089c6:	e7c8      	b.n	1000895a <__svfscanf_r+0x1862>
100089c8:	69ba      	ldr	r2, [r7, #24]
100089ca:	1c91      	adds	r1, r2, #2
100089cc:	d024      	beq.n	10008a18 <__svfscanf_r+0x1920>
100089ce:	2a03      	cmp	r2, #3
100089d0:	4499      	add	r9, r3
100089d2:	d102      	bne.n	100089da <__svfscanf_r+0x18e2>
100089d4:	6833      	ldr	r3, [r6, #0]
100089d6:	2b04      	cmp	r3, #4
100089d8:	d000      	beq.n	100089dc <__svfscanf_r+0x18e4>
100089da:	3d01      	subs	r5, #1
100089dc:	6c7b      	ldr	r3, [r7, #68]	@ 0x44
100089de:	2b00      	cmp	r3, #0
100089e0:	f43f ae91 	beq.w	10008706 <__svfscanf_r+0x160e>
100089e4:	f8da 3004 	ldr.w	r3, [sl, #4]
100089e8:	2600      	movs	r6, #0
100089ea:	2b00      	cmp	r3, #0
100089ec:	dd1a      	ble.n	10008a24 <__svfscanf_r+0x192c>
100089ee:	2d00      	cmp	r5, #0
100089f0:	f47f ae4f 	bne.w	10008692 <__svfscanf_r+0x159a>
100089f4:	465b      	mov	r3, fp
100089f6:	46a4      	mov	ip, r4
100089f8:	f8d7 b03c 	ldr.w	fp, [r7, #60]	@ 0x3c
100089fc:	eba8 010c 	sub.w	r1, r8, ip
10008a00:	ebb3 0fa1 	cmp.w	r3, r1, asr #2
10008a04:	d902      	bls.n	10008a0c <__svfscanf_r+0x1914>
10008a06:	f1bb 0f00 	cmp.w	fp, #0
10008a0a:	d122      	bne.n	10008a52 <__svfscanf_r+0x195a>
10008a0c:	6c7b      	ldr	r3, [r7, #68]	@ 0x44
10008a0e:	2b00      	cmp	r3, #0
10008a10:	f47e ab9e 	bne.w	10007150 <__svfscanf_r+0x58>
10008a14:	f7ff b82b 	b.w	10007a6e <__svfscanf_r+0x976>
10008a18:	f8da 2004 	ldr.w	r2, [sl, #4]
10008a1c:	461e      	mov	r6, r3
10008a1e:	2a00      	cmp	r2, #0
10008a20:	f73f ae37 	bgt.w	10008692 <__svfscanf_r+0x159a>
10008a24:	4651      	mov	r1, sl
10008a26:	6cb8      	ldr	r0, [r7, #72]	@ 0x48
10008a28:	f000 fa12 	bl	10008e50 <__srefill_r>
10008a2c:	2800      	cmp	r0, #0
10008a2e:	d0de      	beq.n	100089ee <__svfscanf_r+0x18f6>
10008a30:	465b      	mov	r3, fp
10008a32:	46a4      	mov	ip, r4
10008a34:	f8d7 b03c 	ldr.w	fp, [r7, #60]	@ 0x3c
10008a38:	2e00      	cmp	r6, #0
10008a3a:	d0df      	beq.n	100089fc <__svfscanf_r+0x1904>
10008a3c:	f7fe bbcb 	b.w	100071d6 <__svfscanf_r+0xde>
10008a40:	6bfb      	ldr	r3, [r7, #60]	@ 0x3c
10008a42:	eb00 0806 	add.w	r8, r0, r6
10008a46:	ea4f 0b4b 	mov.w	fp, fp, lsl #1
10008a4a:	6018      	str	r0, [r3, #0]
10008a4c:	f108 0804 	add.w	r8, r8, #4
10008a50:	e7c8      	b.n	100089e4 <__svfscanf_r+0x18ec>
10008a52:	f8db 0000 	ldr.w	r0, [fp]
10008a56:	f7fb f911 	bl	10003c7c <__wrap_realloc>
10008a5a:	2800      	cmp	r0, #0
10008a5c:	d0d6      	beq.n	10008a0c <__svfscanf_r+0x1914>
10008a5e:	f8cb 0000 	str.w	r0, [fp]
10008a62:	e7d3      	b.n	10008a0c <__svfscanf_r+0x1914>

10008a64 <_vfscanf_r>:
10008a64:	b530      	push	{r4, r5, lr}
10008a66:	4604      	mov	r4, r0
10008a68:	b085      	sub	sp, #20
10008a6a:	b108      	cbz	r0, 10008a70 <_vfscanf_r+0xc>
10008a6c:	6b45      	ldr	r5, [r0, #52]	@ 0x34
10008a6e:	b12d      	cbz	r5, 10008a7c <_vfscanf_r+0x18>
10008a70:	4620      	mov	r0, r4
10008a72:	b005      	add	sp, #20
10008a74:	e8bd 4030 	ldmia.w	sp!, {r4, r5, lr}
10008a78:	f7fe bb3e 	b.w	100070f8 <__svfscanf_r>
10008a7c:	e9cd 2302 	strd	r2, r3, [sp, #8]
10008a80:	9101      	str	r1, [sp, #4]
10008a82:	f000 f8ad 	bl	10008be0 <__sinit>
10008a86:	9901      	ldr	r1, [sp, #4]
10008a88:	4620      	mov	r0, r4
10008a8a:	e9dd 2302 	ldrd	r2, r3, [sp, #8]
10008a8e:	b005      	add	sp, #20
10008a90:	e8bd 4030 	ldmia.w	sp!, {r4, r5, lr}
10008a94:	f7fe bb30 	b.w	100070f8 <__svfscanf_r>

10008a98 <stdio_exit_handler>:
10008a98:	4a02      	ldr	r2, [pc, #8]	@ (10008aa4 <stdio_exit_handler+0xc>)
10008a9a:	4903      	ldr	r1, [pc, #12]	@ (10008aa8 <stdio_exit_handler+0x10>)
10008a9c:	4803      	ldr	r0, [pc, #12]	@ (10008aac <stdio_exit_handler+0x14>)
10008a9e:	f000 b9a7 	b.w	10008df0 <_fwalk_sglue>
10008aa2:	bf00      	nop
10008aa4:	20000c50 	.word	0x20000c50
10008aa8:	1000aa21 	.word	0x1000aa21
10008aac:	20000b10 	.word	0x20000b10

10008ab0 <cleanup_stdio>:
10008ab0:	4b0c      	ldr	r3, [pc, #48]	@ (10008ae4 <cleanup_stdio+0x34>)
10008ab2:	6841      	ldr	r1, [r0, #4]
10008ab4:	4299      	cmp	r1, r3
10008ab6:	b510      	push	{r4, lr}
10008ab8:	4604      	mov	r4, r0
10008aba:	d001      	beq.n	10008ac0 <cleanup_stdio+0x10>
10008abc:	f001 ffb0 	bl	1000aa20 <_fclose_r>
10008ac0:	68a1      	ldr	r1, [r4, #8]
10008ac2:	4b09      	ldr	r3, [pc, #36]	@ (10008ae8 <cleanup_stdio+0x38>)
10008ac4:	4299      	cmp	r1, r3
10008ac6:	d002      	beq.n	10008ace <cleanup_stdio+0x1e>
10008ac8:	4620      	mov	r0, r4
10008aca:	f001 ffa9 	bl	1000aa20 <_fclose_r>
10008ace:	68e1      	ldr	r1, [r4, #12]
10008ad0:	4b06      	ldr	r3, [pc, #24]	@ (10008aec <cleanup_stdio+0x3c>)
10008ad2:	4299      	cmp	r1, r3
10008ad4:	d004      	beq.n	10008ae0 <cleanup_stdio+0x30>
10008ad6:	4620      	mov	r0, r4
10008ad8:	e8bd 4010 	ldmia.w	sp!, {r4, lr}
10008adc:	f001 bfa0 	b.w	1000aa20 <_fclose_r>
10008ae0:	bd10      	pop	{r4, pc}
10008ae2:	bf00      	nop
10008ae4:	200010d4 	.word	0x200010d4
10008ae8:	2000113c 	.word	0x2000113c
10008aec:	200011a4 	.word	0x200011a4

10008af0 <global_stdio_init.part.0>:
10008af0:	e92d 43f8 	stmdb	sp!, {r3, r4, r5, r6, r7, r8, r9, lr}
10008af4:	4a31      	ldr	r2, [pc, #196]	@ (10008bbc <global_stdio_init.part.0+0xcc>)
10008af6:	2500      	movs	r5, #0
10008af8:	4c31      	ldr	r4, [pc, #196]	@ (10008bc0 <global_stdio_init.part.0+0xd0>)
10008afa:	2304      	movs	r3, #4
10008afc:	4931      	ldr	r1, [pc, #196]	@ (10008bc4 <global_stdio_init.part.0+0xd4>)
10008afe:	f8df 90d8 	ldr.w	r9, [pc, #216]	@ 10008bd8 <global_stdio_init.part.0+0xe8>
10008b02:	f104 005c 	add.w	r0, r4, #92	@ 0x5c
10008b06:	f8df 80d4 	ldr.w	r8, [pc, #212]	@ 10008bdc <global_stdio_init.part.0+0xec>
10008b0a:	4f2f      	ldr	r7, [pc, #188]	@ (10008bc8 <global_stdio_init.part.0+0xd8>)
10008b0c:	4e2f      	ldr	r6, [pc, #188]	@ (10008bcc <global_stdio_init.part.0+0xdc>)
10008b0e:	6011      	str	r1, [r2, #0]
10008b10:	4629      	mov	r1, r5
10008b12:	2208      	movs	r2, #8
10008b14:	6025      	str	r5, [r4, #0]
10008b16:	6665      	str	r5, [r4, #100]	@ 0x64
10008b18:	e9c4 3503 	strd	r3, r5, [r4, #12]
10008b1c:	e9c4 5501 	strd	r5, r5, [r4, #4]
10008b20:	e9c4 5505 	strd	r5, r5, [r4, #20]
10008b24:	f7fd fed4 	bl	100068d0 <memset>
10008b28:	f104 0058 	add.w	r0, r4, #88	@ 0x58
10008b2c:	62e6      	str	r6, [r4, #44]	@ 0x2c
10008b2e:	e9c4 4907 	strd	r4, r9, [r4, #28]
10008b32:	e9c4 8709 	strd	r8, r7, [r4, #36]	@ 0x24
10008b36:	f7fd ff59 	bl	100069ec <__retarget_lock_init_recursive>
10008b3a:	4b25      	ldr	r3, [pc, #148]	@ (10008bd0 <global_stdio_init.part.0+0xe0>)
10008b3c:	4629      	mov	r1, r5
10008b3e:	2208      	movs	r2, #8
10008b40:	f104 00c4 	add.w	r0, r4, #196	@ 0xc4
10008b44:	6763      	str	r3, [r4, #116]	@ 0x74
10008b46:	6725      	str	r5, [r4, #112]	@ 0x70
10008b48:	f8c4 50cc 	str.w	r5, [r4, #204]	@ 0xcc
10008b4c:	f8c4 5080 	str.w	r5, [r4, #128]	@ 0x80
10008b50:	e9c4 551a 	strd	r5, r5, [r4, #104]	@ 0x68
10008b54:	e9c4 551e 	strd	r5, r5, [r4, #120]	@ 0x78
10008b58:	f7fd feba 	bl	100068d0 <memset>
10008b5c:	f104 0368 	add.w	r3, r4, #104	@ 0x68
10008b60:	f104 00c0 	add.w	r0, r4, #192	@ 0xc0
10008b64:	f8c4 3084 	str.w	r3, [r4, #132]	@ 0x84
10008b68:	e9c4 9822 	strd	r9, r8, [r4, #136]	@ 0x88
10008b6c:	e9c4 7624 	strd	r7, r6, [r4, #144]	@ 0x90
10008b70:	f7fd ff3c 	bl	100069ec <__retarget_lock_init_recursive>
10008b74:	4b17      	ldr	r3, [pc, #92]	@ (10008bd4 <global_stdio_init.part.0+0xe4>)
10008b76:	4629      	mov	r1, r5
10008b78:	f504 7096 	add.w	r0, r4, #300	@ 0x12c
10008b7c:	2208      	movs	r2, #8
10008b7e:	f8c4 30dc 	str.w	r3, [r4, #220]	@ 0xdc
10008b82:	f8c4 50d8 	str.w	r5, [r4, #216]	@ 0xd8
10008b86:	f8c4 5134 	str.w	r5, [r4, #308]	@ 0x134
10008b8a:	f8c4 50e8 	str.w	r5, [r4, #232]	@ 0xe8
10008b8e:	e9c4 5534 	strd	r5, r5, [r4, #208]	@ 0xd0
10008b92:	e9c4 5538 	strd	r5, r5, [r4, #224]	@ 0xe0
10008b96:	f7fd fe9b 	bl	100068d0 <memset>
10008b9a:	f104 03d0 	add.w	r3, r4, #208	@ 0xd0
10008b9e:	f504 7094 	add.w	r0, r4, #296	@ 0x128
10008ba2:	f8c4 90f0 	str.w	r9, [r4, #240]	@ 0xf0
10008ba6:	f8c4 60fc 	str.w	r6, [r4, #252]	@ 0xfc
10008baa:	f8c4 30ec 	str.w	r3, [r4, #236]	@ 0xec
10008bae:	e9c4 873d 	strd	r8, r7, [r4, #244]	@ 0xf4
10008bb2:	e8bd 43f8 	ldmia.w	sp!, {r3, r4, r5, r6, r7, r8, r9, lr}
10008bb6:	f7fd bf19 	b.w	100069ec <__retarget_lock_init_recursive>
10008bba:	bf00      	nop
10008bbc:	2000120c 	.word	0x2000120c
10008bc0:	200010d4 	.word	0x200010d4
10008bc4:	10008a99 	.word	0x10008a99
10008bc8:	1000904d 	.word	0x1000904d
10008bcc:	10009075 	.word	0x10009075
10008bd0:	00010009 	.word	0x00010009
10008bd4:	00020012 	.word	0x00020012
10008bd8:	10008fe9 	.word	0x10008fe9
10008bdc:	1000900d 	.word	0x1000900d

10008be0 <__sinit>:
10008be0:	b510      	push	{r4, lr}
10008be2:	4604      	mov	r4, r0
10008be4:	480a      	ldr	r0, [pc, #40]	@ (10008c10 <__sinit+0x30>)
10008be6:	f7fd ff05 	bl	100069f4 <__retarget_lock_acquire_recursive>
10008bea:	6b63      	ldr	r3, [r4, #52]	@ 0x34
10008bec:	b923      	cbnz	r3, 10008bf8 <__sinit+0x18>
10008bee:	4b09      	ldr	r3, [pc, #36]	@ (10008c14 <__sinit+0x34>)
10008bf0:	4a09      	ldr	r2, [pc, #36]	@ (10008c18 <__sinit+0x38>)
10008bf2:	681b      	ldr	r3, [r3, #0]
10008bf4:	6362      	str	r2, [r4, #52]	@ 0x34
10008bf6:	b123      	cbz	r3, 10008c02 <__sinit+0x22>
10008bf8:	4805      	ldr	r0, [pc, #20]	@ (10008c10 <__sinit+0x30>)
10008bfa:	e8bd 4010 	ldmia.w	sp!, {r4, lr}
10008bfe:	f7fd befb 	b.w	100069f8 <__retarget_lock_release_recursive>
10008c02:	f7ff ff75 	bl	10008af0 <global_stdio_init.part.0>
10008c06:	4802      	ldr	r0, [pc, #8]	@ (10008c10 <__sinit+0x30>)
10008c08:	e8bd 4010 	ldmia.w	sp!, {r4, lr}
10008c0c:	f7fd bef4 	b.w	100069f8 <__retarget_lock_release_recursive>
10008c10:	2000109c 	.word	0x2000109c
10008c14:	2000120c 	.word	0x2000120c
10008c18:	10008ab1 	.word	0x10008ab1

10008c1c <__sfp_lock_acquire>:
10008c1c:	4801      	ldr	r0, [pc, #4]	@ (10008c24 <__sfp_lock_acquire+0x8>)
10008c1e:	f7fd bee9 	b.w	100069f4 <__retarget_lock_acquire_recursive>
10008c22:	bf00      	nop
10008c24:	2000109c 	.word	0x2000109c

10008c28 <__sfp_lock_release>:
10008c28:	4801      	ldr	r0, [pc, #4]	@ (10008c30 <__sfp_lock_release+0x8>)
10008c2a:	f7fd bee5 	b.w	100069f8 <__retarget_lock_release_recursive>
10008c2e:	bf00      	nop
10008c30:	2000109c 	.word	0x2000109c

10008c34 <_fread_r>:
10008c34:	e92d 4ff0 	stmdb	sp!, {r4, r5, r6, r7, r8, r9, sl, fp, lr}
10008c38:	4699      	mov	r9, r3
10008c3a:	b085      	sub	sp, #20
10008c3c:	fb02 f303 	mul.w	r3, r2, r3
10008c40:	9c0e      	ldr	r4, [sp, #56]	@ 0x38
10008c42:	9301      	str	r3, [sp, #4]
10008c44:	2b00      	cmp	r3, #0
10008c46:	d04a      	beq.n	10008cde <_fread_r+0xaa>
10008c48:	4693      	mov	fp, r2
10008c4a:	4606      	mov	r6, r0
10008c4c:	460d      	mov	r5, r1
10008c4e:	b110      	cbz	r0, 10008c56 <_fread_r+0x22>
10008c50:	6b43      	ldr	r3, [r0, #52]	@ 0x34
10008c52:	2b00      	cmp	r3, #0
10008c54:	d05b      	beq.n	10008d0e <_fread_r+0xda>
10008c56:	6e63      	ldr	r3, [r4, #100]	@ 0x64
10008c58:	f9b4 200c 	ldrsh.w	r2, [r4, #12]
10008c5c:	07d9      	lsls	r1, r3, #31
10008c5e:	d401      	bmi.n	10008c64 <_fread_r+0x30>
10008c60:	0597      	lsls	r7, r2, #22
10008c62:	d54b      	bpl.n	10008cfc <_fread_r+0xc8>
10008c64:	0490      	lsls	r0, r2, #18
10008c66:	d405      	bmi.n	10008c74 <_fread_r+0x40>
10008c68:	f442 5200 	orr.w	r2, r2, #8192	@ 0x2000
10008c6c:	f423 5300 	bic.w	r3, r3, #8192	@ 0x2000
10008c70:	81a2      	strh	r2, [r4, #12]
10008c72:	6663      	str	r3, [r4, #100]	@ 0x64
10008c74:	0499      	lsls	r1, r3, #18
10008c76:	f3c3 3240 	ubfx	r2, r3, #13, #1
10008c7a:	d434      	bmi.n	10008ce6 <_fread_r+0xb2>
10008c7c:	f8d4 a004 	ldr.w	sl, [r4, #4]
10008c80:	f1ba 0f00 	cmp.w	sl, #0
10008c84:	db46      	blt.n	10008d14 <_fread_r+0xe0>
10008c86:	4652      	mov	r2, sl
10008c88:	89a0      	ldrh	r0, [r4, #12]
10008c8a:	6821      	ldr	r1, [r4, #0]
10008c8c:	0783      	lsls	r3, r0, #30
10008c8e:	9f01      	ldr	r7, [sp, #4]
10008c90:	d443      	bmi.n	10008d1a <_fread_r+0xe6>
10008c92:	46b0      	mov	r8, r6
10008c94:	4656      	mov	r6, sl
10008c96:	e010      	b.n	10008cba <_fread_r+0x86>
10008c98:	f7fd ff9c 	bl	10006bd4 <memcpy>
10008c9c:	6823      	ldr	r3, [r4, #0]
10008c9e:	4621      	mov	r1, r4
10008ca0:	4640      	mov	r0, r8
10008ca2:	4433      	add	r3, r6
10008ca4:	4435      	add	r5, r6
10008ca6:	eba7 0a06 	sub.w	sl, r7, r6
10008caa:	6023      	str	r3, [r4, #0]
10008cac:	f000 f8d0 	bl	10008e50 <__srefill_r>
10008cb0:	2800      	cmp	r0, #0
10008cb2:	d16e      	bne.n	10008d92 <_fread_r+0x15e>
10008cb4:	6866      	ldr	r6, [r4, #4]
10008cb6:	4657      	mov	r7, sl
10008cb8:	6821      	ldr	r1, [r4, #0]
10008cba:	42be      	cmp	r6, r7
10008cbc:	4632      	mov	r2, r6
10008cbe:	4628      	mov	r0, r5
10008cc0:	d3ea      	bcc.n	10008c98 <_fread_r+0x64>
10008cc2:	463a      	mov	r2, r7
10008cc4:	f7fd ff86 	bl	10006bd4 <memcpy>
10008cc8:	f8cd 9004 	str.w	r9, [sp, #4]
10008ccc:	e9d4 3200 	ldrd	r3, r2, [r4]
10008cd0:	1bd2      	subs	r2, r2, r7
10008cd2:	441f      	add	r7, r3
10008cd4:	6e63      	ldr	r3, [r4, #100]	@ 0x64
10008cd6:	e9c4 7200 	strd	r7, r2, [r4]
10008cda:	07da      	lsls	r2, r3, #31
10008cdc:	d507      	bpl.n	10008cee <_fread_r+0xba>
10008cde:	9801      	ldr	r0, [sp, #4]
10008ce0:	b005      	add	sp, #20
10008ce2:	e8bd 8ff0 	ldmia.w	sp!, {r4, r5, r6, r7, r8, r9, sl, fp, pc}
10008ce6:	2200      	movs	r2, #0
10008ce8:	9201      	str	r2, [sp, #4]
10008cea:	07da      	lsls	r2, r3, #31
10008cec:	d4f7      	bmi.n	10008cde <_fread_r+0xaa>
10008cee:	89a3      	ldrh	r3, [r4, #12]
10008cf0:	059b      	lsls	r3, r3, #22
10008cf2:	d4f4      	bmi.n	10008cde <_fread_r+0xaa>
10008cf4:	6da0      	ldr	r0, [r4, #88]	@ 0x58
10008cf6:	f7fd fe7f 	bl	100069f8 <__retarget_lock_release_recursive>
10008cfa:	e7f0      	b.n	10008cde <_fread_r+0xaa>
10008cfc:	6da0      	ldr	r0, [r4, #88]	@ 0x58
10008cfe:	f7fd fe79 	bl	100069f4 <__retarget_lock_acquire_recursive>
10008d02:	f9b4 200c 	ldrsh.w	r2, [r4, #12]
10008d06:	6e63      	ldr	r3, [r4, #100]	@ 0x64
10008d08:	0490      	lsls	r0, r2, #18
10008d0a:	d4b3      	bmi.n	10008c74 <_fread_r+0x40>
10008d0c:	e7ac      	b.n	10008c68 <_fread_r+0x34>
10008d0e:	f7ff ff67 	bl	10008be0 <__sinit>
10008d12:	e7a0      	b.n	10008c56 <_fread_r+0x22>
10008d14:	4692      	mov	sl, r2
10008d16:	6062      	str	r2, [r4, #4]
10008d18:	e7b6      	b.n	10008c88 <_fread_r+0x54>
10008d1a:	4297      	cmp	r7, r2
10008d1c:	463b      	mov	r3, r7
10008d1e:	4628      	mov	r0, r5
10008d20:	bf28      	it	cs
10008d22:	4613      	movcs	r3, r2
10008d24:	461a      	mov	r2, r3
10008d26:	4698      	mov	r8, r3
10008d28:	f7fd ff54 	bl	10006bd4 <memcpy>
10008d2c:	6823      	ldr	r3, [r4, #0]
10008d2e:	6b21      	ldr	r1, [r4, #48]	@ 0x30
10008d30:	eba7 0708 	sub.w	r7, r7, r8
10008d34:	4443      	add	r3, r8
10008d36:	6023      	str	r3, [r4, #0]
10008d38:	6863      	ldr	r3, [r4, #4]
10008d3a:	eba3 0308 	sub.w	r3, r3, r8
10008d3e:	6063      	str	r3, [r4, #4]
10008d40:	b151      	cbz	r1, 10008d58 <_fread_r+0x124>
10008d42:	2f00      	cmp	r7, #0
10008d44:	d038      	beq.n	10008db8 <_fread_r+0x184>
10008d46:	f104 0340 	add.w	r3, r4, #64	@ 0x40
10008d4a:	4299      	cmp	r1, r3
10008d4c:	d002      	beq.n	10008d54 <_fread_r+0x120>
10008d4e:	4630      	mov	r0, r6
10008d50:	f7fe f840 	bl	10006dd4 <_free_r>
10008d54:	2300      	movs	r3, #0
10008d56:	6323      	str	r3, [r4, #48]	@ 0x30
10008d58:	4445      	add	r5, r8
10008d5a:	f04f 0a00 	mov.w	sl, #0
10008d5e:	e9cd b902 	strd	fp, r9, [sp, #8]
10008d62:	b33f      	cbz	r7, 10008db4 <_fread_r+0x180>
10008d64:	f8d4 b010 	ldr.w	fp, [r4, #16]
10008d68:	4621      	mov	r1, r4
10008d6a:	f8d4 8000 	ldr.w	r8, [r4]
10008d6e:	4630      	mov	r0, r6
10008d70:	f8d4 9014 	ldr.w	r9, [r4, #20]
10008d74:	6025      	str	r5, [r4, #0]
10008d76:	e9c4 5704 	strd	r5, r7, [r4, #16]
10008d7a:	f000 f869 	bl	10008e50 <__srefill_r>
10008d7e:	6863      	ldr	r3, [r4, #4]
10008d80:	e9c4 b904 	strd	fp, r9, [r4, #16]
10008d84:	441d      	add	r5, r3
10008d86:	1afa      	subs	r2, r7, r3
10008d88:	e9c4 8a00 	strd	r8, sl, [r4]
10008d8c:	b9c0      	cbnz	r0, 10008dc0 <_fread_r+0x18c>
10008d8e:	4617      	mov	r7, r2
10008d90:	e7e7      	b.n	10008d62 <_fread_r+0x12e>
10008d92:	6e62      	ldr	r2, [r4, #100]	@ 0x64
10008d94:	46b2      	mov	sl, r6
10008d96:	07d0      	lsls	r0, r2, #31
10008d98:	d402      	bmi.n	10008da0 <_fread_r+0x16c>
10008d9a:	89a2      	ldrh	r2, [r4, #12]
10008d9c:	0591      	lsls	r1, r2, #22
10008d9e:	d523      	bpl.n	10008de8 <_fread_r+0x1b4>
10008da0:	9b01      	ldr	r3, [sp, #4]
10008da2:	4453      	add	r3, sl
10008da4:	1bdb      	subs	r3, r3, r7
10008da6:	fbb3 f3fb 	udiv	r3, r3, fp
10008daa:	9301      	str	r3, [sp, #4]
10008dac:	9801      	ldr	r0, [sp, #4]
10008dae:	b005      	add	sp, #20
10008db0:	e8bd 8ff0 	ldmia.w	sp!, {r4, r5, r6, r7, r8, r9, sl, fp, pc}
10008db4:	f8dd 900c 	ldr.w	r9, [sp, #12]
10008db8:	6e63      	ldr	r3, [r4, #100]	@ 0x64
10008dba:	f8cd 9004 	str.w	r9, [sp, #4]
10008dbe:	e794      	b.n	10008cea <_fread_r+0xb6>
10008dc0:	6e62      	ldr	r2, [r4, #100]	@ 0x64
10008dc2:	f8dd b008 	ldr.w	fp, [sp, #8]
10008dc6:	07d6      	lsls	r6, r2, #31
10008dc8:	d407      	bmi.n	10008dda <_fread_r+0x1a6>
10008dca:	89a2      	ldrh	r2, [r4, #12]
10008dcc:	0595      	lsls	r5, r2, #22
10008dce:	d404      	bmi.n	10008dda <_fread_r+0x1a6>
10008dd0:	6da0      	ldr	r0, [r4, #88]	@ 0x58
10008dd2:	9302      	str	r3, [sp, #8]
10008dd4:	f7fd fe10 	bl	100069f8 <__retarget_lock_release_recursive>
10008dd8:	9b02      	ldr	r3, [sp, #8]
10008dda:	9a01      	ldr	r2, [sp, #4]
10008ddc:	4413      	add	r3, r2
10008dde:	1bdb      	subs	r3, r3, r7
10008de0:	fbb3 f3fb 	udiv	r3, r3, fp
10008de4:	9301      	str	r3, [sp, #4]
10008de6:	e77a      	b.n	10008cde <_fread_r+0xaa>
10008de8:	6da0      	ldr	r0, [r4, #88]	@ 0x58
10008dea:	f7fd fe05 	bl	100069f8 <__retarget_lock_release_recursive>
10008dee:	e7d7      	b.n	10008da0 <_fread_r+0x16c>

10008df0 <_fwalk_sglue>:
10008df0:	e92d 43f8 	stmdb	sp!, {r3, r4, r5, r6, r7, r8, r9, lr}
10008df4:	f04f 0900 	mov.w	r9, #0
10008df8:	4607      	mov	r7, r0
10008dfa:	4688      	mov	r8, r1
10008dfc:	4616      	mov	r6, r2
10008dfe:	e9d6 5401 	ldrd	r5, r4, [r6, #4]
10008e02:	3d01      	subs	r5, #1
10008e04:	d40f      	bmi.n	10008e26 <_fwalk_sglue+0x36>
10008e06:	89a3      	ldrh	r3, [r4, #12]
10008e08:	2b01      	cmp	r3, #1
10008e0a:	d908      	bls.n	10008e1e <_fwalk_sglue+0x2e>
10008e0c:	f9b4 300e 	ldrsh.w	r3, [r4, #14]
10008e10:	4621      	mov	r1, r4
10008e12:	4638      	mov	r0, r7
10008e14:	3301      	adds	r3, #1
10008e16:	d002      	beq.n	10008e1e <_fwalk_sglue+0x2e>
10008e18:	47c0      	blx	r8
10008e1a:	ea49 0900 	orr.w	r9, r9, r0
10008e1e:	3d01      	subs	r5, #1
10008e20:	3468      	adds	r4, #104	@ 0x68
10008e22:	1c6b      	adds	r3, r5, #1
10008e24:	d1ef      	bne.n	10008e06 <_fwalk_sglue+0x16>
10008e26:	6836      	ldr	r6, [r6, #0]
10008e28:	2e00      	cmp	r6, #0
10008e2a:	d1e8      	bne.n	10008dfe <_fwalk_sglue+0xe>
10008e2c:	4648      	mov	r0, r9
10008e2e:	e8bd 83f8 	ldmia.w	sp!, {r3, r4, r5, r6, r7, r8, r9, pc}
10008e32:	bf00      	nop

10008e34 <lflush>:
10008e34:	898b      	ldrh	r3, [r1, #12]
10008e36:	f003 0309 	and.w	r3, r3, #9
10008e3a:	2b09      	cmp	r3, #9
10008e3c:	d001      	beq.n	10008e42 <lflush+0xe>
10008e3e:	2000      	movs	r0, #0
10008e40:	4770      	bx	lr
10008e42:	4b02      	ldr	r3, [pc, #8]	@ (10008e4c <lflush+0x18>)
10008e44:	6818      	ldr	r0, [r3, #0]
10008e46:	f001 bee7 	b.w	1000ac18 <_fflush_r>
10008e4a:	bf00      	nop
10008e4c:	20000b08 	.word	0x20000b08

10008e50 <__srefill_r>:
10008e50:	b570      	push	{r4, r5, r6, lr}
10008e52:	4605      	mov	r5, r0
10008e54:	460c      	mov	r4, r1
10008e56:	b110      	cbz	r0, 10008e5e <__srefill_r+0xe>
10008e58:	6b43      	ldr	r3, [r0, #52]	@ 0x34
10008e5a:	2b00      	cmp	r3, #0
10008e5c:	d056      	beq.n	10008f0c <__srefill_r+0xbc>
10008e5e:	f9b4 300c 	ldrsh.w	r3, [r4, #12]
10008e62:	2200      	movs	r2, #0
10008e64:	069e      	lsls	r6, r3, #26
10008e66:	6062      	str	r2, [r4, #4]
10008e68:	d459      	bmi.n	10008f1e <__srefill_r+0xce>
10008e6a:	0758      	lsls	r0, r3, #29
10008e6c:	d419      	bmi.n	10008ea2 <__srefill_r+0x52>
10008e6e:	06d9      	lsls	r1, r3, #27
10008e70:	d558      	bpl.n	10008f24 <__srefill_r+0xd4>
10008e72:	071a      	lsls	r2, r3, #28
10008e74:	d439      	bmi.n	10008eea <__srefill_r+0x9a>
10008e76:	f043 0304 	orr.w	r3, r3, #4
10008e7a:	81a3      	strh	r3, [r4, #12]
10008e7c:	6923      	ldr	r3, [r4, #16]
10008e7e:	2b00      	cmp	r3, #0
10008e80:	d03f      	beq.n	10008f02 <__srefill_r+0xb2>
10008e82:	f9b4 600c 	ldrsh.w	r6, [r4, #12]
10008e86:	07b3      	lsls	r3, r6, #30
10008e88:	d11e      	bne.n	10008ec8 <__srefill_r+0x78>
10008e8a:	6922      	ldr	r2, [r4, #16]
10008e8c:	4628      	mov	r0, r5
10008e8e:	6a26      	ldr	r6, [r4, #32]
10008e90:	6963      	ldr	r3, [r4, #20]
10008e92:	69e1      	ldr	r1, [r4, #28]
10008e94:	6022      	str	r2, [r4, #0]
10008e96:	47b0      	blx	r6
10008e98:	2800      	cmp	r0, #0
10008e9a:	6060      	str	r0, [r4, #4]
10008e9c:	dd39      	ble.n	10008f12 <__srefill_r+0xc2>
10008e9e:	2000      	movs	r0, #0
10008ea0:	bd70      	pop	{r4, r5, r6, pc}
10008ea2:	6b21      	ldr	r1, [r4, #48]	@ 0x30
10008ea4:	2900      	cmp	r1, #0
10008ea6:	d0e9      	beq.n	10008e7c <__srefill_r+0x2c>
10008ea8:	f104 0340 	add.w	r3, r4, #64	@ 0x40
10008eac:	4299      	cmp	r1, r3
10008eae:	d002      	beq.n	10008eb6 <__srefill_r+0x66>
10008eb0:	4628      	mov	r0, r5
10008eb2:	f7fd ff8f 	bl	10006dd4 <_free_r>
10008eb6:	2200      	movs	r2, #0
10008eb8:	6be3      	ldr	r3, [r4, #60]	@ 0x3c
10008eba:	6322      	str	r2, [r4, #48]	@ 0x30
10008ebc:	6063      	str	r3, [r4, #4]
10008ebe:	2b00      	cmp	r3, #0
10008ec0:	d0dc      	beq.n	10008e7c <__srefill_r+0x2c>
10008ec2:	6ba3      	ldr	r3, [r4, #56]	@ 0x38
10008ec4:	6023      	str	r3, [r4, #0]
10008ec6:	e7ea      	b.n	10008e9e <__srefill_r+0x4e>
10008ec8:	2301      	movs	r3, #1
10008eca:	4a1c      	ldr	r2, [pc, #112]	@ (10008f3c <__srefill_r+0xec>)
10008ecc:	491c      	ldr	r1, [pc, #112]	@ (10008f40 <__srefill_r+0xf0>)
10008ece:	81a3      	strh	r3, [r4, #12]
10008ed0:	481c      	ldr	r0, [pc, #112]	@ (10008f44 <__srefill_r+0xf4>)
10008ed2:	f7ff ff8d 	bl	10008df0 <_fwalk_sglue>
10008ed6:	f006 0309 	and.w	r3, r6, #9
10008eda:	81a6      	strh	r6, [r4, #12]
10008edc:	2b09      	cmp	r3, #9
10008ede:	d1d4      	bne.n	10008e8a <__srefill_r+0x3a>
10008ee0:	4621      	mov	r1, r4
10008ee2:	4628      	mov	r0, r5
10008ee4:	f001 fdfc 	bl	1000aae0 <__sflush_r>
10008ee8:	e7cf      	b.n	10008e8a <__srefill_r+0x3a>
10008eea:	4621      	mov	r1, r4
10008eec:	4628      	mov	r0, r5
10008eee:	f001 fe93 	bl	1000ac18 <_fflush_r>
10008ef2:	b9a0      	cbnz	r0, 10008f1e <__srefill_r+0xce>
10008ef4:	f9b4 300c 	ldrsh.w	r3, [r4, #12]
10008ef8:	60a0      	str	r0, [r4, #8]
10008efa:	f023 0308 	bic.w	r3, r3, #8
10008efe:	61a0      	str	r0, [r4, #24]
10008f00:	e7b9      	b.n	10008e76 <__srefill_r+0x26>
10008f02:	4621      	mov	r1, r4
10008f04:	4628      	mov	r0, r5
10008f06:	f001 feb1 	bl	1000ac6c <__smakebuf_r>
10008f0a:	e7ba      	b.n	10008e82 <__srefill_r+0x32>
10008f0c:	f7ff fe68 	bl	10008be0 <__sinit>
10008f10:	e7a5      	b.n	10008e5e <__srefill_r+0xe>
10008f12:	f9b4 300c 	ldrsh.w	r3, [r4, #12]
10008f16:	d10b      	bne.n	10008f30 <__srefill_r+0xe0>
10008f18:	f043 0320 	orr.w	r3, r3, #32
10008f1c:	81a3      	strh	r3, [r4, #12]
10008f1e:	f04f 30ff 	mov.w	r0, #4294967295
10008f22:	bd70      	pop	{r4, r5, r6, pc}
10008f24:	2209      	movs	r2, #9
10008f26:	f043 0340 	orr.w	r3, r3, #64	@ 0x40
10008f2a:	602a      	str	r2, [r5, #0]
10008f2c:	81a3      	strh	r3, [r4, #12]
10008f2e:	e7f6      	b.n	10008f1e <__srefill_r+0xce>
10008f30:	2200      	movs	r2, #0
10008f32:	f043 0340 	orr.w	r3, r3, #64	@ 0x40
10008f36:	6062      	str	r2, [r4, #4]
10008f38:	81a3      	strh	r3, [r4, #12]
10008f3a:	e7f0      	b.n	10008f1e <__srefill_r+0xce>
10008f3c:	20000c50 	.word	0x20000c50
10008f40:	10008e35 	.word	0x10008e35
10008f44:	20000b10 	.word	0x20000b10

10008f48 <__sccl>:
10008f48:	b570      	push	{r4, r5, r6, lr}
10008f4a:	780c      	ldrb	r4, [r1, #0]
10008f4c:	4684      	mov	ip, r0
10008f4e:	2c5e      	cmp	r4, #94	@ 0x5e
10008f50:	d024      	beq.n	10008f9c <__sccl+0x54>
10008f52:	2300      	movs	r3, #0
10008f54:	1c48      	adds	r0, r1, #1
10008f56:	469e      	mov	lr, r3
10008f58:	2200      	movs	r2, #0
10008f5a:	f50c 7180 	add.w	r1, ip, #256	@ 0x100
10008f5e:	f363 0207 	bfi	r2, r3, #0, #8
10008f62:	f363 220f 	bfi	r2, r3, #8, #8
10008f66:	f363 4217 	bfi	r2, r3, #16, #8
10008f6a:	f363 621f 	bfi	r2, r3, #24, #8
10008f6e:	4663      	mov	r3, ip
10008f70:	f843 2b04 	str.w	r2, [r3], #4
10008f74:	428b      	cmp	r3, r1
10008f76:	d1fb      	bne.n	10008f70 <__sccl+0x28>
10008f78:	b174      	cbz	r4, 10008f98 <__sccl+0x50>
10008f7a:	f08e 0101 	eor.w	r1, lr, #1
10008f7e:	1c45      	adds	r5, r0, #1
10008f80:	f80c 1004 	strb.w	r1, [ip, r4]
10008f84:	f815 3c01 	ldrb.w	r3, [r5, #-1]
10008f88:	2b2d      	cmp	r3, #45	@ 0x2d
10008f8a:	d00e      	beq.n	10008faa <__sccl+0x62>
10008f8c:	2b5d      	cmp	r3, #93	@ 0x5d
10008f8e:	d00a      	beq.n	10008fa6 <__sccl+0x5e>
10008f90:	b11b      	cbz	r3, 10008f9a <__sccl+0x52>
10008f92:	461c      	mov	r4, r3
10008f94:	4628      	mov	r0, r5
10008f96:	e7f2      	b.n	10008f7e <__sccl+0x36>
10008f98:	3801      	subs	r0, #1
10008f9a:	bd70      	pop	{r4, r5, r6, pc}
10008f9c:	2301      	movs	r3, #1
10008f9e:	1c88      	adds	r0, r1, #2
10008fa0:	784c      	ldrb	r4, [r1, #1]
10008fa2:	469e      	mov	lr, r3
10008fa4:	e7d8      	b.n	10008f58 <__sccl+0x10>
10008fa6:	4628      	mov	r0, r5
10008fa8:	bd70      	pop	{r4, r5, r6, pc}
10008faa:	f890 e001 	ldrb.w	lr, [r0, #1]
10008fae:	f1be 0f5d 	cmp.w	lr, #93	@ 0x5d
10008fb2:	d015      	beq.n	10008fe0 <__sccl+0x98>
10008fb4:	4574      	cmp	r4, lr
10008fb6:	dc13      	bgt.n	10008fe0 <__sccl+0x98>
10008fb8:	1c66      	adds	r6, r4, #1
10008fba:	3002      	adds	r0, #2
10008fbc:	eb0c 0206 	add.w	r2, ip, r6
10008fc0:	f802 1b01 	strb.w	r1, [r2], #1
10008fc4:	eba2 030c 	sub.w	r3, r2, ip
10008fc8:	3b01      	subs	r3, #1
10008fca:	459e      	cmp	lr, r3
10008fcc:	dcf8      	bgt.n	10008fc0 <__sccl+0x78>
10008fce:	ebae 0304 	sub.w	r3, lr, r4
10008fd2:	3502      	adds	r5, #2
10008fd4:	3b01      	subs	r3, #1
10008fd6:	4574      	cmp	r4, lr
10008fd8:	bfa8      	it	ge
10008fda:	2300      	movge	r3, #0
10008fdc:	199c      	adds	r4, r3, r6
10008fde:	e7d1      	b.n	10008f84 <__sccl+0x3c>
10008fe0:	242d      	movs	r4, #45	@ 0x2d
10008fe2:	4628      	mov	r0, r5
10008fe4:	e7cb      	b.n	10008f7e <__sccl+0x36>
10008fe6:	bf00      	nop

10008fe8 <__sread>:
10008fe8:	b510      	push	{r4, lr}
10008fea:	460c      	mov	r4, r1
10008fec:	f9b1 100e 	ldrsh.w	r1, [r1, #14]
10008ff0:	f000 f9c2 	bl	10009378 <_read_r>
10008ff4:	2800      	cmp	r0, #0
10008ff6:	db03      	blt.n	10009000 <__sread+0x18>
10008ff8:	6d23      	ldr	r3, [r4, #80]	@ 0x50
10008ffa:	4403      	add	r3, r0
10008ffc:	6523      	str	r3, [r4, #80]	@ 0x50
10008ffe:	bd10      	pop	{r4, pc}
10009000:	89a3      	ldrh	r3, [r4, #12]
10009002:	f423 5380 	bic.w	r3, r3, #4096	@ 0x1000
10009006:	81a3      	strh	r3, [r4, #12]
10009008:	bd10      	pop	{r4, pc}
1000900a:	bf00      	nop

1000900c <__swrite>:
1000900c:	e92d 41f0 	stmdb	sp!, {r4, r5, r6, r7, r8, lr}
10009010:	460c      	mov	r4, r1
10009012:	f9b1 100c 	ldrsh.w	r1, [r1, #12]
10009016:	461f      	mov	r7, r3
10009018:	4605      	mov	r5, r0
1000901a:	05cb      	lsls	r3, r1, #23
1000901c:	4616      	mov	r6, r2
1000901e:	d40b      	bmi.n	10009038 <__swrite+0x2c>
10009020:	f421 5180 	bic.w	r1, r1, #4096	@ 0x1000
10009024:	463b      	mov	r3, r7
10009026:	4632      	mov	r2, r6
10009028:	4628      	mov	r0, r5
1000902a:	81a1      	strh	r1, [r4, #12]
1000902c:	f9b4 100e 	ldrsh.w	r1, [r4, #14]
10009030:	e8bd 41f0 	ldmia.w	sp!, {r4, r5, r6, r7, r8, lr}
10009034:	f000 b9b6 	b.w	100093a4 <_write_r>
10009038:	f9b4 100e 	ldrsh.w	r1, [r4, #14]
1000903c:	2302      	movs	r3, #2
1000903e:	2200      	movs	r2, #0
10009040:	f000 f984 	bl	1000934c <_lseek_r>
10009044:	f9b4 100c 	ldrsh.w	r1, [r4, #12]
10009048:	e7ea      	b.n	10009020 <__swrite+0x14>
1000904a:	bf00      	nop

1000904c <__sseek>:
1000904c:	b510      	push	{r4, lr}
1000904e:	460c      	mov	r4, r1
10009050:	f9b1 100e 	ldrsh.w	r1, [r1, #14]
10009054:	f000 f97a 	bl	1000934c <_lseek_r>
10009058:	1c42      	adds	r2, r0, #1
1000905a:	f9b4 300c 	ldrsh.w	r3, [r4, #12]
1000905e:	d004      	beq.n	1000906a <__sseek+0x1e>
10009060:	f443 5380 	orr.w	r3, r3, #4096	@ 0x1000
10009064:	6520      	str	r0, [r4, #80]	@ 0x50
10009066:	81a3      	strh	r3, [r4, #12]
10009068:	bd10      	pop	{r4, pc}
1000906a:	f423 5380 	bic.w	r3, r3, #4096	@ 0x1000
1000906e:	81a3      	strh	r3, [r4, #12]
10009070:	bd10      	pop	{r4, pc}
10009072:	bf00      	nop

10009074 <__sclose>:
10009074:	f9b1 100e 	ldrsh.w	r1, [r1, #14]
10009078:	f000 b956 	b.w	10009328 <_close_r>

1000907c <__submore>:
1000907c:	e92d 41f0 	stmdb	sp!, {r4, r5, r6, r7, r8, lr}
10009080:	460c      	mov	r4, r1
10009082:	6b09      	ldr	r1, [r1, #48]	@ 0x30
10009084:	f104 0340 	add.w	r3, r4, #64	@ 0x40
10009088:	4299      	cmp	r1, r3
1000908a:	d014      	beq.n	100090b6 <__submore+0x3a>
1000908c:	6b66      	ldr	r6, [r4, #52]	@ 0x34
1000908e:	0077      	lsls	r7, r6, #1
10009090:	463a      	mov	r2, r7
10009092:	f7fd f9d1 	bl	10006438 <_realloc_r>
10009096:	4605      	mov	r5, r0
10009098:	b330      	cbz	r0, 100090e8 <__submore+0x6c>
1000909a:	eb00 0806 	add.w	r8, r0, r6
1000909e:	4601      	mov	r1, r0
100090a0:	4632      	mov	r2, r6
100090a2:	4640      	mov	r0, r8
100090a4:	f7fd fd96 	bl	10006bd4 <memcpy>
100090a8:	f8c4 8000 	str.w	r8, [r4]
100090ac:	e9c4 570c 	strd	r5, r7, [r4, #48]	@ 0x30
100090b0:	2000      	movs	r0, #0
100090b2:	e8bd 81f0 	ldmia.w	sp!, {r4, r5, r6, r7, r8, pc}
100090b6:	f44f 6180 	mov.w	r1, #1024	@ 0x400
100090ba:	f7fc feff 	bl	10005ebc <_malloc_r>
100090be:	b198      	cbz	r0, 100090e8 <__submore+0x6c>
100090c0:	f894 2042 	ldrb.w	r2, [r4, #66]	@ 0x42
100090c4:	f44f 6180 	mov.w	r1, #1024	@ 0x400
100090c8:	6320      	str	r0, [r4, #48]	@ 0x30
100090ca:	f200 33fd 	addw	r3, r0, #1021	@ 0x3fd
100090ce:	6361      	str	r1, [r4, #52]	@ 0x34
100090d0:	f880 23ff 	strb.w	r2, [r0, #1023]	@ 0x3ff
100090d4:	f894 2041 	ldrb.w	r2, [r4, #65]	@ 0x41
100090d8:	f880 23fe 	strb.w	r2, [r0, #1022]	@ 0x3fe
100090dc:	f894 2040 	ldrb.w	r2, [r4, #64]	@ 0x40
100090e0:	f880 23fd 	strb.w	r2, [r0, #1021]	@ 0x3fd
100090e4:	6023      	str	r3, [r4, #0]
100090e6:	e7e3      	b.n	100090b0 <__submore+0x34>
100090e8:	f04f 30ff 	mov.w	r0, #4294967295
100090ec:	e7e1      	b.n	100090b2 <__submore+0x36>
100090ee:	bf00      	nop

100090f0 <_ungetc_r>:
100090f0:	b570      	push	{r4, r5, r6, lr}
100090f2:	1c4c      	adds	r4, r1, #1
100090f4:	d039      	beq.n	1000916a <_ungetc_r+0x7a>
100090f6:	460d      	mov	r5, r1
100090f8:	4606      	mov	r6, r0
100090fa:	4614      	mov	r4, r2
100090fc:	b110      	cbz	r0, 10009104 <_ungetc_r+0x14>
100090fe:	6b43      	ldr	r3, [r0, #52]	@ 0x34
10009100:	2b00      	cmp	r3, #0
10009102:	d071      	beq.n	100091e8 <_ungetc_r+0xf8>
10009104:	6e62      	ldr	r2, [r4, #100]	@ 0x64
10009106:	f9b4 300c 	ldrsh.w	r3, [r4, #12]
1000910a:	07d1      	lsls	r1, r2, #31
1000910c:	d401      	bmi.n	10009112 <_ungetc_r+0x22>
1000910e:	059a      	lsls	r2, r3, #22
10009110:	d54d      	bpl.n	100091ae <_ungetc_r+0xbe>
10009112:	f023 0220 	bic.w	r2, r3, #32
10009116:	0758      	lsls	r0, r3, #29
10009118:	81a2      	strh	r2, [r4, #12]
1000911a:	d406      	bmi.n	1000912a <_ungetc_r+0x3a>
1000911c:	06d9      	lsls	r1, r3, #27
1000911e:	d56d      	bpl.n	100091fc <_ungetc_r+0x10c>
10009120:	071b      	lsls	r3, r3, #28
10009122:	d454      	bmi.n	100091ce <_ungetc_r+0xde>
10009124:	f042 0204 	orr.w	r2, r2, #4
10009128:	81a2      	strh	r2, [r4, #12]
1000912a:	6b22      	ldr	r2, [r4, #48]	@ 0x30
1000912c:	b2ed      	uxtb	r5, r5
1000912e:	6863      	ldr	r3, [r4, #4]
10009130:	b1f2      	cbz	r2, 10009170 <_ungetc_r+0x80>
10009132:	6b62      	ldr	r2, [r4, #52]	@ 0x34
10009134:	429a      	cmp	r2, r3
10009136:	dd0f      	ble.n	10009158 <_ungetc_r+0x68>
10009138:	6823      	ldr	r3, [r4, #0]
1000913a:	1e5a      	subs	r2, r3, #1
1000913c:	6022      	str	r2, [r4, #0]
1000913e:	f803 5c01 	strb.w	r5, [r3, #-1]
10009142:	6863      	ldr	r3, [r4, #4]
10009144:	6e62      	ldr	r2, [r4, #100]	@ 0x64
10009146:	3301      	adds	r3, #1
10009148:	07d2      	lsls	r2, r2, #31
1000914a:	6063      	str	r3, [r4, #4]
1000914c:	d402      	bmi.n	10009154 <_ungetc_r+0x64>
1000914e:	89a3      	ldrh	r3, [r4, #12]
10009150:	059b      	lsls	r3, r3, #22
10009152:	d537      	bpl.n	100091c4 <_ungetc_r+0xd4>
10009154:	4628      	mov	r0, r5
10009156:	bd70      	pop	{r4, r5, r6, pc}
10009158:	4621      	mov	r1, r4
1000915a:	4630      	mov	r0, r6
1000915c:	f7ff ff8e 	bl	1000907c <__submore>
10009160:	2800      	cmp	r0, #0
10009162:	d0e9      	beq.n	10009138 <_ungetc_r+0x48>
10009164:	6e63      	ldr	r3, [r4, #100]	@ 0x64
10009166:	07d8      	lsls	r0, r3, #31
10009168:	d551      	bpl.n	1000920e <_ungetc_r+0x11e>
1000916a:	f04f 35ff 	mov.w	r5, #4294967295
1000916e:	e7f1      	b.n	10009154 <_ungetc_r+0x64>
10009170:	6e62      	ldr	r2, [r4, #100]	@ 0x64
10009172:	6920      	ldr	r0, [r4, #16]
10009174:	6821      	ldr	r1, [r4, #0]
10009176:	f002 0201 	and.w	r2, r2, #1
1000917a:	b128      	cbz	r0, 10009188 <_ungetc_r+0x98>
1000917c:	4288      	cmp	r0, r1
1000917e:	d203      	bcs.n	10009188 <_ungetc_r+0x98>
10009180:	f811 0c01 	ldrb.w	r0, [r1, #-1]
10009184:	42a8      	cmp	r0, r5
10009186:	d032      	beq.n	100091ee <_ungetc_r+0xfe>
10009188:	63a1      	str	r1, [r4, #56]	@ 0x38
1000918a:	2103      	movs	r1, #3
1000918c:	63e3      	str	r3, [r4, #60]	@ 0x3c
1000918e:	f104 0040 	add.w	r0, r4, #64	@ 0x40
10009192:	4623      	mov	r3, r4
10009194:	6361      	str	r1, [r4, #52]	@ 0x34
10009196:	2101      	movs	r1, #1
10009198:	6320      	str	r0, [r4, #48]	@ 0x30
1000919a:	f803 5f42 	strb.w	r5, [r3, #66]!
1000919e:	e9c4 3100 	strd	r3, r1, [r4]
100091a2:	2a00      	cmp	r2, #0
100091a4:	d1d6      	bne.n	10009154 <_ungetc_r+0x64>
100091a6:	89a3      	ldrh	r3, [r4, #12]
100091a8:	059b      	lsls	r3, r3, #22
100091aa:	d4d3      	bmi.n	10009154 <_ungetc_r+0x64>
100091ac:	e00a      	b.n	100091c4 <_ungetc_r+0xd4>
100091ae:	6da0      	ldr	r0, [r4, #88]	@ 0x58
100091b0:	f7fd fc20 	bl	100069f4 <__retarget_lock_acquire_recursive>
100091b4:	f9b4 300c 	ldrsh.w	r3, [r4, #12]
100091b8:	f023 0220 	bic.w	r2, r3, #32
100091bc:	0758      	lsls	r0, r3, #29
100091be:	81a2      	strh	r2, [r4, #12]
100091c0:	d4b3      	bmi.n	1000912a <_ungetc_r+0x3a>
100091c2:	e7ab      	b.n	1000911c <_ungetc_r+0x2c>
100091c4:	6da0      	ldr	r0, [r4, #88]	@ 0x58
100091c6:	f7fd fc17 	bl	100069f8 <__retarget_lock_release_recursive>
100091ca:	4628      	mov	r0, r5
100091cc:	bd70      	pop	{r4, r5, r6, pc}
100091ce:	4621      	mov	r1, r4
100091d0:	4630      	mov	r0, r6
100091d2:	f001 fd21 	bl	1000ac18 <_fflush_r>
100091d6:	2800      	cmp	r0, #0
100091d8:	d1c4      	bne.n	10009164 <_ungetc_r+0x74>
100091da:	f9b4 200c 	ldrsh.w	r2, [r4, #12]
100091de:	60a0      	str	r0, [r4, #8]
100091e0:	f022 0208 	bic.w	r2, r2, #8
100091e4:	61a0      	str	r0, [r4, #24]
100091e6:	e79d      	b.n	10009124 <_ungetc_r+0x34>
100091e8:	f7ff fcfa 	bl	10008be0 <__sinit>
100091ec:	e78a      	b.n	10009104 <_ungetc_r+0x14>
100091ee:	3901      	subs	r1, #1
100091f0:	3301      	adds	r3, #1
100091f2:	e9c4 1300 	strd	r1, r3, [r4]
100091f6:	2a00      	cmp	r2, #0
100091f8:	d1ac      	bne.n	10009154 <_ungetc_r+0x64>
100091fa:	e7a8      	b.n	1000914e <_ungetc_r+0x5e>
100091fc:	6e62      	ldr	r2, [r4, #100]	@ 0x64
100091fe:	07d2      	lsls	r2, r2, #31
10009200:	d4b3      	bmi.n	1000916a <_ungetc_r+0x7a>
10009202:	0599      	lsls	r1, r3, #22
10009204:	d4b1      	bmi.n	1000916a <_ungetc_r+0x7a>
10009206:	6da0      	ldr	r0, [r4, #88]	@ 0x58
10009208:	f7fd fbf6 	bl	100069f8 <__retarget_lock_release_recursive>
1000920c:	e7ad      	b.n	1000916a <_ungetc_r+0x7a>
1000920e:	89a3      	ldrh	r3, [r4, #12]
10009210:	e7f7      	b.n	10009202 <_ungetc_r+0x112>
10009212:	bf00      	nop

10009214 <strncmp>:
10009214:	b3ca      	cbz	r2, 1000928a <strncmp+0x76>
10009216:	4684      	mov	ip, r0
10009218:	460b      	mov	r3, r1
1000921a:	b530      	push	{r4, r5, lr}
1000921c:	4604      	mov	r4, r0
1000921e:	4308      	orrs	r0, r1
10009220:	0780      	lsls	r0, r0, #30
10009222:	d019      	beq.n	10009258 <strncmp+0x44>
10009224:	f89c 0000 	ldrb.w	r0, [ip]
10009228:	780c      	ldrb	r4, [r1, #0]
1000922a:	42a0      	cmp	r0, r4
1000922c:	d112      	bne.n	10009254 <strncmp+0x40>
1000922e:	b350      	cbz	r0, 10009286 <strncmp+0x72>
10009230:	2a01      	cmp	r2, #1
10009232:	d028      	beq.n	10009286 <strncmp+0x72>
10009234:	46e6      	mov	lr, ip
10009236:	e003      	b.n	10009240 <strncmp+0x2c>
10009238:	eb1c 0f03 	cmn.w	ip, r3
1000923c:	d023      	beq.n	10009286 <strncmp+0x72>
1000923e:	b310      	cbz	r0, 10009286 <strncmp+0x72>
10009240:	f81e 0f01 	ldrb.w	r0, [lr, #1]!
10009244:	f811 4f01 	ldrb.w	r4, [r1, #1]!
10009248:	eba2 030e 	sub.w	r3, r2, lr
1000924c:	42a0      	cmp	r0, r4
1000924e:	f103 33ff 	add.w	r3, r3, #4294967295
10009252:	d0f1      	beq.n	10009238 <strncmp+0x24>
10009254:	1b00      	subs	r0, r0, r4
10009256:	bd30      	pop	{r4, r5, pc}
10009258:	2a03      	cmp	r2, #3
1000925a:	d807      	bhi.n	1000926c <strncmp+0x58>
1000925c:	e7e2      	b.n	10009224 <strncmp+0x10>
1000925e:	3a04      	subs	r2, #4
10009260:	d011      	beq.n	10009286 <strncmp+0x72>
10009262:	f01e 3f80 	tst.w	lr, #2155905152	@ 0x80808080
10009266:	d10e      	bne.n	10009286 <strncmp+0x72>
10009268:	2a03      	cmp	r2, #3
1000926a:	d910      	bls.n	1000928e <strncmp+0x7a>
1000926c:	6820      	ldr	r0, [r4, #0]
1000926e:	4619      	mov	r1, r3
10009270:	f853 5b04 	ldr.w	r5, [r3], #4
10009274:	46a4      	mov	ip, r4
10009276:	f1a0 3e01 	sub.w	lr, r0, #16843009	@ 0x1010101
1000927a:	3404      	adds	r4, #4
1000927c:	42a8      	cmp	r0, r5
1000927e:	ea2e 0e00 	bic.w	lr, lr, r0
10009282:	d0ec      	beq.n	1000925e <strncmp+0x4a>
10009284:	e7ce      	b.n	10009224 <strncmp+0x10>
10009286:	2000      	movs	r0, #0
10009288:	bd30      	pop	{r4, r5, pc}
1000928a:	4610      	mov	r0, r2
1000928c:	4770      	bx	lr
1000928e:	46a4      	mov	ip, r4
10009290:	4619      	mov	r1, r3
10009292:	e7c7      	b.n	10009224 <strncmp+0x10>

10009294 <stpncpy>:
10009294:	ea40 0301 	orr.w	r3, r0, r1
10009298:	079b      	lsls	r3, r3, #30
1000929a:	b410      	push	{r4}
1000929c:	4604      	mov	r4, r0
1000929e:	d101      	bne.n	100092a4 <stpncpy+0x10>
100092a0:	2a03      	cmp	r2, #3
100092a2:	d81c      	bhi.n	100092de <stpncpy+0x4a>
100092a4:	f101 3cff 	add.w	ip, r1, #4294967295
100092a8:	e007      	b.n	100092ba <stpncpy+0x26>
100092aa:	f81c 1f01 	ldrb.w	r1, [ip, #1]!
100092ae:	1e50      	subs	r0, r2, #1
100092b0:	f803 1b01 	strb.w	r1, [r3], #1
100092b4:	b141      	cbz	r1, 100092c8 <stpncpy+0x34>
100092b6:	4602      	mov	r2, r0
100092b8:	461c      	mov	r4, r3
100092ba:	4623      	mov	r3, r4
100092bc:	2a00      	cmp	r2, #0
100092be:	d1f4      	bne.n	100092aa <stpncpy+0x16>
100092c0:	4620      	mov	r0, r4
100092c2:	f85d 4b04 	ldr.w	r4, [sp], #4
100092c6:	4770      	bx	lr
100092c8:	b1f8      	cbz	r0, 1000930a <stpncpy+0x76>
100092ca:	18a0      	adds	r0, r4, r2
100092cc:	f803 1b01 	strb.w	r1, [r3], #1
100092d0:	4283      	cmp	r3, r0
100092d2:	d1fb      	bne.n	100092cc <stpncpy+0x38>
100092d4:	2c00      	cmp	r4, #0
100092d6:	d1f3      	bne.n	100092c0 <stpncpy+0x2c>
100092d8:	f85d 4b04 	ldr.w	r4, [sp], #4
100092dc:	4770      	bx	lr
100092de:	468c      	mov	ip, r1
100092e0:	e004      	b.n	100092ec <stpncpy+0x58>
100092e2:	3a04      	subs	r2, #4
100092e4:	f844 0b04 	str.w	r0, [r4], #4
100092e8:	2a03      	cmp	r2, #3
100092ea:	d90c      	bls.n	10009306 <stpncpy+0x72>
100092ec:	f8dc 0000 	ldr.w	r0, [ip]
100092f0:	4661      	mov	r1, ip
100092f2:	f10c 0c04 	add.w	ip, ip, #4
100092f6:	f1a0 3301 	sub.w	r3, r0, #16843009	@ 0x1010101
100092fa:	ea23 0300 	bic.w	r3, r3, r0
100092fe:	f013 3f80 	tst.w	r3, #2155905152	@ 0x80808080
10009302:	d0ee      	beq.n	100092e2 <stpncpy+0x4e>
10009304:	e7ce      	b.n	100092a4 <stpncpy+0x10>
10009306:	4661      	mov	r1, ip
10009308:	e7cc      	b.n	100092a4 <stpncpy+0x10>
1000930a:	4618      	mov	r0, r3
1000930c:	2c00      	cmp	r4, #0
1000930e:	d1d7      	bne.n	100092c0 <stpncpy+0x2c>
10009310:	e7e2      	b.n	100092d8 <stpncpy+0x44>
10009312:	bf00      	nop

10009314 <__locale_mb_cur_max>:
10009314:	4b01      	ldr	r3, [pc, #4]	@ (1000931c <__locale_mb_cur_max+0x8>)
10009316:	f893 0128 	ldrb.w	r0, [r3, #296]	@ 0x128
1000931a:	4770      	bx	lr
1000931c:	20000c5c 	.word	0x20000c5c

10009320 <_localeconv_r>:
10009320:	4800      	ldr	r0, [pc, #0]	@ (10009324 <_localeconv_r+0x4>)
10009322:	4770      	bx	lr
10009324:	20000d4c 	.word	0x20000d4c

10009328 <_close_r>:
10009328:	b538      	push	{r3, r4, r5, lr}
1000932a:	2200      	movs	r2, #0
1000932c:	4d06      	ldr	r5, [pc, #24]	@ (10009348 <_close_r+0x20>)
1000932e:	4604      	mov	r4, r0
10009330:	4608      	mov	r0, r1
10009332:	602a      	str	r2, [r5, #0]
10009334:	f7fc f822 	bl	1000537c <_close>
10009338:	1c43      	adds	r3, r0, #1
1000933a:	d000      	beq.n	1000933e <_close_r+0x16>
1000933c:	bd38      	pop	{r3, r4, r5, pc}
1000933e:	682b      	ldr	r3, [r5, #0]
10009340:	2b00      	cmp	r3, #0
10009342:	d0fb      	beq.n	1000933c <_close_r+0x14>
10009344:	6023      	str	r3, [r4, #0]
10009346:	bd38      	pop	{r3, r4, r5, pc}
10009348:	200012f8 	.word	0x200012f8

1000934c <_lseek_r>:
1000934c:	b538      	push	{r3, r4, r5, lr}
1000934e:	460c      	mov	r4, r1
10009350:	4684      	mov	ip, r0
10009352:	4611      	mov	r1, r2
10009354:	4d07      	ldr	r5, [pc, #28]	@ (10009374 <_lseek_r+0x28>)
10009356:	461a      	mov	r2, r3
10009358:	2300      	movs	r3, #0
1000935a:	4620      	mov	r0, r4
1000935c:	4664      	mov	r4, ip
1000935e:	602b      	str	r3, [r5, #0]
10009360:	f7fc f810 	bl	10005384 <_lseek>
10009364:	1c43      	adds	r3, r0, #1
10009366:	d000      	beq.n	1000936a <_lseek_r+0x1e>
10009368:	bd38      	pop	{r3, r4, r5, pc}
1000936a:	682b      	ldr	r3, [r5, #0]
1000936c:	2b00      	cmp	r3, #0
1000936e:	d0fb      	beq.n	10009368 <_lseek_r+0x1c>
10009370:	6023      	str	r3, [r4, #0]
10009372:	bd38      	pop	{r3, r4, r5, pc}
10009374:	200012f8 	.word	0x200012f8

10009378 <_read_r>:
10009378:	b538      	push	{r3, r4, r5, lr}
1000937a:	460c      	mov	r4, r1
1000937c:	4684      	mov	ip, r0
1000937e:	4611      	mov	r1, r2
10009380:	4d07      	ldr	r5, [pc, #28]	@ (100093a0 <_read_r+0x28>)
10009382:	461a      	mov	r2, r3
10009384:	2300      	movs	r3, #0
10009386:	4620      	mov	r0, r4
10009388:	4664      	mov	r4, ip
1000938a:	602b      	str	r3, [r5, #0]
1000938c:	f7fb ffd8 	bl	10005340 <_read>
10009390:	1c43      	adds	r3, r0, #1
10009392:	d000      	beq.n	10009396 <_read_r+0x1e>
10009394:	bd38      	pop	{r3, r4, r5, pc}
10009396:	682b      	ldr	r3, [r5, #0]
10009398:	2b00      	cmp	r3, #0
1000939a:	d0fb      	beq.n	10009394 <_read_r+0x1c>
1000939c:	6023      	str	r3, [r4, #0]
1000939e:	bd38      	pop	{r3, r4, r5, pc}
100093a0:	200012f8 	.word	0x200012f8

100093a4 <_write_r>:
100093a4:	b538      	push	{r3, r4, r5, lr}
100093a6:	460c      	mov	r4, r1
100093a8:	4684      	mov	ip, r0
100093aa:	4611      	mov	r1, r2
100093ac:	4d07      	ldr	r5, [pc, #28]	@ (100093cc <_write_r+0x28>)
100093ae:	461a      	mov	r2, r3
100093b0:	2300      	movs	r3, #0
100093b2:	4620      	mov	r0, r4
100093b4:	4664      	mov	r4, ip
100093b6:	602b      	str	r3, [r5, #0]
100093b8:	f7fb ffd0 	bl	1000535c <_write>
100093bc:	1c43      	adds	r3, r0, #1
100093be:	d000      	beq.n	100093c2 <_write_r+0x1e>
100093c0:	bd38      	pop	{r3, r4, r5, pc}
100093c2:	682b      	ldr	r3, [r5, #0]
100093c4:	2b00      	cmp	r3, #0
100093c6:	d0fb      	beq.n	100093c0 <_write_r+0x1c>
100093c8:	6023      	str	r3, [r4, #0]
100093ca:	bd38      	pop	{r3, r4, r5, pc}
100093cc:	200012f8 	.word	0x200012f8

100093d0 <nanf>:
100093d0:	4800      	ldr	r0, [pc, #0]	@ (100093d4 <nanf+0x4>)
100093d2:	4770      	bx	lr
100093d4:	7fc00000 	.word	0x7fc00000

100093d8 <__ascii_mbtowc>:
100093d8:	b082      	sub	sp, #8
100093da:	b149      	cbz	r1, 100093f0 <__ascii_mbtowc+0x18>
100093dc:	b15a      	cbz	r2, 100093f6 <__ascii_mbtowc+0x1e>
100093de:	b16b      	cbz	r3, 100093fc <__ascii_mbtowc+0x24>
100093e0:	7813      	ldrb	r3, [r2, #0]
100093e2:	600b      	str	r3, [r1, #0]
100093e4:	7812      	ldrb	r2, [r2, #0]
100093e6:	1e10      	subs	r0, r2, #0
100093e8:	bf18      	it	ne
100093ea:	2001      	movne	r0, #1
100093ec:	b002      	add	sp, #8
100093ee:	4770      	bx	lr
100093f0:	a901      	add	r1, sp, #4
100093f2:	2a00      	cmp	r2, #0
100093f4:	d1f3      	bne.n	100093de <__ascii_mbtowc+0x6>
100093f6:	4610      	mov	r0, r2
100093f8:	b002      	add	sp, #8
100093fa:	4770      	bx	lr
100093fc:	f06f 0001 	mvn.w	r0, #1
10009400:	e7f4      	b.n	100093ec <__ascii_mbtowc+0x14>
10009402:	bf00      	nop
10009404:	0000      	movs	r0, r0
	...

10009408 <_strtod_l>:
10009408:	e92d 4ff0 	stmdb	sp!, {r4, r5, r6, r7, r8, r9, sl, fp, lr}
1000940c:	4688      	mov	r8, r1
1000940e:	b09f      	sub	sp, #124	@ 0x7c
10009410:	2100      	movs	r1, #0
10009412:	4683      	mov	fp, r0
10009414:	9207      	str	r2, [sp, #28]
10009416:	2200      	movs	r2, #0
10009418:	911a      	str	r1, [sp, #104]	@ 0x68
1000941a:	2100      	movs	r1, #0
1000941c:	e9cd 1204 	strd	r1, r2, [sp, #16]
10009420:	4642      	mov	r2, r8
10009422:	4617      	mov	r7, r2
10009424:	9219      	str	r2, [sp, #100]	@ 0x64
10009426:	f812 9b01 	ldrb.w	r9, [r2], #1
1000942a:	f1b9 0f2d 	cmp.w	r9, #45	@ 0x2d
1000942e:	d85f      	bhi.n	100094f0 <_strtod_l+0xe8>
10009430:	a101      	add	r1, pc, #4	@ (adr r1, 10009438 <_strtod_l+0x30>)
10009432:	f851 f029 	ldr.w	pc, [r1, r9, lsl #2]
10009436:	bf00      	nop
10009438:	10009585 	.word	0x10009585
1000943c:	100094f1 	.word	0x100094f1
10009440:	100094f1 	.word	0x100094f1
10009444:	100094f1 	.word	0x100094f1
10009448:	100094f1 	.word	0x100094f1
1000944c:	100094f1 	.word	0x100094f1
10009450:	100094f1 	.word	0x100094f1
10009454:	100094f1 	.word	0x100094f1
10009458:	100094f1 	.word	0x100094f1
1000945c:	10009423 	.word	0x10009423
10009460:	10009423 	.word	0x10009423
10009464:	10009423 	.word	0x10009423
10009468:	10009423 	.word	0x10009423
1000946c:	10009423 	.word	0x10009423
10009470:	100094f1 	.word	0x100094f1
10009474:	100094f1 	.word	0x100094f1
10009478:	100094f1 	.word	0x100094f1
1000947c:	100094f1 	.word	0x100094f1
10009480:	100094f1 	.word	0x100094f1
10009484:	100094f1 	.word	0x100094f1
10009488:	100094f1 	.word	0x100094f1
1000948c:	100094f1 	.word	0x100094f1
10009490:	100094f1 	.word	0x100094f1
10009494:	100094f1 	.word	0x100094f1
10009498:	100094f1 	.word	0x100094f1
1000949c:	100094f1 	.word	0x100094f1
100094a0:	100094f1 	.word	0x100094f1
100094a4:	100094f1 	.word	0x100094f1
100094a8:	100094f1 	.word	0x100094f1
100094ac:	100094f1 	.word	0x100094f1
100094b0:	100094f1 	.word	0x100094f1
100094b4:	100094f1 	.word	0x100094f1
100094b8:	10009423 	.word	0x10009423
100094bc:	100094f1 	.word	0x100094f1
100094c0:	100094f1 	.word	0x100094f1
100094c4:	100094f1 	.word	0x100094f1
100094c8:	100094f1 	.word	0x100094f1
100094cc:	100094f1 	.word	0x100094f1
100094d0:	100094f1 	.word	0x100094f1
100094d4:	100094f1 	.word	0x100094f1
100094d8:	100094f1 	.word	0x100094f1
100094dc:	100094f1 	.word	0x100094f1
100094e0:	100094f1 	.word	0x100094f1
100094e4:	10009af3 	.word	0x10009af3
100094e8:	100094f1 	.word	0x100094f1
100094ec:	10009b0b 	.word	0x10009b0b
100094f0:	2200      	movs	r2, #0
100094f2:	9208      	str	r2, [sp, #32]
100094f4:	f1b9 0f30 	cmp.w	r9, #48	@ 0x30
100094f8:	d07e      	beq.n	100095f8 <_strtod_l+0x1f0>
100094fa:	2300      	movs	r3, #0
100094fc:	930a      	str	r3, [sp, #40]	@ 0x28
100094fe:	f1a9 0330 	sub.w	r3, r9, #48	@ 0x30
10009502:	2b09      	cmp	r3, #9
10009504:	f200 8434 	bhi.w	10009d70 <_strtod_l+0x968>
10009508:	2500      	movs	r5, #0
1000950a:	4638      	mov	r0, r7
1000950c:	462e      	mov	r6, r5
1000950e:	462c      	mov	r4, r5
10009510:	3001      	adds	r0, #1
10009512:	2c08      	cmp	r4, #8
10009514:	eb05 0285 	add.w	r2, r5, r5, lsl #2
10009518:	f104 0401 	add.w	r4, r4, #1
1000951c:	eb06 0186 	add.w	r1, r6, r6, lsl #2
10009520:	9019      	str	r0, [sp, #100]	@ 0x64
10009522:	f890 9000 	ldrb.w	r9, [r0]
10009526:	bfcc      	ite	gt
10009528:	eb03 0542 	addgt.w	r5, r3, r2, lsl #1
1000952c:	eb03 0641 	addle.w	r6, r3, r1, lsl #1
10009530:	f1a9 0330 	sub.w	r3, r9, #48	@ 0x30
10009534:	2b09      	cmp	r3, #9
10009536:	d9eb      	bls.n	10009510 <_strtod_l+0x108>
10009538:	2201      	movs	r2, #1
1000953a:	49a3      	ldr	r1, [pc, #652]	@ (100097c8 <_strtod_l+0x3c0>)
1000953c:	f7ff fe6a 	bl	10009214 <strncmp>
10009540:	bb58      	cbnz	r0, 1000959a <_strtod_l+0x192>
10009542:	9b19      	ldr	r3, [sp, #100]	@ 0x64
10009544:	46a2      	mov	sl, r4
10009546:	9009      	str	r0, [sp, #36]	@ 0x24
10009548:	1c5a      	adds	r2, r3, #1
1000954a:	9219      	str	r2, [sp, #100]	@ 0x64
1000954c:	785b      	ldrb	r3, [r3, #1]
1000954e:	f1a3 0230 	sub.w	r2, r3, #48	@ 0x30
10009552:	2a09      	cmp	r2, #9
10009554:	d809      	bhi.n	1000956a <_strtod_l+0x162>
10009556:	3001      	adds	r0, #1
10009558:	4691      	mov	r9, r2
1000955a:	9919      	ldr	r1, [sp, #100]	@ 0x64
1000955c:	2a00      	cmp	r2, #0
1000955e:	f040 84d4 	bne.w	10009f0a <_strtod_l+0xb02>
10009562:	1c4b      	adds	r3, r1, #1
10009564:	9319      	str	r3, [sp, #100]	@ 0x64
10009566:	784b      	ldrb	r3, [r1, #1]
10009568:	e7f1      	b.n	1000954e <_strtod_l+0x146>
1000956a:	f04f 0901 	mov.w	r9, #1
1000956e:	f023 0220 	bic.w	r2, r3, #32
10009572:	2a45      	cmp	r2, #69	@ 0x45
10009574:	f040 82b7 	bne.w	10009ae6 <_strtod_l+0x6de>
10009578:	ea44 0300 	orr.w	r3, r4, r0
1000957c:	9a0a      	ldr	r2, [sp, #40]	@ 0x28
1000957e:	4313      	orrs	r3, r2
10009580:	f040 8250 	bne.w	10009a24 <_strtod_l+0x61c>
10009584:	9b07      	ldr	r3, [sp, #28]
10009586:	2600      	movs	r6, #0
10009588:	2700      	movs	r7, #0
1000958a:	b10b      	cbz	r3, 10009590 <_strtod_l+0x188>
1000958c:	f8c3 8000 	str.w	r8, [r3]
10009590:	4630      	mov	r0, r6
10009592:	4639      	mov	r1, r7
10009594:	b01f      	add	sp, #124	@ 0x7c
10009596:	e8bd 8ff0 	ldmia.w	sp!, {r4, r5, r6, r7, r8, r9, sl, fp, pc}
1000959a:	f029 0220 	bic.w	r2, r9, #32
1000959e:	2000      	movs	r0, #0
100095a0:	464b      	mov	r3, r9
100095a2:	46a2      	mov	sl, r4
100095a4:	2a45      	cmp	r2, #69	@ 0x45
100095a6:	4681      	mov	r9, r0
100095a8:	9009      	str	r0, [sp, #36]	@ 0x24
100095aa:	f000 823b 	beq.w	10009a24 <_strtod_l+0x61c>
100095ae:	900e      	str	r0, [sp, #56]	@ 0x38
100095b0:	2c00      	cmp	r4, #0
100095b2:	d135      	bne.n	10009620 <_strtod_l+0x218>
100095b4:	9a0a      	ldr	r2, [sp, #40]	@ 0x28
100095b6:	4302      	orrs	r2, r0
100095b8:	f040 8283 	bne.w	10009ac2 <_strtod_l+0x6ba>
100095bc:	f1b9 0f00 	cmp.w	r9, #0
100095c0:	d1e0      	bne.n	10009584 <_strtod_l+0x17c>
100095c2:	2b69      	cmp	r3, #105	@ 0x69
100095c4:	f000 84cc 	beq.w	10009f60 <_strtod_l+0xb58>
100095c8:	f300 831f 	bgt.w	10009c0a <_strtod_l+0x802>
100095cc:	2b49      	cmp	r3, #73	@ 0x49
100095ce:	f000 84c7 	beq.w	10009f60 <_strtod_l+0xb58>
100095d2:	2b4e      	cmp	r3, #78	@ 0x4e
100095d4:	d1d6      	bne.n	10009584 <_strtod_l+0x17c>
100095d6:	497d      	ldr	r1, [pc, #500]	@ (100097cc <_strtod_l+0x3c4>)
100095d8:	a819      	add	r0, sp, #100	@ 0x64
100095da:	f001 ff03 	bl	1000b3e4 <__match>
100095de:	2800      	cmp	r0, #0
100095e0:	d0d0      	beq.n	10009584 <_strtod_l+0x17c>
100095e2:	9b19      	ldr	r3, [sp, #100]	@ 0x64
100095e4:	781b      	ldrb	r3, [r3, #0]
100095e6:	2b28      	cmp	r3, #40	@ 0x28
100095e8:	f000 8583 	beq.w	1000a0f2 <_strtod_l+0xcea>
100095ec:	4878      	ldr	r0, [pc, #480]	@ (100097d0 <_strtod_l+0x3c8>)
100095ee:	f001 fbd3 	bl	1000ad98 <nan>
100095f2:	4606      	mov	r6, r0
100095f4:	460f      	mov	r7, r1
100095f6:	e266      	b.n	10009ac6 <_strtod_l+0x6be>
100095f8:	787a      	ldrb	r2, [r7, #1]
100095fa:	f002 02df 	and.w	r2, r2, #223	@ 0xdf
100095fe:	2a58      	cmp	r2, #88	@ 0x58
10009600:	f000 843f 	beq.w	10009e82 <_strtod_l+0xa7a>
10009604:	3701      	adds	r7, #1
10009606:	9719      	str	r7, [sp, #100]	@ 0x64
10009608:	f897 9000 	ldrb.w	r9, [r7]
1000960c:	f1b9 0f30 	cmp.w	r9, #48	@ 0x30
10009610:	d0f8      	beq.n	10009604 <_strtod_l+0x1fc>
10009612:	f1b9 0f00 	cmp.w	r9, #0
10009616:	f000 8254 	beq.w	10009ac2 <_strtod_l+0x6ba>
1000961a:	2301      	movs	r3, #1
1000961c:	930a      	str	r3, [sp, #40]	@ 0x28
1000961e:	e76e      	b.n	100094fe <_strtod_l+0xf6>
10009620:	9a09      	ldr	r2, [sp, #36]	@ 0x24
10009622:	f1ba 0f00 	cmp.w	sl, #0
10009626:	bf08      	it	eq
10009628:	46a2      	moveq	sl, r4
1000962a:	9b0e      	ldr	r3, [sp, #56]	@ 0x38
1000962c:	2c10      	cmp	r4, #16
1000962e:	4630      	mov	r0, r6
10009630:	46a0      	mov	r8, r4
10009632:	eba3 0302 	sub.w	r3, r3, r2
10009636:	bfa8      	it	ge
10009638:	f04f 0810 	movge.w	r8, #16
1000963c:	930d      	str	r3, [sp, #52]	@ 0x34
1000963e:	f7fa f90f 	bl	10003860 <__wrap___aeabi_ui2d>
10009642:	2c09      	cmp	r4, #9
10009644:	4602      	mov	r2, r0
10009646:	460b      	mov	r3, r1
10009648:	e9cd 2304 	strd	r2, r3, [sp, #16]
1000964c:	dd17      	ble.n	1000967e <_strtod_l+0x276>
1000964e:	4b61      	ldr	r3, [pc, #388]	@ (100097d4 <_strtod_l+0x3cc>)
10009650:	eb03 03c8 	add.w	r3, r3, r8, lsl #3
10009654:	e953 2312 	ldrd	r2, r3, [r3, #-72]	@ 0x48
10009658:	f7fa f86e 	bl	10003738 <__wrap___aeabi_dmul>
1000965c:	4602      	mov	r2, r0
1000965e:	460b      	mov	r3, r1
10009660:	4628      	mov	r0, r5
10009662:	e9cd 2304 	strd	r2, r3, [sp, #16]
10009666:	f7fa f8fb 	bl	10003860 <__wrap___aeabi_ui2d>
1000966a:	4602      	mov	r2, r0
1000966c:	460b      	mov	r3, r1
1000966e:	e9dd 0104 	ldrd	r0, r1, [sp, #16]
10009672:	f7fa f839 	bl	100036e8 <__wrap___aeabi_dadd>
10009676:	2c0f      	cmp	r4, #15
10009678:	e9cd 0104 	strd	r0, r1, [sp, #16]
1000967c:	dc24      	bgt.n	100096c8 <_strtod_l+0x2c0>
1000967e:	9b0d      	ldr	r3, [sp, #52]	@ 0x34
10009680:	2b00      	cmp	r3, #0
10009682:	f000 83b5 	beq.w	10009df0 <_strtod_l+0x9e8>
10009686:	9b0d      	ldr	r3, [sp, #52]	@ 0x34
10009688:	f340 82ad 	ble.w	10009be6 <_strtod_l+0x7de>
1000968c:	2b16      	cmp	r3, #22
1000968e:	f340 8484 	ble.w	10009f9a <_strtod_l+0xb92>
10009692:	f1c4 0325 	rsb	r3, r4, #37	@ 0x25
10009696:	9a0d      	ldr	r2, [sp, #52]	@ 0x34
10009698:	4293      	cmp	r3, r2
1000969a:	db15      	blt.n	100096c8 <_strtod_l+0x2c0>
1000969c:	f1c4 040f 	rsb	r4, r4, #15
100096a0:	4d4c      	ldr	r5, [pc, #304]	@ (100097d4 <_strtod_l+0x3cc>)
100096a2:	eb05 01c4 	add.w	r1, r5, r4, lsl #3
100096a6:	e9dd 2304 	ldrd	r2, r3, [sp, #16]
100096aa:	e9d1 0100 	ldrd	r0, r1, [r1]
100096ae:	f7fa f843 	bl	10003738 <__wrap___aeabi_dmul>
100096b2:	9b0d      	ldr	r3, [sp, #52]	@ 0x34
100096b4:	1b1c      	subs	r4, r3, r4
100096b6:	eb05 05c4 	add.w	r5, r5, r4, lsl #3
100096ba:	e9d5 2300 	ldrd	r2, r3, [r5]
100096be:	f7fa f83b 	bl	10003738 <__wrap___aeabi_dmul>
100096c2:	4606      	mov	r6, r0
100096c4:	460f      	mov	r7, r1
100096c6:	e1fe      	b.n	10009ac6 <_strtod_l+0x6be>
100096c8:	eba4 0308 	sub.w	r3, r4, r8
100096cc:	9a0d      	ldr	r2, [sp, #52]	@ 0x34
100096ce:	189d      	adds	r5, r3, r2
100096d0:	2d00      	cmp	r5, #0
100096d2:	f340 822b 	ble.w	10009b2c <_strtod_l+0x724>
100096d6:	f015 000f 	ands.w	r0, r5, #15
100096da:	d00a      	beq.n	100096f2 <_strtod_l+0x2ea>
100096dc:	493d      	ldr	r1, [pc, #244]	@ (100097d4 <_strtod_l+0x3cc>)
100096de:	eb01 01c0 	add.w	r1, r1, r0, lsl #3
100096e2:	e9dd 2304 	ldrd	r2, r3, [sp, #16]
100096e6:	e9d1 0100 	ldrd	r0, r1, [r1]
100096ea:	f7fa f825 	bl	10003738 <__wrap___aeabi_dmul>
100096ee:	e9cd 0104 	strd	r0, r1, [sp, #16]
100096f2:	f035 030f 	bics.w	r3, r5, #15
100096f6:	d04b      	beq.n	10009790 <_strtod_l+0x388>
100096f8:	f5b3 7f9a 	cmp.w	r3, #308	@ 0x134
100096fc:	f300 845a 	bgt.w	10009fb4 <_strtod_l+0xbac>
10009700:	2b10      	cmp	r3, #16
10009702:	ea4f 1523 	mov.w	r5, r3, asr #4
10009706:	f340 85b3 	ble.w	1000a270 <_strtod_l+0xe68>
1000970a:	f8df e0dc 	ldr.w	lr, [pc, #220]	@ 100097e8 <_strtod_l+0x3e0>
1000970e:	f04f 0c00 	mov.w	ip, #0
10009712:	960a      	str	r6, [sp, #40]	@ 0x28
10009714:	46f0      	mov	r8, lr
10009716:	46e1      	mov	r9, ip
10009718:	4676      	mov	r6, lr
1000971a:	e9dd 2304 	ldrd	r2, r3, [sp, #16]
1000971e:	f015 0f01 	tst.w	r5, #1
10009722:	4610      	mov	r0, r2
10009724:	4619      	mov	r1, r3
10009726:	d007      	beq.n	10009738 <_strtod_l+0x330>
10009728:	e9d8 2300 	ldrd	r2, r3, [r8]
1000972c:	f7fa f804 	bl	10003738 <__wrap___aeabi_dmul>
10009730:	f04f 0c01 	mov.w	ip, #1
10009734:	4602      	mov	r2, r0
10009736:	460b      	mov	r3, r1
10009738:	106d      	asrs	r5, r5, #1
1000973a:	f109 0901 	add.w	r9, r9, #1
1000973e:	f108 0808 	add.w	r8, r8, #8
10009742:	2d01      	cmp	r5, #1
10009744:	d1eb      	bne.n	1000971e <_strtod_l+0x316>
10009746:	46b6      	mov	lr, r6
10009748:	9e0a      	ldr	r6, [sp, #40]	@ 0x28
1000974a:	f1bc 0f00 	cmp.w	ip, #0
1000974e:	d001      	beq.n	10009754 <_strtod_l+0x34c>
10009750:	e9cd 2304 	strd	r2, r3, [sp, #16]
10009754:	9b05      	ldr	r3, [sp, #20]
10009756:	eb0e 01c9 	add.w	r1, lr, r9, lsl #3
1000975a:	f1a3 7354 	sub.w	r3, r3, #55574528	@ 0x3500000
1000975e:	9305      	str	r3, [sp, #20]
10009760:	e9dd 2304 	ldrd	r2, r3, [sp, #16]
10009764:	e9d1 0100 	ldrd	r0, r1, [r1]
10009768:	f7f9 ffe6 	bl	10003738 <__wrap___aeabi_dmul>
1000976c:	4b1a      	ldr	r3, [pc, #104]	@ (100097d8 <_strtod_l+0x3d0>)
1000976e:	460a      	mov	r2, r1
10009770:	400b      	ands	r3, r1
10009772:	e9cd 0104 	strd	r0, r1, [sp, #16]
10009776:	4919      	ldr	r1, [pc, #100]	@ (100097dc <_strtod_l+0x3d4>)
10009778:	428b      	cmp	r3, r1
1000977a:	f200 841b 	bhi.w	10009fb4 <_strtod_l+0xbac>
1000977e:	4918      	ldr	r1, [pc, #96]	@ (100097e0 <_strtod_l+0x3d8>)
10009780:	428b      	cmp	r3, r1
10009782:	f240 84c9 	bls.w	1000a118 <_strtod_l+0xd10>
10009786:	f04f 32ff 	mov.w	r2, #4294967295
1000978a:	4b16      	ldr	r3, [pc, #88]	@ (100097e4 <_strtod_l+0x3dc>)
1000978c:	e9cd 2304 	strd	r2, r3, [sp, #16]
10009790:	2300      	movs	r3, #0
10009792:	930c      	str	r3, [sp, #48]	@ 0x30
10009794:	4623      	mov	r3, r4
10009796:	4652      	mov	r2, sl
10009798:	4639      	mov	r1, r7
1000979a:	4658      	mov	r0, fp
1000979c:	9600      	str	r6, [sp, #0]
1000979e:	f001 ff9d 	bl	1000b6dc <__s2b>
100097a2:	9015      	str	r0, [sp, #84]	@ 0x54
100097a4:	2800      	cmp	r0, #0
100097a6:	f000 8405 	beq.w	10009fb4 <_strtod_l+0xbac>
100097aa:	9a0e      	ldr	r2, [sp, #56]	@ 0x38
100097ac:	9b09      	ldr	r3, [sp, #36]	@ 0x24
100097ae:	1a9b      	subs	r3, r3, r2
100097b0:	9a0d      	ldr	r2, [sp, #52]	@ 0x34
100097b2:	2a00      	cmp	r2, #0
100097b4:	ea22 72e2 	bic.w	r2, r2, r2, asr #31
100097b8:	bfa8      	it	ge
100097ba:	2300      	movge	r3, #0
100097bc:	9214      	str	r2, [sp, #80]	@ 0x50
100097be:	930e      	str	r3, [sp, #56]	@ 0x38
100097c0:	2300      	movs	r3, #0
100097c2:	469a      	mov	sl, r3
100097c4:	9309      	str	r3, [sp, #36]	@ 0x24
100097c6:	e0eb      	b.n	100099a0 <_strtod_l+0x598>
100097c8:	1000c110 	.word	0x1000c110
100097cc:	1000c680 	.word	0x1000c680
100097d0:	1000c214 	.word	0x1000c214
100097d4:	10010000 	.word	0x10010000
100097d8:	7ff00000 	.word	0x7ff00000
100097dc:	7ca00000 	.word	0x7ca00000
100097e0:	7c900000 	.word	0x7c900000
100097e4:	7fefffff 	.word	0x7fefffff
100097e8:	1000ffd8 	.word	0x1000ffd8
100097ec:	1ad2      	subs	r2, r2, r3
100097ee:	2a1f      	cmp	r2, #31
100097f0:	eba4 0402 	sub.w	r4, r4, r2
100097f4:	f300 827c 	bgt.w	10009cf0 <_strtod_l+0x8e8>
100097f8:	2301      	movs	r3, #1
100097fa:	2500      	movs	r5, #0
100097fc:	4093      	lsls	r3, r2
100097fe:	461e      	mov	r6, r3
10009800:	44a0      	add	r8, r4
10009802:	444c      	add	r4, r9
10009804:	9b0c      	ldr	r3, [sp, #48]	@ 0x30
10009806:	45a1      	cmp	r9, r4
10009808:	4498      	add	r8, r3
1000980a:	464b      	mov	r3, r9
1000980c:	bfa8      	it	ge
1000980e:	4623      	movge	r3, r4
10009810:	4543      	cmp	r3, r8
10009812:	bfa8      	it	ge
10009814:	4643      	movge	r3, r8
10009816:	2b00      	cmp	r3, #0
10009818:	dd04      	ble.n	10009824 <_strtod_l+0x41c>
1000981a:	1ae4      	subs	r4, r4, r3
1000981c:	eba8 0803 	sub.w	r8, r8, r3
10009820:	eba9 0903 	sub.w	r9, r9, r3
10009824:	9b0e      	ldr	r3, [sp, #56]	@ 0x38
10009826:	2b00      	cmp	r3, #0
10009828:	f300 8203 	bgt.w	10009c32 <_strtod_l+0x82a>
1000982c:	2c00      	cmp	r4, #0
1000982e:	f300 8219 	bgt.w	10009c64 <_strtod_l+0x85c>
10009832:	9b0d      	ldr	r3, [sp, #52]	@ 0x34
10009834:	2b00      	cmp	r3, #0
10009836:	f300 824c 	bgt.w	10009cd2 <_strtod_l+0x8ca>
1000983a:	f1b8 0f00 	cmp.w	r8, #0
1000983e:	f300 823c 	bgt.w	10009cba <_strtod_l+0x8b2>
10009842:	f1b9 0f00 	cmp.w	r9, #0
10009846:	dd08      	ble.n	1000985a <_strtod_l+0x452>
10009848:	4651      	mov	r1, sl
1000984a:	464a      	mov	r2, r9
1000984c:	4658      	mov	r0, fp
1000984e:	f002 f92b 	bl	1000baa8 <__lshift>
10009852:	4682      	mov	sl, r0
10009854:	2800      	cmp	r0, #0
10009856:	f000 8239 	beq.w	10009ccc <_strtod_l+0x8c4>
1000985a:	463a      	mov	r2, r7
1000985c:	991a      	ldr	r1, [sp, #104]	@ 0x68
1000985e:	4658      	mov	r0, fp
10009860:	f002 f9b8 	bl	1000bbd4 <__mdiff>
10009864:	9009      	str	r0, [sp, #36]	@ 0x24
10009866:	2800      	cmp	r0, #0
10009868:	f000 8230 	beq.w	10009ccc <_strtod_l+0x8c4>
1000986c:	9a09      	ldr	r2, [sp, #36]	@ 0x24
1000986e:	2300      	movs	r3, #0
10009870:	68d1      	ldr	r1, [r2, #12]
10009872:	60d3      	str	r3, [r2, #12]
10009874:	910f      	str	r1, [sp, #60]	@ 0x3c
10009876:	4651      	mov	r1, sl
10009878:	f002 f98a 	bl	1000bb90 <__mcmp>
1000987c:	2800      	cmp	r0, #0
1000987e:	f2c0 8479 	blt.w	1000a174 <_strtod_l+0xd6c>
10009882:	f8dd 9014 	ldr.w	r9, [sp, #20]
10009886:	f000 83e7 	beq.w	1000a058 <_strtod_l+0xc50>
1000988a:	4651      	mov	r1, sl
1000988c:	9809      	ldr	r0, [sp, #36]	@ 0x24
1000988e:	f002 fb49 	bl	1000bf24 <__ratio>
10009892:	2200      	movs	r2, #0
10009894:	f04f 4380 	mov.w	r3, #1073741824	@ 0x40000000
10009898:	4604      	mov	r4, r0
1000989a:	460d      	mov	r5, r1
1000989c:	f7fa f84e 	bl	1000393c <__wrap___aeabi_dcmple>
100098a0:	2800      	cmp	r0, #0
100098a2:	f000 81b6 	beq.w	10009c12 <_strtod_l+0x80a>
100098a6:	9b0f      	ldr	r3, [sp, #60]	@ 0x3c
100098a8:	2b00      	cmp	r3, #0
100098aa:	f040 8228 	bne.w	10009cfe <_strtod_l+0x8f6>
100098ae:	9b04      	ldr	r3, [sp, #16]
100098b0:	2b00      	cmp	r3, #0
100098b2:	f040 8312 	bne.w	10009eda <_strtod_l+0xad2>
100098b6:	f3c9 0313 	ubfx	r3, r9, #0, #20
100098ba:	2b00      	cmp	r3, #0
100098bc:	f040 829b 	bne.w	10009df6 <_strtod_l+0x9ee>
100098c0:	2200      	movs	r2, #0
100098c2:	4b95      	ldr	r3, [pc, #596]	@ (10009b18 <_strtod_l+0x710>)
100098c4:	4620      	mov	r0, r4
100098c6:	4629      	mov	r1, r5
100098c8:	f7fa f824 	bl	10003914 <__wrap___aeabi_dcmplt>
100098cc:	2800      	cmp	r0, #0
100098ce:	f040 83ba 	bne.w	1000a046 <_strtod_l+0xc3e>
100098d2:	2200      	movs	r2, #0
100098d4:	4b91      	ldr	r3, [pc, #580]	@ (10009b1c <_strtod_l+0x714>)
100098d6:	4620      	mov	r0, r4
100098d8:	4629      	mov	r1, r5
100098da:	f7f9 ff2d 	bl	10003738 <__wrap___aeabi_dmul>
100098de:	460a      	mov	r2, r1
100098e0:	4601      	mov	r1, r0
100098e2:	9010      	str	r0, [sp, #64]	@ 0x40
100098e4:	f102 4300 	add.w	r3, r2, #2147483648	@ 0x80000000
100098e8:	e9cd 1212 	strd	r1, r2, [sp, #72]	@ 0x48
100098ec:	9311      	str	r3, [sp, #68]	@ 0x44
100098ee:	f8df 8234 	ldr.w	r8, [pc, #564]	@ 10009b24 <_strtod_l+0x71c>
100098f2:	4b8b      	ldr	r3, [pc, #556]	@ (10009b20 <_strtod_l+0x718>)
100098f4:	ea09 0808 	and.w	r8, r9, r8
100098f8:	4598      	cmp	r8, r3
100098fa:	e9dd 4510 	ldrd	r4, r5, [sp, #64]	@ 0x40
100098fe:	f000 820a 	beq.w	10009d16 <_strtod_l+0x90e>
10009902:	9b0c      	ldr	r3, [sp, #48]	@ 0x30
10009904:	b31b      	cbz	r3, 1000994e <_strtod_l+0x546>
10009906:	f1b8 6fd4 	cmp.w	r8, #111149056	@ 0x6a00000
1000990a:	d820      	bhi.n	1000994e <_strtod_l+0x546>
1000990c:	a380      	add	r3, pc, #512	@ (adr r3, 10009b10 <_strtod_l+0x708>)
1000990e:	e9d3 2300 	ldrd	r2, r3, [r3]
10009912:	e9dd 0112 	ldrd	r0, r1, [sp, #72]	@ 0x48
10009916:	f7fa f811 	bl	1000393c <__wrap___aeabi_dcmple>
1000991a:	b1a0      	cbz	r0, 10009946 <_strtod_l+0x53e>
1000991c:	e9dd 0112 	ldrd	r0, r1, [sp, #72]	@ 0x48
10009920:	f7f9 ffc2 	bl	100038a8 <__wrap___aeabi_d2uiz>
10009924:	2801      	cmp	r0, #1
10009926:	bf38      	it	cc
10009928:	2001      	movcc	r0, #1
1000992a:	f7f9 ff99 	bl	10003860 <__wrap___aeabi_ui2d>
1000992e:	9b0f      	ldr	r3, [sp, #60]	@ 0x3c
10009930:	e9cd 0112 	strd	r0, r1, [sp, #72]	@ 0x48
10009934:	2b00      	cmp	r3, #0
10009936:	f040 82e3 	bne.w	10009f00 <_strtod_l+0xaf8>
1000993a:	f101 4300 	add.w	r3, r1, #2147483648	@ 0x80000000
1000993e:	9016      	str	r0, [sp, #88]	@ 0x58
10009940:	9317      	str	r3, [sp, #92]	@ 0x5c
10009942:	e9dd 4516 	ldrd	r4, r5, [sp, #88]	@ 0x58
10009946:	f105 63d6 	add.w	r3, r5, #112197632	@ 0x6b00000
1000994a:	eba3 0508 	sub.w	r5, r3, r8
1000994e:	e9dd 010a 	ldrd	r0, r1, [sp, #40]	@ 0x28
10009952:	f002 f9ff 	bl	1000bd54 <__ulp>
10009956:	4602      	mov	r2, r0
10009958:	460b      	mov	r3, r1
1000995a:	4620      	mov	r0, r4
1000995c:	4629      	mov	r1, r5
1000995e:	f7f9 feeb 	bl	10003738 <__wrap___aeabi_dmul>
10009962:	e9dd 230a 	ldrd	r2, r3, [sp, #40]	@ 0x28
10009966:	f7f9 febf 	bl	100036e8 <__wrap___aeabi_dadd>
1000996a:	460c      	mov	r4, r1
1000996c:	e9cd 0104 	strd	r0, r1, [sp, #16]
10009970:	4b6c      	ldr	r3, [pc, #432]	@ (10009b24 <_strtod_l+0x71c>)
10009972:	4023      	ands	r3, r4
10009974:	4543      	cmp	r3, r8
10009976:	d103      	bne.n	10009980 <_strtod_l+0x578>
10009978:	9b0c      	ldr	r3, [sp, #48]	@ 0x30
1000997a:	2b00      	cmp	r3, #0
1000997c:	f000 825c 	beq.w	10009e38 <_strtod_l+0xa30>
10009980:	991a      	ldr	r1, [sp, #104]	@ 0x68
10009982:	4658      	mov	r0, fp
10009984:	f001 fe4e 	bl	1000b624 <_Bfree>
10009988:	4639      	mov	r1, r7
1000998a:	4658      	mov	r0, fp
1000998c:	f001 fe4a 	bl	1000b624 <_Bfree>
10009990:	4651      	mov	r1, sl
10009992:	4658      	mov	r0, fp
10009994:	f001 fe46 	bl	1000b624 <_Bfree>
10009998:	9909      	ldr	r1, [sp, #36]	@ 0x24
1000999a:	4658      	mov	r0, fp
1000999c:	f001 fe42 	bl	1000b624 <_Bfree>
100099a0:	9c15      	ldr	r4, [sp, #84]	@ 0x54
100099a2:	4658      	mov	r0, fp
100099a4:	6861      	ldr	r1, [r4, #4]
100099a6:	f001 fe17 	bl	1000b5d8 <_Balloc>
100099aa:	4607      	mov	r7, r0
100099ac:	2800      	cmp	r0, #0
100099ae:	f000 818d 	beq.w	10009ccc <_strtod_l+0x8c4>
100099b2:	6922      	ldr	r2, [r4, #16]
100099b4:	f104 010c 	add.w	r1, r4, #12
100099b8:	300c      	adds	r0, #12
100099ba:	3202      	adds	r2, #2
100099bc:	0092      	lsls	r2, r2, #2
100099be:	f7fd f909 	bl	10006bd4 <memcpy>
100099c2:	ab1c      	add	r3, sp, #112	@ 0x70
100099c4:	4658      	mov	r0, fp
100099c6:	9301      	str	r3, [sp, #4]
100099c8:	ab1b      	add	r3, sp, #108	@ 0x6c
100099ca:	ed9d 7b04 	vldr	d7, [sp, #16]
100099ce:	9300      	str	r3, [sp, #0]
100099d0:	ec53 2b17 	vmov	r2, r3, d7
100099d4:	ed8d 7b0a 	vstr	d7, [sp, #40]	@ 0x28
100099d8:	f002 fa44 	bl	1000be64 <__d2b>
100099dc:	901a      	str	r0, [sp, #104]	@ 0x68
100099de:	2800      	cmp	r0, #0
100099e0:	f000 8149 	beq.w	10009c76 <_strtod_l+0x86e>
100099e4:	2101      	movs	r1, #1
100099e6:	4658      	mov	r0, fp
100099e8:	f001 ff24 	bl	1000b834 <__i2b>
100099ec:	4682      	mov	sl, r0
100099ee:	2800      	cmp	r0, #0
100099f0:	f000 816c 	beq.w	10009ccc <_strtod_l+0x8c4>
100099f4:	9b1b      	ldr	r3, [sp, #108]	@ 0x6c
100099f6:	2b00      	cmp	r3, #0
100099f8:	f2c0 8159 	blt.w	10009cae <_strtod_l+0x8a6>
100099fc:	9a0e      	ldr	r2, [sp, #56]	@ 0x38
100099fe:	f8dd 8050 	ldr.w	r8, [sp, #80]	@ 0x50
10009a02:	eb03 0902 	add.w	r9, r3, r2
10009a06:	9a0c      	ldr	r2, [sp, #48]	@ 0x30
10009a08:	9c1c      	ldr	r4, [sp, #112]	@ 0x70
10009a0a:	1a9b      	subs	r3, r3, r2
10009a0c:	4a46      	ldr	r2, [pc, #280]	@ (10009b28 <_strtod_l+0x720>)
10009a0e:	4423      	add	r3, r4
10009a10:	f1c4 0436 	rsb	r4, r4, #54	@ 0x36
10009a14:	3b01      	subs	r3, #1
10009a16:	4293      	cmp	r3, r2
10009a18:	f6ff aee8 	blt.w	100097ec <_strtod_l+0x3e4>
10009a1c:	2301      	movs	r3, #1
10009a1e:	2500      	movs	r5, #0
10009a20:	461e      	mov	r6, r3
10009a22:	e6ed      	b.n	10009800 <_strtod_l+0x3f8>
10009a24:	f8dd 8064 	ldr.w	r8, [sp, #100]	@ 0x64
10009a28:	f108 0301 	add.w	r3, r8, #1
10009a2c:	9319      	str	r3, [sp, #100]	@ 0x64
10009a2e:	f898 3001 	ldrb.w	r3, [r8, #1]
10009a32:	2b2b      	cmp	r3, #43	@ 0x2b
10009a34:	f000 8199 	beq.w	10009d6a <_strtod_l+0x962>
10009a38:	2b2d      	cmp	r3, #45	@ 0x2d
10009a3a:	d157      	bne.n	10009aec <_strtod_l+0x6e4>
10009a3c:	f04f 0e01 	mov.w	lr, #1
10009a40:	f108 0302 	add.w	r3, r8, #2
10009a44:	9319      	str	r3, [sp, #100]	@ 0x64
10009a46:	f898 3002 	ldrb.w	r3, [r8, #2]
10009a4a:	f1a3 0c30 	sub.w	ip, r3, #48	@ 0x30
10009a4e:	f1bc 0f09 	cmp.w	ip, #9
10009a52:	f200 8148 	bhi.w	10009ce6 <_strtod_l+0x8de>
10009a56:	9a19      	ldr	r2, [sp, #100]	@ 0x64
10009a58:	2b30      	cmp	r3, #48	@ 0x30
10009a5a:	920c      	str	r2, [sp, #48]	@ 0x30
10009a5c:	d10b      	bne.n	10009a76 <_strtod_l+0x66e>
10009a5e:	3201      	adds	r2, #1
10009a60:	9219      	str	r2, [sp, #100]	@ 0x64
10009a62:	7813      	ldrb	r3, [r2, #0]
10009a64:	2b30      	cmp	r3, #48	@ 0x30
10009a66:	d0fa      	beq.n	10009a5e <_strtod_l+0x656>
10009a68:	f1a3 0131 	sub.w	r1, r3, #49	@ 0x31
10009a6c:	920c      	str	r2, [sp, #48]	@ 0x30
10009a6e:	2908      	cmp	r1, #8
10009a70:	d839      	bhi.n	10009ae6 <_strtod_l+0x6de>
10009a72:	f1a3 0c30 	sub.w	ip, r3, #48	@ 0x30
10009a76:	9b0c      	ldr	r3, [sp, #48]	@ 0x30
10009a78:	1c59      	adds	r1, r3, #1
10009a7a:	9119      	str	r1, [sp, #100]	@ 0x64
10009a7c:	785b      	ldrb	r3, [r3, #1]
10009a7e:	f1a3 0230 	sub.w	r2, r3, #48	@ 0x30
10009a82:	2a09      	cmp	r2, #9
10009a84:	f200 8281 	bhi.w	10009f8a <_strtod_l+0xb82>
10009a88:	3101      	adds	r1, #1
10009a8a:	eb0c 0c8c 	add.w	ip, ip, ip, lsl #2
10009a8e:	9119      	str	r1, [sp, #100]	@ 0x64
10009a90:	eb03 0c4c 	add.w	ip, r3, ip, lsl #1
10009a94:	780b      	ldrb	r3, [r1, #0]
10009a96:	f1ac 0c30 	sub.w	ip, ip, #48	@ 0x30
10009a9a:	f1a3 0230 	sub.w	r2, r3, #48	@ 0x30
10009a9e:	2a09      	cmp	r2, #9
10009aa0:	d9f2      	bls.n	10009a88 <_strtod_l+0x680>
10009aa2:	9a0c      	ldr	r2, [sp, #48]	@ 0x30
10009aa4:	1a89      	subs	r1, r1, r2
10009aa6:	2908      	cmp	r1, #8
10009aa8:	f340 826f 	ble.w	10009f8a <_strtod_l+0xb82>
10009aac:	f644 621f 	movw	r2, #19999	@ 0x4e1f
10009ab0:	920e      	str	r2, [sp, #56]	@ 0x38
10009ab2:	f1be 0f00 	cmp.w	lr, #0
10009ab6:	f43f ad7b 	beq.w	100095b0 <_strtod_l+0x1a8>
10009aba:	9a0e      	ldr	r2, [sp, #56]	@ 0x38
10009abc:	4252      	negs	r2, r2
10009abe:	920e      	str	r2, [sp, #56]	@ 0x38
10009ac0:	e576      	b.n	100095b0 <_strtod_l+0x1a8>
10009ac2:	2600      	movs	r6, #0
10009ac4:	2700      	movs	r7, #0
10009ac6:	9a07      	ldr	r2, [sp, #28]
10009ac8:	b10a      	cbz	r2, 10009ace <_strtod_l+0x6c6>
10009aca:	9b19      	ldr	r3, [sp, #100]	@ 0x64
10009acc:	6013      	str	r3, [r2, #0]
10009ace:	9b08      	ldr	r3, [sp, #32]
10009ad0:	2b00      	cmp	r3, #0
10009ad2:	f43f ad5d 	beq.w	10009590 <_strtod_l+0x188>
10009ad6:	f107 4300 	add.w	r3, r7, #2147483648	@ 0x80000000
10009ada:	4630      	mov	r0, r6
10009adc:	461f      	mov	r7, r3
10009ade:	4639      	mov	r1, r7
10009ae0:	b01f      	add	sp, #124	@ 0x7c
10009ae2:	e8bd 8ff0 	ldmia.w	sp!, {r4, r5, r6, r7, r8, r9, sl, fp, pc}
10009ae6:	2200      	movs	r2, #0
10009ae8:	920e      	str	r2, [sp, #56]	@ 0x38
10009aea:	e561      	b.n	100095b0 <_strtod_l+0x1a8>
10009aec:	f04f 0e00 	mov.w	lr, #0
10009af0:	e7ab      	b.n	10009a4a <_strtod_l+0x642>
10009af2:	2200      	movs	r2, #0
10009af4:	9208      	str	r2, [sp, #32]
10009af6:	1c7a      	adds	r2, r7, #1
10009af8:	9219      	str	r2, [sp, #100]	@ 0x64
10009afa:	f897 9001 	ldrb.w	r9, [r7, #1]
10009afe:	f1b9 0f00 	cmp.w	r9, #0
10009b02:	f43f ad3f 	beq.w	10009584 <_strtod_l+0x17c>
10009b06:	4617      	mov	r7, r2
10009b08:	e4f4      	b.n	100094f4 <_strtod_l+0xec>
10009b0a:	2201      	movs	r2, #1
10009b0c:	9208      	str	r2, [sp, #32]
10009b0e:	e7f2      	b.n	10009af6 <_strtod_l+0x6ee>
10009b10:	ffc00000 	.word	0xffc00000
10009b14:	41dfffff 	.word	0x41dfffff
10009b18:	3ff00000 	.word	0x3ff00000
10009b1c:	3fe00000 	.word	0x3fe00000
10009b20:	7fe00000 	.word	0x7fe00000
10009b24:	7ff00000 	.word	0x7ff00000
10009b28:	fffffc02 	.word	0xfffffc02
10009b2c:	f43f ae30 	beq.w	10009790 <_strtod_l+0x388>
10009b30:	426d      	negs	r5, r5
10009b32:	f015 020f 	ands.w	r2, r5, #15
10009b36:	d00a      	beq.n	10009b4e <_strtod_l+0x746>
10009b38:	4bb7      	ldr	r3, [pc, #732]	@ (10009e18 <_strtod_l+0xa10>)
10009b3a:	eb03 03c2 	add.w	r3, r3, r2, lsl #3
10009b3e:	e9dd 0104 	ldrd	r0, r1, [sp, #16]
10009b42:	e9d3 2300 	ldrd	r2, r3, [r3]
10009b46:	f7f9 fe1d 	bl	10003784 <__wrap___aeabi_ddiv>
10009b4a:	e9cd 0104 	strd	r0, r1, [sp, #16]
10009b4e:	112d      	asrs	r5, r5, #4
10009b50:	f43f ae1e 	beq.w	10009790 <_strtod_l+0x388>
10009b54:	2d1f      	cmp	r5, #31
10009b56:	dc40      	bgt.n	10009bda <_strtod_l+0x7d2>
10009b58:	f015 0310 	ands.w	r3, r5, #16
10009b5c:	f8df 82d4 	ldr.w	r8, [pc, #724]	@ 10009e34 <_strtod_l+0xa2c>
10009b60:	f04f 0c00 	mov.w	ip, #0
10009b64:	bf18      	it	ne
10009b66:	236a      	movne	r3, #106	@ 0x6a
10009b68:	930c      	str	r3, [sp, #48]	@ 0x30
10009b6a:	e9dd 2304 	ldrd	r2, r3, [sp, #16]
10009b6e:	f015 0f01 	tst.w	r5, #1
10009b72:	4610      	mov	r0, r2
10009b74:	4619      	mov	r1, r3
10009b76:	d007      	beq.n	10009b88 <_strtod_l+0x780>
10009b78:	e9d8 2300 	ldrd	r2, r3, [r8]
10009b7c:	f7f9 fddc 	bl	10003738 <__wrap___aeabi_dmul>
10009b80:	f04f 0c01 	mov.w	ip, #1
10009b84:	4602      	mov	r2, r0
10009b86:	460b      	mov	r3, r1
10009b88:	106d      	asrs	r5, r5, #1
10009b8a:	f108 0808 	add.w	r8, r8, #8
10009b8e:	d1ee      	bne.n	10009b6e <_strtod_l+0x766>
10009b90:	f1bc 0f00 	cmp.w	ip, #0
10009b94:	d001      	beq.n	10009b9a <_strtod_l+0x792>
10009b96:	e9cd 2304 	strd	r2, r3, [sp, #16]
10009b9a:	9b0c      	ldr	r3, [sp, #48]	@ 0x30
10009b9c:	b1a3      	cbz	r3, 10009bc8 <_strtod_l+0x7c0>
10009b9e:	e9dd 0104 	ldrd	r0, r1, [sp, #16]
10009ba2:	f3c1 520a 	ubfx	r2, r1, #20, #11
10009ba6:	f1c2 036b 	rsb	r3, r2, #107	@ 0x6b
10009baa:	2b00      	cmp	r3, #0
10009bac:	dd0a      	ble.n	10009bc4 <_strtod_l+0x7bc>
10009bae:	2b1f      	cmp	r3, #31
10009bb0:	f340 8382 	ble.w	1000a2b8 <_strtod_l+0xeb0>
10009bb4:	2000      	movs	r0, #0
10009bb6:	2b34      	cmp	r3, #52	@ 0x34
10009bb8:	9004      	str	r0, [sp, #16]
10009bba:	f340 83b8 	ble.w	1000a32e <_strtod_l+0xf26>
10009bbe:	f04f 735c 	mov.w	r3, #57671680	@ 0x3700000
10009bc2:	9305      	str	r3, [sp, #20]
10009bc4:	236a      	movs	r3, #106	@ 0x6a
10009bc6:	930c      	str	r3, [sp, #48]	@ 0x30
10009bc8:	2200      	movs	r2, #0
10009bca:	2300      	movs	r3, #0
10009bcc:	e9dd 0104 	ldrd	r0, r1, [sp, #16]
10009bd0:	f7f9 fe8e 	bl	100038f0 <__wrap___aeabi_dcmpeq>
10009bd4:	2800      	cmp	r0, #0
10009bd6:	f43f addd 	beq.w	10009794 <_strtod_l+0x38c>
10009bda:	2322      	movs	r3, #34	@ 0x22
10009bdc:	2600      	movs	r6, #0
10009bde:	2700      	movs	r7, #0
10009be0:	f8cb 3000 	str.w	r3, [fp]
10009be4:	e76f      	b.n	10009ac6 <_strtod_l+0x6be>
10009be6:	3316      	adds	r3, #22
10009be8:	f6ff ad6e 	blt.w	100096c8 <_strtod_l+0x2c0>
10009bec:	9b09      	ldr	r3, [sp, #36]	@ 0x24
10009bee:	9a0e      	ldr	r2, [sp, #56]	@ 0x38
10009bf0:	1a9a      	subs	r2, r3, r2
10009bf2:	4b89      	ldr	r3, [pc, #548]	@ (10009e18 <_strtod_l+0xa10>)
10009bf4:	eb03 03c2 	add.w	r3, r3, r2, lsl #3
10009bf8:	e9dd 0104 	ldrd	r0, r1, [sp, #16]
10009bfc:	e9d3 2300 	ldrd	r2, r3, [r3]
10009c00:	f7f9 fdc0 	bl	10003784 <__wrap___aeabi_ddiv>
10009c04:	4606      	mov	r6, r0
10009c06:	460f      	mov	r7, r1
10009c08:	e75d      	b.n	10009ac6 <_strtod_l+0x6be>
10009c0a:	2b6e      	cmp	r3, #110	@ 0x6e
10009c0c:	f43f ace3 	beq.w	100095d6 <_strtod_l+0x1ce>
10009c10:	e4b8      	b.n	10009584 <_strtod_l+0x17c>
10009c12:	4b82      	ldr	r3, [pc, #520]	@ (10009e1c <_strtod_l+0xa14>)
10009c14:	4620      	mov	r0, r4
10009c16:	4629      	mov	r1, r5
10009c18:	2200      	movs	r2, #0
10009c1a:	f7f9 fd8d 	bl	10003738 <__wrap___aeabi_dmul>
10009c1e:	9b0f      	ldr	r3, [sp, #60]	@ 0x3c
10009c20:	e9cd 0112 	strd	r0, r1, [sp, #72]	@ 0x48
10009c24:	2b00      	cmp	r3, #0
10009c26:	d171      	bne.n	10009d0c <_strtod_l+0x904>
10009c28:	f101 4300 	add.w	r3, r1, #2147483648	@ 0x80000000
10009c2c:	9010      	str	r0, [sp, #64]	@ 0x40
10009c2e:	9311      	str	r3, [sp, #68]	@ 0x44
10009c30:	e65d      	b.n	100098ee <_strtod_l+0x4e6>
10009c32:	4651      	mov	r1, sl
10009c34:	461a      	mov	r2, r3
10009c36:	4658      	mov	r0, fp
10009c38:	f001 fedc 	bl	1000b9f4 <__pow5mult>
10009c3c:	4682      	mov	sl, r0
10009c3e:	2800      	cmp	r0, #0
10009c40:	d044      	beq.n	10009ccc <_strtod_l+0x8c4>
10009c42:	4601      	mov	r1, r0
10009c44:	9a1a      	ldr	r2, [sp, #104]	@ 0x68
10009c46:	4658      	mov	r0, fp
10009c48:	f001 fe22 	bl	1000b890 <__multiply>
10009c4c:	2800      	cmp	r0, #0
10009c4e:	d03d      	beq.n	10009ccc <_strtod_l+0x8c4>
10009c50:	900f      	str	r0, [sp, #60]	@ 0x3c
10009c52:	4658      	mov	r0, fp
10009c54:	991a      	ldr	r1, [sp, #104]	@ 0x68
10009c56:	f001 fce5 	bl	1000b624 <_Bfree>
10009c5a:	9b0f      	ldr	r3, [sp, #60]	@ 0x3c
10009c5c:	2c00      	cmp	r4, #0
10009c5e:	931a      	str	r3, [sp, #104]	@ 0x68
10009c60:	f77f ade7 	ble.w	10009832 <_strtod_l+0x42a>
10009c64:	4622      	mov	r2, r4
10009c66:	991a      	ldr	r1, [sp, #104]	@ 0x68
10009c68:	4658      	mov	r0, fp
10009c6a:	f001 ff1d 	bl	1000baa8 <__lshift>
10009c6e:	901a      	str	r0, [sp, #104]	@ 0x68
10009c70:	2800      	cmp	r0, #0
10009c72:	f47f adde 	bne.w	10009832 <_strtod_l+0x42a>
10009c76:	46b9      	mov	r9, r7
10009c78:	4605      	mov	r5, r0
10009c7a:	2322      	movs	r3, #34	@ 0x22
10009c7c:	2600      	movs	r6, #0
10009c7e:	4f68      	ldr	r7, [pc, #416]	@ (10009e20 <_strtod_l+0xa18>)
10009c80:	f8cb 3000 	str.w	r3, [fp]
10009c84:	4629      	mov	r1, r5
10009c86:	4658      	mov	r0, fp
10009c88:	f001 fccc 	bl	1000b624 <_Bfree>
10009c8c:	4649      	mov	r1, r9
10009c8e:	4658      	mov	r0, fp
10009c90:	f001 fcc8 	bl	1000b624 <_Bfree>
10009c94:	4651      	mov	r1, sl
10009c96:	4658      	mov	r0, fp
10009c98:	f001 fcc4 	bl	1000b624 <_Bfree>
10009c9c:	9915      	ldr	r1, [sp, #84]	@ 0x54
10009c9e:	4658      	mov	r0, fp
10009ca0:	f001 fcc0 	bl	1000b624 <_Bfree>
10009ca4:	9909      	ldr	r1, [sp, #36]	@ 0x24
10009ca6:	4658      	mov	r0, fp
10009ca8:	f001 fcbc 	bl	1000b624 <_Bfree>
10009cac:	e70b      	b.n	10009ac6 <_strtod_l+0x6be>
10009cae:	9a14      	ldr	r2, [sp, #80]	@ 0x50
10009cb0:	f8dd 9038 	ldr.w	r9, [sp, #56]	@ 0x38
10009cb4:	eba2 0803 	sub.w	r8, r2, r3
10009cb8:	e6a5      	b.n	10009a06 <_strtod_l+0x5fe>
10009cba:	4639      	mov	r1, r7
10009cbc:	4642      	mov	r2, r8
10009cbe:	4658      	mov	r0, fp
10009cc0:	f001 fef2 	bl	1000baa8 <__lshift>
10009cc4:	4607      	mov	r7, r0
10009cc6:	2800      	cmp	r0, #0
10009cc8:	f47f adbb 	bne.w	10009842 <_strtod_l+0x43a>
10009ccc:	46b9      	mov	r9, r7
10009cce:	9d1a      	ldr	r5, [sp, #104]	@ 0x68
10009cd0:	e7d3      	b.n	10009c7a <_strtod_l+0x872>
10009cd2:	4639      	mov	r1, r7
10009cd4:	9a14      	ldr	r2, [sp, #80]	@ 0x50
10009cd6:	4658      	mov	r0, fp
10009cd8:	f001 fe8c 	bl	1000b9f4 <__pow5mult>
10009cdc:	4607      	mov	r7, r0
10009cde:	2800      	cmp	r0, #0
10009ce0:	f47f adab 	bne.w	1000983a <_strtod_l+0x432>
10009ce4:	e7f2      	b.n	10009ccc <_strtod_l+0x8c4>
10009ce6:	2200      	movs	r2, #0
10009ce8:	f8cd 8064 	str.w	r8, [sp, #100]	@ 0x64
10009cec:	920e      	str	r2, [sp, #56]	@ 0x38
10009cee:	e45f      	b.n	100095b0 <_strtod_l+0x1a8>
10009cf0:	4a4c      	ldr	r2, [pc, #304]	@ (10009e24 <_strtod_l+0xa1c>)
10009cf2:	1ad3      	subs	r3, r2, r3
10009cf4:	2201      	movs	r2, #1
10009cf6:	fa02 f503 	lsl.w	r5, r2, r3
10009cfa:	4616      	mov	r6, r2
10009cfc:	e580      	b.n	10009800 <_strtod_l+0x3f8>
10009cfe:	ed9f 7b42 	vldr	d7, [pc, #264]	@ 10009e08 <_strtod_l+0xa00>
10009d02:	ed8d 7b10 	vstr	d7, [sp, #64]	@ 0x40
10009d06:	ed8d 7b12 	vstr	d7, [sp, #72]	@ 0x48
10009d0a:	e5f0      	b.n	100098ee <_strtod_l+0x4e6>
10009d0c:	ed9d 7b12 	vldr	d7, [sp, #72]	@ 0x48
10009d10:	ed8d 7b10 	vstr	d7, [sp, #64]	@ 0x40
10009d14:	e5eb      	b.n	100098ee <_strtod_l+0x4e6>
10009d16:	f1a9 7354 	sub.w	r3, r9, #55574528	@ 0x3500000
10009d1a:	f8df 9104 	ldr.w	r9, [pc, #260]	@ 10009e20 <_strtod_l+0xa18>
10009d1e:	9305      	str	r3, [sp, #20]
10009d20:	e9dd 4504 	ldrd	r4, r5, [sp, #16]
10009d24:	4620      	mov	r0, r4
10009d26:	4629      	mov	r1, r5
10009d28:	f002 f814 	bl	1000bd54 <__ulp>
10009d2c:	e9dd 2310 	ldrd	r2, r3, [sp, #64]	@ 0x40
10009d30:	f7f9 fd02 	bl	10003738 <__wrap___aeabi_dmul>
10009d34:	462b      	mov	r3, r5
10009d36:	4622      	mov	r2, r4
10009d38:	f7f9 fcd6 	bl	100036e8 <__wrap___aeabi_dadd>
10009d3c:	4b3a      	ldr	r3, [pc, #232]	@ (10009e28 <_strtod_l+0xa20>)
10009d3e:	ea01 0909 	and.w	r9, r1, r9
10009d42:	4599      	cmp	r9, r3
10009d44:	e9cd 0104 	strd	r0, r1, [sp, #16]
10009d48:	f240 80d6 	bls.w	10009ef8 <_strtod_l+0xaf0>
10009d4c:	f103 7354 	add.w	r3, r3, #55574528	@ 0x3500000
10009d50:	e9dd 010a 	ldrd	r0, r1, [sp, #40]	@ 0x28
10009d54:	4299      	cmp	r1, r3
10009d56:	d102      	bne.n	10009d5e <_strtod_l+0x956>
10009d58:	4606      	mov	r6, r0
10009d5a:	3601      	adds	r6, #1
10009d5c:	d0b6      	beq.n	10009ccc <_strtod_l+0x8c4>
10009d5e:	f04f 33ff 	mov.w	r3, #4294967295
10009d62:	4c32      	ldr	r4, [pc, #200]	@ (10009e2c <_strtod_l+0xa24>)
10009d64:	e9cd 3404 	strd	r3, r4, [sp, #16]
10009d68:	e60a      	b.n	10009980 <_strtod_l+0x578>
10009d6a:	f04f 0e00 	mov.w	lr, #0
10009d6e:	e667      	b.n	10009a40 <_strtod_l+0x638>
10009d70:	2201      	movs	r2, #1
10009d72:	492f      	ldr	r1, [pc, #188]	@ (10009e30 <_strtod_l+0xa28>)
10009d74:	4638      	mov	r0, r7
10009d76:	f7ff fa4d 	bl	10009214 <strncmp>
10009d7a:	4682      	mov	sl, r0
10009d7c:	b158      	cbz	r0, 10009d96 <_strtod_l+0x98e>
10009d7e:	f04f 0a00 	mov.w	sl, #0
10009d82:	464b      	mov	r3, r9
10009d84:	4655      	mov	r5, sl
10009d86:	4656      	mov	r6, sl
10009d88:	4650      	mov	r0, sl
10009d8a:	4654      	mov	r4, sl
10009d8c:	46d1      	mov	r9, sl
10009d8e:	f8cd a024 	str.w	sl, [sp, #36]	@ 0x24
10009d92:	f7ff bbec 	b.w	1000956e <_strtod_l+0x166>
10009d96:	9919      	ldr	r1, [sp, #100]	@ 0x64
10009d98:	1c4b      	adds	r3, r1, #1
10009d9a:	9319      	str	r3, [sp, #100]	@ 0x64
10009d9c:	784b      	ldrb	r3, [r1, #1]
10009d9e:	2b30      	cmp	r3, #48	@ 0x30
10009da0:	f040 814f 	bne.w	1000a042 <_strtod_l+0xc3a>
10009da4:	1c8a      	adds	r2, r1, #2
10009da6:	4610      	mov	r0, r2
10009da8:	9219      	str	r2, [sp, #100]	@ 0x64
10009daa:	3201      	adds	r2, #1
10009dac:	7803      	ldrb	r3, [r0, #0]
10009dae:	2b30      	cmp	r3, #48	@ 0x30
10009db0:	d0f9      	beq.n	10009da6 <_strtod_l+0x99e>
10009db2:	1a40      	subs	r0, r0, r1
10009db4:	3801      	subs	r0, #1
10009db6:	f1a3 0231 	sub.w	r2, r3, #49	@ 0x31
10009dba:	2a08      	cmp	r2, #8
10009dbc:	d80f      	bhi.n	10009dde <_strtod_l+0x9d6>
10009dbe:	9f19      	ldr	r7, [sp, #100]	@ 0x64
10009dc0:	2600      	movs	r6, #0
10009dc2:	f1a3 0930 	sub.w	r9, r3, #48	@ 0x30
10009dc6:	2401      	movs	r4, #1
10009dc8:	1c43      	adds	r3, r0, #1
10009dca:	4639      	mov	r1, r7
10009dcc:	4635      	mov	r5, r6
10009dce:	9309      	str	r3, [sp, #36]	@ 0x24
10009dd0:	eb06 0686 	add.w	r6, r6, r6, lsl #2
10009dd4:	2000      	movs	r0, #0
10009dd6:	eb09 0646 	add.w	r6, r9, r6, lsl #1
10009dda:	f7ff bbc2 	b.w	10009562 <_strtod_l+0x15a>
10009dde:	2200      	movs	r2, #0
10009de0:	f04f 0901 	mov.w	r9, #1
10009de4:	4616      	mov	r6, r2
10009de6:	4614      	mov	r4, r2
10009de8:	4615      	mov	r5, r2
10009dea:	9209      	str	r2, [sp, #36]	@ 0x24
10009dec:	f7ff bbbf 	b.w	1000956e <_strtod_l+0x166>
10009df0:	e9dd 6704 	ldrd	r6, r7, [sp, #16]
10009df4:	e667      	b.n	10009ac6 <_strtod_l+0x6be>
10009df6:	ed9f 7b06 	vldr	d7, [pc, #24]	@ 10009e10 <_strtod_l+0xa08>
10009dfa:	ed8d 7b10 	vstr	d7, [sp, #64]	@ 0x40
10009dfe:	ed9f 7b02 	vldr	d7, [pc, #8]	@ 10009e08 <_strtod_l+0xa00>
10009e02:	ed8d 7b12 	vstr	d7, [sp, #72]	@ 0x48
10009e06:	e572      	b.n	100098ee <_strtod_l+0x4e6>
10009e08:	00000000 	.word	0x00000000
10009e0c:	3ff00000 	.word	0x3ff00000
10009e10:	00000000 	.word	0x00000000
10009e14:	bff00000 	.word	0xbff00000
10009e18:	10010000 	.word	0x10010000
10009e1c:	3fe00000 	.word	0x3fe00000
10009e20:	7ff00000 	.word	0x7ff00000
10009e24:	fffffbe2 	.word	0xfffffbe2
10009e28:	7c9fffff 	.word	0x7c9fffff
10009e2c:	7fefffff 	.word	0x7fefffff
10009e30:	1000c110 	.word	0x1000c110
10009e34:	1000c9d0 	.word	0x1000c9d0
10009e38:	e9dd 5612 	ldrd	r5, r6, [sp, #72]	@ 0x48
10009e3c:	4628      	mov	r0, r5
10009e3e:	4631      	mov	r1, r6
10009e40:	f7f9 feba 	bl	10003bb8 <__wrap___aeabi_d2lz>
10009e44:	f7f9 fdb2 	bl	100039ac <__wrap___aeabi_l2d>
10009e48:	460b      	mov	r3, r1
10009e4a:	4602      	mov	r2, r0
10009e4c:	4631      	mov	r1, r6
10009e4e:	4628      	mov	r0, r5
10009e50:	f7f9 fc5e 	bl	10003710 <__wrap___aeabi_dsub>
10009e54:	9d04      	ldr	r5, [sp, #16]
10009e56:	9e0f      	ldr	r6, [sp, #60]	@ 0x3c
10009e58:	f3c4 0c13 	ubfx	ip, r4, #0, #20
10009e5c:	4604      	mov	r4, r0
10009e5e:	432e      	orrs	r6, r5
10009e60:	460d      	mov	r5, r1
10009e62:	ea56 030c 	orrs.w	r3, r6, ip
10009e66:	d126      	bne.n	10009eb6 <_strtod_l+0xaae>
10009e68:	a3c0      	add	r3, pc, #768	@ (adr r3, 1000a16c <_strtod_l+0xd64>)
10009e6a:	e9d3 2300 	ldrd	r2, r3, [r3]
10009e6e:	f7f9 fd51 	bl	10003914 <__wrap___aeabi_dcmplt>
10009e72:	2800      	cmp	r0, #0
10009e74:	f43f ad84 	beq.w	10009980 <_strtod_l+0x578>
10009e78:	46b9      	mov	r9, r7
10009e7a:	e9dd 6704 	ldrd	r6, r7, [sp, #16]
10009e7e:	9d1a      	ldr	r5, [sp, #104]	@ 0x68
10009e80:	e700      	b.n	10009c84 <_strtod_l+0x87c>
10009e82:	9302      	str	r3, [sp, #8]
10009e84:	a919      	add	r1, sp, #100	@ 0x64
10009e86:	9b08      	ldr	r3, [sp, #32]
10009e88:	4658      	mov	r0, fp
10009e8a:	4aaf      	ldr	r2, [pc, #700]	@ (1000a148 <_strtod_l+0xd40>)
10009e8c:	9301      	str	r3, [sp, #4]
10009e8e:	ab1a      	add	r3, sp, #104	@ 0x68
10009e90:	9300      	str	r3, [sp, #0]
10009e92:	ab1b      	add	r3, sp, #108	@ 0x6c
10009e94:	f000 ffd8 	bl	1000ae48 <__gethex>
10009e98:	f010 050f 	ands.w	r5, r0, #15
10009e9c:	4604      	mov	r4, r0
10009e9e:	f43f ae10 	beq.w	10009ac2 <_strtod_l+0x6ba>
10009ea2:	2d06      	cmp	r5, #6
10009ea4:	f040 808a 	bne.w	10009fbc <_strtod_l+0xbb4>
10009ea8:	1c7b      	adds	r3, r7, #1
10009eaa:	2200      	movs	r2, #0
10009eac:	2600      	movs	r6, #0
10009eae:	2700      	movs	r7, #0
10009eb0:	9208      	str	r2, [sp, #32]
10009eb2:	9319      	str	r3, [sp, #100]	@ 0x64
10009eb4:	e607      	b.n	10009ac6 <_strtod_l+0x6be>
10009eb6:	a39c      	add	r3, pc, #624	@ (adr r3, 1000a128 <_strtod_l+0xd20>)
10009eb8:	e9d3 2300 	ldrd	r2, r3, [r3]
10009ebc:	f7f9 fd2a 	bl	10003914 <__wrap___aeabi_dcmplt>
10009ec0:	2800      	cmp	r0, #0
10009ec2:	d1d9      	bne.n	10009e78 <_strtod_l+0xa70>
10009ec4:	4620      	mov	r0, r4
10009ec6:	4629      	mov	r1, r5
10009ec8:	a399      	add	r3, pc, #612	@ (adr r3, 1000a130 <_strtod_l+0xd28>)
10009eca:	e9d3 2300 	ldrd	r2, r3, [r3]
10009ece:	f7f9 fd5d 	bl	1000398c <__wrap___aeabi_dcmpgt>
10009ed2:	2800      	cmp	r0, #0
10009ed4:	f43f ad54 	beq.w	10009980 <_strtod_l+0x578>
10009ed8:	e7ce      	b.n	10009e78 <_strtod_l+0xa70>
10009eda:	9b04      	ldr	r3, [sp, #16]
10009edc:	2b01      	cmp	r3, #1
10009ede:	d18a      	bne.n	10009df6 <_strtod_l+0x9ee>
10009ee0:	f1b9 0f00 	cmp.w	r9, #0
10009ee4:	d187      	bne.n	10009df6 <_strtod_l+0x9ee>
10009ee6:	46b9      	mov	r9, r7
10009ee8:	9c1a      	ldr	r4, [sp, #104]	@ 0x68
10009eea:	2322      	movs	r3, #34	@ 0x22
10009eec:	4625      	mov	r5, r4
10009eee:	2600      	movs	r6, #0
10009ef0:	2700      	movs	r7, #0
10009ef2:	f8cb 3000 	str.w	r3, [fp]
10009ef6:	e6c5      	b.n	10009c84 <_strtod_l+0x87c>
10009ef8:	f101 7454 	add.w	r4, r1, #55574528	@ 0x3500000
10009efc:	9405      	str	r4, [sp, #20]
10009efe:	e537      	b.n	10009970 <_strtod_l+0x568>
10009f00:	ed9d 7b12 	vldr	d7, [sp, #72]	@ 0x48
10009f04:	ed8d 7b16 	vstr	d7, [sp, #88]	@ 0x58
10009f08:	e51b      	b.n	10009942 <_strtod_l+0x53a>
10009f0a:	2801      	cmp	r0, #1
10009f0c:	f340 823b 	ble.w	1000a386 <_strtod_l+0xf7e>
10009f10:	eb04 0e00 	add.w	lr, r4, r0
10009f14:	900c      	str	r0, [sp, #48]	@ 0x30
10009f16:	f10e 3cff 	add.w	ip, lr, #4294967295
10009f1a:	e002      	b.n	10009f22 <_strtod_l+0xb1a>
10009f1c:	0046      	lsls	r6, r0, #1
10009f1e:	4564      	cmp	r4, ip
10009f20:	d00b      	beq.n	10009f3a <_strtod_l+0xb32>
10009f22:	2c08      	cmp	r4, #8
10009f24:	eb06 0086 	add.w	r0, r6, r6, lsl #2
10009f28:	f104 0401 	add.w	r4, r4, #1
10009f2c:	ddf6      	ble.n	10009f1c <_strtod_l+0xb14>
10009f2e:	eb05 0385 	add.w	r3, r5, r5, lsl #2
10009f32:	2c10      	cmp	r4, #16
10009f34:	bfd8      	it	le
10009f36:	005d      	lslle	r5, r3, #1
10009f38:	e7f1      	b.n	10009f1e <_strtod_l+0xb16>
10009f3a:	980c      	ldr	r0, [sp, #48]	@ 0x30
10009f3c:	4674      	mov	r4, lr
10009f3e:	9b09      	ldr	r3, [sp, #36]	@ 0x24
10009f40:	f1bc 0f08 	cmp.w	ip, #8
10009f44:	4403      	add	r3, r0
10009f46:	9309      	str	r3, [sp, #36]	@ 0x24
10009f48:	f77f af42 	ble.w	10009dd0 <_strtod_l+0x9c8>
10009f4c:	2c10      	cmp	r4, #16
10009f4e:	f04f 0000 	mov.w	r0, #0
10009f52:	bfdc      	itt	le
10009f54:	eb05 0585 	addle.w	r5, r5, r5, lsl #2
10009f58:	eb02 0545 	addle.w	r5, r2, r5, lsl #1
10009f5c:	f7ff bb01 	b.w	10009562 <_strtod_l+0x15a>
10009f60:	497a      	ldr	r1, [pc, #488]	@ (1000a14c <_strtod_l+0xd44>)
10009f62:	a819      	add	r0, sp, #100	@ 0x64
10009f64:	f001 fa3e 	bl	1000b3e4 <__match>
10009f68:	2800      	cmp	r0, #0
10009f6a:	f43f ab0b 	beq.w	10009584 <_strtod_l+0x17c>
10009f6e:	9b19      	ldr	r3, [sp, #100]	@ 0x64
10009f70:	a819      	add	r0, sp, #100	@ 0x64
10009f72:	4977      	ldr	r1, [pc, #476]	@ (1000a150 <_strtod_l+0xd48>)
10009f74:	3b01      	subs	r3, #1
10009f76:	9319      	str	r3, [sp, #100]	@ 0x64
10009f78:	f001 fa34 	bl	1000b3e4 <__match>
10009f7c:	b910      	cbnz	r0, 10009f84 <_strtod_l+0xb7c>
10009f7e:	9b19      	ldr	r3, [sp, #100]	@ 0x64
10009f80:	3301      	adds	r3, #1
10009f82:	9319      	str	r3, [sp, #100]	@ 0x64
10009f84:	2600      	movs	r6, #0
10009f86:	4f73      	ldr	r7, [pc, #460]	@ (1000a154 <_strtod_l+0xd4c>)
10009f88:	e59d      	b.n	10009ac6 <_strtod_l+0x6be>
10009f8a:	f644 621f 	movw	r2, #19999	@ 0x4e1f
10009f8e:	4594      	cmp	ip, r2
10009f90:	bfa8      	it	ge
10009f92:	4694      	movge	ip, r2
10009f94:	f8cd c038 	str.w	ip, [sp, #56]	@ 0x38
10009f98:	e58b      	b.n	10009ab2 <_strtod_l+0x6aa>
10009f9a:	980d      	ldr	r0, [sp, #52]	@ 0x34
10009f9c:	496e      	ldr	r1, [pc, #440]	@ (1000a158 <_strtod_l+0xd50>)
10009f9e:	eb01 01c0 	add.w	r1, r1, r0, lsl #3
10009fa2:	e9dd 2304 	ldrd	r2, r3, [sp, #16]
10009fa6:	e9d1 0100 	ldrd	r0, r1, [r1]
10009faa:	f7f9 fbc5 	bl	10003738 <__wrap___aeabi_dmul>
10009fae:	4606      	mov	r6, r0
10009fb0:	460f      	mov	r7, r1
10009fb2:	e588      	b.n	10009ac6 <_strtod_l+0x6be>
10009fb4:	2322      	movs	r3, #34	@ 0x22
10009fb6:	f8cb 3000 	str.w	r3, [fp]
10009fba:	e7e3      	b.n	10009f84 <_strtod_l+0xb7c>
10009fbc:	9a1a      	ldr	r2, [sp, #104]	@ 0x68
10009fbe:	b13a      	cbz	r2, 10009fd0 <_strtod_l+0xbc8>
10009fc0:	2135      	movs	r1, #53	@ 0x35
10009fc2:	a81c      	add	r0, sp, #112	@ 0x70
10009fc4:	f001 ffdc 	bl	1000bf80 <__copybits>
10009fc8:	4658      	mov	r0, fp
10009fca:	991a      	ldr	r1, [sp, #104]	@ 0x68
10009fcc:	f001 fb2a 	bl	1000b624 <_Bfree>
10009fd0:	3d01      	subs	r5, #1
10009fd2:	9b1b      	ldr	r3, [sp, #108]	@ 0x6c
10009fd4:	2d04      	cmp	r5, #4
10009fd6:	f200 81d9 	bhi.w	1000a38c <_strtod_l+0xf84>
10009fda:	e8df f005 	tbb	[pc, r5]
10009fde:	2c03      	.short	0x2c03
10009fe0:	1e29      	.short	0x1e29
10009fe2:	03          	.byte	0x03
10009fe3:	00          	.byte	0x00
10009fe4:	f203 4233 	addw	r2, r3, #1075	@ 0x433
10009fe8:	9b1c      	ldr	r3, [sp, #112]	@ 0x70
10009fea:	9304      	str	r3, [sp, #16]
10009fec:	9b1d      	ldr	r3, [sp, #116]	@ 0x74
10009fee:	f423 1380 	bic.w	r3, r3, #1048576	@ 0x100000
10009ff2:	ea43 5302 	orr.w	r3, r3, r2, lsl #20
10009ff6:	9305      	str	r3, [sp, #20]
10009ff8:	05e2      	lsls	r2, r4, #23
10009ffa:	d502      	bpl.n	1000a002 <_strtod_l+0xbfa>
10009ffc:	f043 4300 	orr.w	r3, r3, #2147483648	@ 0x80000000
1000a000:	9305      	str	r3, [sp, #20]
1000a002:	4a54      	ldr	r2, [pc, #336]	@ (1000a154 <_strtod_l+0xd4c>)
1000a004:	401a      	ands	r2, r3
1000a006:	e9dd 6704 	ldrd	r6, r7, [sp, #16]
1000a00a:	2a00      	cmp	r2, #0
1000a00c:	f47f ad5b 	bne.w	10009ac6 <_strtod_l+0x6be>
1000a010:	f7fc fce6 	bl	100069e0 <__errno>
1000a014:	2322      	movs	r3, #34	@ 0x22
1000a016:	6003      	str	r3, [r0, #0]
1000a018:	e555      	b.n	10009ac6 <_strtod_l+0x6be>
1000a01a:	f04f 32ff 	mov.w	r2, #4294967295
1000a01e:	f06f 4300 	mvn.w	r3, #2147483648	@ 0x80000000
1000a022:	e9cd 2304 	strd	r2, r3, [sp, #16]
1000a026:	05e3      	lsls	r3, r4, #23
1000a028:	f57f aee2 	bpl.w	10009df0 <_strtod_l+0x9e8>
1000a02c:	9b05      	ldr	r3, [sp, #20]
1000a02e:	e7e5      	b.n	10009ffc <_strtod_l+0xbf4>
1000a030:	4b48      	ldr	r3, [pc, #288]	@ (1000a154 <_strtod_l+0xd4c>)
1000a032:	9305      	str	r3, [sp, #20]
1000a034:	e7f7      	b.n	1000a026 <_strtod_l+0xc1e>
1000a036:	e9dd 121c 	ldrd	r1, r2, [sp, #112]	@ 0x70
1000a03a:	9b1d      	ldr	r3, [sp, #116]	@ 0x74
1000a03c:	e9cd 1204 	strd	r1, r2, [sp, #16]
1000a040:	e7da      	b.n	10009ff8 <_strtod_l+0xbf0>
1000a042:	4650      	mov	r0, sl
1000a044:	e6b7      	b.n	10009db6 <_strtod_l+0x9ae>
1000a046:	ed9f 7b3c 	vldr	d7, [pc, #240]	@ 1000a138 <_strtod_l+0xd30>
1000a04a:	ed8d 7b10 	vstr	d7, [sp, #64]	@ 0x40
1000a04e:	ed9f 7b3c 	vldr	d7, [pc, #240]	@ 1000a140 <_strtod_l+0xd38>
1000a052:	ed8d 7b12 	vstr	d7, [sp, #72]	@ 0x48
1000a056:	e44a      	b.n	100098ee <_strtod_l+0x4e6>
1000a058:	464b      	mov	r3, r9
1000a05a:	980f      	ldr	r0, [sp, #60]	@ 0x3c
1000a05c:	46b6      	mov	lr, r6
1000a05e:	46b9      	mov	r9, r7
1000a060:	46ac      	mov	ip, r5
1000a062:	493e      	ldr	r1, [pc, #248]	@ (1000a15c <_strtod_l+0xd54>)
1000a064:	f3c3 0213 	ubfx	r2, r3, #0, #20
1000a068:	e9dd 670a 	ldrd	r6, r7, [sp, #40]	@ 0x28
1000a06c:	2800      	cmp	r0, #0
1000a06e:	f000 80b5 	beq.w	1000a1dc <_strtod_l+0xdd4>
1000a072:	428a      	cmp	r2, r1
1000a074:	f000 810a 	beq.w	1000a28c <_strtod_l+0xe84>
1000a078:	bba5      	cbnz	r5, 1000a0e4 <_strtod_l+0xcdc>
1000a07a:	9a04      	ldr	r2, [sp, #16]
1000a07c:	ea1e 0f02 	tst.w	lr, r2
1000a080:	d033      	beq.n	1000a0ea <_strtod_l+0xce2>
1000a082:	4630      	mov	r0, r6
1000a084:	4639      	mov	r1, r7
1000a086:	9304      	str	r3, [sp, #16]
1000a088:	f001 fe64 	bl	1000bd54 <__ulp>
1000a08c:	9b0c      	ldr	r3, [sp, #48]	@ 0x30
1000a08e:	2b00      	cmp	r3, #0
1000a090:	f000 8125 	beq.w	1000a2de <_strtod_l+0xed6>
1000a094:	9b04      	ldr	r3, [sp, #16]
1000a096:	f3c3 530a 	ubfx	r3, r3, #20, #11
1000a09a:	f1c3 0c6b 	rsb	ip, r3, #107	@ 0x6b
1000a09e:	f1bc 0f00 	cmp.w	ip, #0
1000a0a2:	f340 8165 	ble.w	1000a370 <_strtod_l+0xf68>
1000a0a6:	4c2e      	ldr	r4, [pc, #184]	@ (1000a160 <_strtod_l+0xd58>)
1000a0a8:	2200      	movs	r2, #0
1000a0aa:	eb04 530c 	add.w	r3, r4, ip, lsl #20
1000a0ae:	f7f9 fb43 	bl	10003738 <__wrap___aeabi_dmul>
1000a0b2:	4602      	mov	r2, r0
1000a0b4:	460b      	mov	r3, r1
1000a0b6:	4630      	mov	r0, r6
1000a0b8:	4639      	mov	r1, r7
1000a0ba:	f7f9 fb15 	bl	100036e8 <__wrap___aeabi_dadd>
1000a0be:	4606      	mov	r6, r0
1000a0c0:	460f      	mov	r7, r1
1000a0c2:	4630      	mov	r0, r6
1000a0c4:	4639      	mov	r1, r7
1000a0c6:	4b27      	ldr	r3, [pc, #156]	@ (1000a164 <_strtod_l+0xd5c>)
1000a0c8:	2200      	movs	r2, #0
1000a0ca:	f7f9 fb35 	bl	10003738 <__wrap___aeabi_dmul>
1000a0ce:	4b21      	ldr	r3, [pc, #132]	@ (1000a154 <_strtod_l+0xd4c>)
1000a0d0:	4606      	mov	r6, r0
1000a0d2:	460f      	mov	r7, r1
1000a0d4:	400b      	ands	r3, r1
1000a0d6:	2b00      	cmp	r3, #0
1000a0d8:	f47f aed1 	bne.w	10009e7e <_strtod_l+0xa76>
1000a0dc:	2322      	movs	r3, #34	@ 0x22
1000a0de:	f8cb 3000 	str.w	r3, [fp]
1000a0e2:	e6cc      	b.n	10009e7e <_strtod_l+0xa76>
1000a0e4:	ea1c 0f03 	tst.w	ip, r3
1000a0e8:	d1cb      	bne.n	1000a082 <_strtod_l+0xc7a>
1000a0ea:	9b0c      	ldr	r3, [sp, #48]	@ 0x30
1000a0ec:	2b00      	cmp	r3, #0
1000a0ee:	d1e8      	bne.n	1000a0c2 <_strtod_l+0xcba>
1000a0f0:	e6c5      	b.n	10009e7e <_strtod_l+0xa76>
1000a0f2:	a819      	add	r0, sp, #100	@ 0x64
1000a0f4:	aa1c      	add	r2, sp, #112	@ 0x70
1000a0f6:	491c      	ldr	r1, [pc, #112]	@ (1000a168 <_strtod_l+0xd60>)
1000a0f8:	f001 f98e 	bl	1000b418 <__hexnan>
1000a0fc:	2805      	cmp	r0, #5
1000a0fe:	f47f aa75 	bne.w	100095ec <_strtod_l+0x1e4>
1000a102:	9b1d      	ldr	r3, [sp, #116]	@ 0x74
1000a104:	f043 43ff 	orr.w	r3, r3, #2139095040	@ 0x7f800000
1000a108:	f443 03e0 	orr.w	r3, r3, #7340032	@ 0x700000
1000a10c:	9305      	str	r3, [sp, #20]
1000a10e:	9b1c      	ldr	r3, [sp, #112]	@ 0x70
1000a110:	9304      	str	r3, [sp, #16]
1000a112:	e9dd 6704 	ldrd	r6, r7, [sp, #16]
1000a116:	e4d6      	b.n	10009ac6 <_strtod_l+0x6be>
1000a118:	f102 7354 	add.w	r3, r2, #55574528	@ 0x3500000
1000a11c:	9305      	str	r3, [sp, #20]
1000a11e:	f7ff bb37 	b.w	10009790 <_strtod_l+0x388>
1000a122:	bf00      	nop
1000a124:	f3af 8000 	nop.w
1000a128:	94a03595 	.word	0x94a03595
1000a12c:	3fdfffff 	.word	0x3fdfffff
1000a130:	35afe535 	.word	0x35afe535
1000a134:	3fe00000 	.word	0x3fe00000
1000a138:	00000000 	.word	0x00000000
1000a13c:	bfe00000 	.word	0xbfe00000
1000a140:	00000000 	.word	0x00000000
1000a144:	3fe00000 	.word	0x3fe00000
1000a148:	1000c9b8 	.word	0x1000c9b8
1000a14c:	1000c674 	.word	0x1000c674
1000a150:	1000c678 	.word	0x1000c678
1000a154:	7ff00000 	.word	0x7ff00000
1000a158:	10010000 	.word	0x10010000
1000a15c:	000fffff 	.word	0x000fffff
1000a160:	3ff00000 	.word	0x3ff00000
1000a164:	39500000 	.word	0x39500000
1000a168:	1000c9a4 	.word	0x1000c9a4
1000a16c:	94a03595 	.word	0x94a03595
1000a170:	3fcfffff 	.word	0x3fcfffff
1000a174:	9b0f      	ldr	r3, [sp, #60]	@ 0x3c
1000a176:	46b9      	mov	r9, r7
1000a178:	e9dd 0104 	ldrd	r0, r1, [sp, #16]
1000a17c:	e9dd 670a 	ldrd	r6, r7, [sp, #40]	@ 0x28
1000a180:	4303      	orrs	r3, r0
1000a182:	d1b2      	bne.n	1000a0ea <_strtod_l+0xce2>
1000a184:	f3c1 0313 	ubfx	r3, r1, #0, #20
1000a188:	2b00      	cmp	r3, #0
1000a18a:	d1ae      	bne.n	1000a0ea <_strtod_l+0xce2>
1000a18c:	f021 4400 	bic.w	r4, r1, #2147483648	@ 0x80000000
1000a190:	0d24      	lsrs	r4, r4, #20
1000a192:	0524      	lsls	r4, r4, #20
1000a194:	f1b4 6fd6 	cmp.w	r4, #112197632	@ 0x6b00000
1000a198:	4625      	mov	r5, r4
1000a19a:	d9a6      	bls.n	1000a0ea <_strtod_l+0xce2>
1000a19c:	9a09      	ldr	r2, [sp, #36]	@ 0x24
1000a19e:	6953      	ldr	r3, [r2, #20]
1000a1a0:	b913      	cbnz	r3, 1000a1a8 <_strtod_l+0xda0>
1000a1a2:	6913      	ldr	r3, [r2, #16]
1000a1a4:	2b01      	cmp	r3, #1
1000a1a6:	dda0      	ble.n	1000a0ea <_strtod_l+0xce2>
1000a1a8:	9909      	ldr	r1, [sp, #36]	@ 0x24
1000a1aa:	2201      	movs	r2, #1
1000a1ac:	4658      	mov	r0, fp
1000a1ae:	f001 fc7b 	bl	1000baa8 <__lshift>
1000a1b2:	4651      	mov	r1, sl
1000a1b4:	9009      	str	r0, [sp, #36]	@ 0x24
1000a1b6:	f001 fceb 	bl	1000bb90 <__mcmp>
1000a1ba:	2800      	cmp	r0, #0
1000a1bc:	dd95      	ble.n	1000a0ea <_strtod_l+0xce2>
1000a1be:	9b0c      	ldr	r3, [sp, #48]	@ 0x30
1000a1c0:	b1d3      	cbz	r3, 1000a1f8 <_strtod_l+0xdf0>
1000a1c2:	f5a5 1380 	sub.w	r3, r5, #1048576	@ 0x100000
1000a1c6:	ea6f 5313 	mvn.w	r3, r3, lsr #20
1000a1ca:	ea6f 5303 	mvn.w	r3, r3, lsl #20
1000a1ce:	9305      	str	r3, [sp, #20]
1000a1d0:	f04f 33ff 	mov.w	r3, #4294967295
1000a1d4:	9304      	str	r3, [sp, #16]
1000a1d6:	e9dd 6704 	ldrd	r6, r7, [sp, #16]
1000a1da:	e772      	b.n	1000a0c2 <_strtod_l+0xcba>
1000a1dc:	b9d2      	cbnz	r2, 1000a214 <_strtod_l+0xe0c>
1000a1de:	e9dd 4504 	ldrd	r4, r5, [sp, #16]
1000a1e2:	4622      	mov	r2, r4
1000a1e4:	2c00      	cmp	r4, #0
1000a1e6:	d149      	bne.n	1000a27c <_strtod_l+0xe74>
1000a1e8:	9a0c      	ldr	r2, [sp, #48]	@ 0x30
1000a1ea:	2a00      	cmp	r2, #0
1000a1ec:	f040 808e 	bne.w	1000a30c <_strtod_l+0xf04>
1000a1f0:	f025 4400 	bic.w	r4, r5, #2147483648	@ 0x80000000
1000a1f4:	0d24      	lsrs	r4, r4, #20
1000a1f6:	0524      	lsls	r4, r4, #20
1000a1f8:	f5a4 1480 	sub.w	r4, r4, #1048576	@ 0x100000
1000a1fc:	9d1a      	ldr	r5, [sp, #104]	@ 0x68
1000a1fe:	ea6f 5314 	mvn.w	r3, r4, lsr #20
1000a202:	ea6f 5303 	mvn.w	r3, r3, lsl #20
1000a206:	9305      	str	r3, [sp, #20]
1000a208:	f04f 33ff 	mov.w	r3, #4294967295
1000a20c:	9304      	str	r3, [sp, #16]
1000a20e:	e9dd 6704 	ldrd	r6, r7, [sp, #16]
1000a212:	e537      	b.n	10009c84 <_strtod_l+0x87c>
1000a214:	bbad      	cbnz	r5, 1000a282 <_strtod_l+0xe7a>
1000a216:	9a04      	ldr	r2, [sp, #16]
1000a218:	ea1e 0f02 	tst.w	lr, r2
1000a21c:	f43f af65 	beq.w	1000a0ea <_strtod_l+0xce2>
1000a220:	4630      	mov	r0, r6
1000a222:	4639      	mov	r1, r7
1000a224:	9304      	str	r3, [sp, #16]
1000a226:	f001 fd95 	bl	1000bd54 <__ulp>
1000a22a:	9b0c      	ldr	r3, [sp, #48]	@ 0x30
1000a22c:	2b00      	cmp	r3, #0
1000a22e:	f000 8086 	beq.w	1000a33e <_strtod_l+0xf36>
1000a232:	9b04      	ldr	r3, [sp, #16]
1000a234:	f3c3 530a 	ubfx	r3, r3, #20, #11
1000a238:	f1c3 0c6b 	rsb	ip, r3, #107	@ 0x6b
1000a23c:	f1bc 0f00 	cmp.w	ip, #0
1000a240:	f340 809e 	ble.w	1000a380 <_strtod_l+0xf78>
1000a244:	4c52      	ldr	r4, [pc, #328]	@ (1000a390 <_strtod_l+0xf88>)
1000a246:	2200      	movs	r2, #0
1000a248:	eb04 530c 	add.w	r3, r4, ip, lsl #20
1000a24c:	f7f9 fa74 	bl	10003738 <__wrap___aeabi_dmul>
1000a250:	4602      	mov	r2, r0
1000a252:	460b      	mov	r3, r1
1000a254:	4630      	mov	r0, r6
1000a256:	4639      	mov	r1, r7
1000a258:	f7f9 fa5a 	bl	10003710 <__wrap___aeabi_dsub>
1000a25c:	2200      	movs	r2, #0
1000a25e:	2300      	movs	r3, #0
1000a260:	4606      	mov	r6, r0
1000a262:	460f      	mov	r7, r1
1000a264:	f7f9 fb44 	bl	100038f0 <__wrap___aeabi_dcmpeq>
1000a268:	2800      	cmp	r0, #0
1000a26a:	f43f af2a 	beq.w	1000a0c2 <_strtod_l+0xcba>
1000a26e:	e63b      	b.n	10009ee8 <_strtod_l+0xae0>
1000a270:	f04f 0900 	mov.w	r9, #0
1000a274:	f8df e124 	ldr.w	lr, [pc, #292]	@ 1000a39c <_strtod_l+0xf94>
1000a278:	f7ff ba6c 	b.w	10009754 <_strtod_l+0x34c>
1000a27c:	f1bc 0f00 	cmp.w	ip, #0
1000a280:	d0ca      	beq.n	1000a218 <_strtod_l+0xe10>
1000a282:	ea1c 0f03 	tst.w	ip, r3
1000a286:	f43f af30 	beq.w	1000a0ea <_strtod_l+0xce2>
1000a28a:	e7c9      	b.n	1000a220 <_strtod_l+0xe18>
1000a28c:	9a0c      	ldr	r2, [sp, #48]	@ 0x30
1000a28e:	9c04      	ldr	r4, [sp, #16]
1000a290:	b1d2      	cbz	r2, 1000a2c8 <_strtod_l+0xec0>
1000a292:	4a40      	ldr	r2, [pc, #256]	@ (1000a394 <_strtod_l+0xf8c>)
1000a294:	401a      	ands	r2, r3
1000a296:	f1b2 6fd4 	cmp.w	r2, #111149056	@ 0x6a00000
1000a29a:	d815      	bhi.n	1000a2c8 <_strtod_l+0xec0>
1000a29c:	0d10      	lsrs	r0, r2, #20
1000a29e:	f04f 31ff 	mov.w	r1, #4294967295
1000a2a2:	f1c0 006b 	rsb	r0, r0, #107	@ 0x6b
1000a2a6:	4081      	lsls	r1, r0
1000a2a8:	428c      	cmp	r4, r1
1000a2aa:	d027      	beq.n	1000a2fc <_strtod_l+0xef4>
1000a2ac:	2d00      	cmp	r5, #0
1000a2ae:	d062      	beq.n	1000a376 <_strtod_l+0xf6e>
1000a2b0:	421d      	tst	r5, r3
1000a2b2:	f43f af06 	beq.w	1000a0c2 <_strtod_l+0xcba>
1000a2b6:	e6e4      	b.n	1000a082 <_strtod_l+0xc7a>
1000a2b8:	f04f 32ff 	mov.w	r2, #4294967295
1000a2bc:	fa02 f303 	lsl.w	r3, r2, r3
1000a2c0:	9a04      	ldr	r2, [sp, #16]
1000a2c2:	401a      	ands	r2, r3
1000a2c4:	9204      	str	r2, [sp, #16]
1000a2c6:	e47d      	b.n	10009bc4 <_strtod_l+0x7bc>
1000a2c8:	1c62      	adds	r2, r4, #1
1000a2ca:	d012      	beq.n	1000a2f2 <_strtod_l+0xeea>
1000a2cc:	f1bc 0f00 	cmp.w	ip, #0
1000a2d0:	f47f af08 	bne.w	1000a0e4 <_strtod_l+0xcdc>
1000a2d4:	ea14 0f0e 	tst.w	r4, lr
1000a2d8:	f43f af07 	beq.w	1000a0ea <_strtod_l+0xce2>
1000a2dc:	e6d1      	b.n	1000a082 <_strtod_l+0xc7a>
1000a2de:	4602      	mov	r2, r0
1000a2e0:	460b      	mov	r3, r1
1000a2e2:	4630      	mov	r0, r6
1000a2e4:	4639      	mov	r1, r7
1000a2e6:	f7f9 f9ff 	bl	100036e8 <__wrap___aeabi_dadd>
1000a2ea:	9d1a      	ldr	r5, [sp, #104]	@ 0x68
1000a2ec:	4606      	mov	r6, r0
1000a2ee:	460f      	mov	r7, r1
1000a2f0:	e4c8      	b.n	10009c84 <_strtod_l+0x87c>
1000a2f2:	4a29      	ldr	r2, [pc, #164]	@ (1000a398 <_strtod_l+0xf90>)
1000a2f4:	4293      	cmp	r3, r2
1000a2f6:	d034      	beq.n	1000a362 <_strtod_l+0xf5a>
1000a2f8:	3201      	adds	r2, #1
1000a2fa:	401a      	ands	r2, r3
1000a2fc:	f502 1380 	add.w	r3, r2, #1048576	@ 0x100000
1000a300:	9305      	str	r3, [sp, #20]
1000a302:	2300      	movs	r3, #0
1000a304:	9304      	str	r3, [sp, #16]
1000a306:	e9dd 6704 	ldrd	r6, r7, [sp, #16]
1000a30a:	e6ee      	b.n	1000a0ea <_strtod_l+0xce2>
1000a30c:	4d21      	ldr	r5, [pc, #132]	@ (1000a394 <_strtod_l+0xf8c>)
1000a30e:	401d      	ands	r5, r3
1000a310:	f1b5 6fd6 	cmp.w	r5, #112197632	@ 0x6b00000
1000a314:	f63f af55 	bhi.w	1000a1c2 <_strtod_l+0xdba>
1000a318:	f1b5 7f5c 	cmp.w	r5, #57671680	@ 0x3700000
1000a31c:	f63f aed1 	bhi.w	1000a0c2 <_strtod_l+0xcba>
1000a320:	2322      	movs	r3, #34	@ 0x22
1000a322:	9d1a      	ldr	r5, [sp, #104]	@ 0x68
1000a324:	2600      	movs	r6, #0
1000a326:	2700      	movs	r7, #0
1000a328:	f8cb 3000 	str.w	r3, [fp]
1000a32c:	e4aa      	b.n	10009c84 <_strtod_l+0x87c>
1000a32e:	f1c2 024b 	rsb	r2, r2, #75	@ 0x4b
1000a332:	f04f 33ff 	mov.w	r3, #4294967295
1000a336:	4093      	lsls	r3, r2
1000a338:	400b      	ands	r3, r1
1000a33a:	9305      	str	r3, [sp, #20]
1000a33c:	e442      	b.n	10009bc4 <_strtod_l+0x7bc>
1000a33e:	4602      	mov	r2, r0
1000a340:	460b      	mov	r3, r1
1000a342:	4630      	mov	r0, r6
1000a344:	4639      	mov	r1, r7
1000a346:	f7f9 f9e3 	bl	10003710 <__wrap___aeabi_dsub>
1000a34a:	9c1a      	ldr	r4, [sp, #104]	@ 0x68
1000a34c:	2200      	movs	r2, #0
1000a34e:	2300      	movs	r3, #0
1000a350:	4606      	mov	r6, r0
1000a352:	460f      	mov	r7, r1
1000a354:	4625      	mov	r5, r4
1000a356:	f7f9 facb 	bl	100038f0 <__wrap___aeabi_dcmpeq>
1000a35a:	2800      	cmp	r0, #0
1000a35c:	f43f ac92 	beq.w	10009c84 <_strtod_l+0x87c>
1000a360:	e5c3      	b.n	10009eea <_strtod_l+0xae2>
1000a362:	2322      	movs	r3, #34	@ 0x22
1000a364:	9d1a      	ldr	r5, [sp, #104]	@ 0x68
1000a366:	2600      	movs	r6, #0
1000a368:	4f0a      	ldr	r7, [pc, #40]	@ (1000a394 <_strtod_l+0xf8c>)
1000a36a:	f8cb 3000 	str.w	r3, [fp]
1000a36e:	e489      	b.n	10009c84 <_strtod_l+0x87c>
1000a370:	4602      	mov	r2, r0
1000a372:	460b      	mov	r3, r1
1000a374:	e69f      	b.n	1000a0b6 <_strtod_l+0xcae>
1000a376:	ea14 0f0e 	tst.w	r4, lr
1000a37a:	f43f aea2 	beq.w	1000a0c2 <_strtod_l+0xcba>
1000a37e:	e680      	b.n	1000a082 <_strtod_l+0xc7a>
1000a380:	4602      	mov	r2, r0
1000a382:	460b      	mov	r3, r1
1000a384:	e766      	b.n	1000a254 <_strtod_l+0xe4c>
1000a386:	46a4      	mov	ip, r4
1000a388:	3401      	adds	r4, #1
1000a38a:	e5d8      	b.n	10009f3e <_strtod_l+0xb36>
1000a38c:	2300      	movs	r3, #0
1000a38e:	e633      	b.n	10009ff8 <_strtod_l+0xbf0>
1000a390:	3ff00000 	.word	0x3ff00000
1000a394:	7ff00000 	.word	0x7ff00000
1000a398:	7fefffff 	.word	0x7fefffff
1000a39c:	1000ffd8 	.word	0x1000ffd8

1000a3a0 <_strtod_r>:
1000a3a0:	4b01      	ldr	r3, [pc, #4]	@ (1000a3a8 <_strtod_r+0x8>)
1000a3a2:	f7ff b831 	b.w	10009408 <_strtod_l>
1000a3a6:	bf00      	nop
1000a3a8:	20000c5c 	.word	0x20000c5c

1000a3ac <_strtol_l.part.0>:
1000a3ac:	e92d 4ff0 	stmdb	sp!, {r4, r5, r6, r7, r8, r9, sl, fp, lr}
1000a3b0:	4682      	mov	sl, r0
1000a3b2:	468e      	mov	lr, r1
1000a3b4:	483f      	ldr	r0, [pc, #252]	@ (1000a4b4 <_strtol_l.part.0+0x108>)
1000a3b6:	4675      	mov	r5, lr
1000a3b8:	f81e bb01 	ldrb.w	fp, [lr], #1
1000a3bc:	f810 400b 	ldrb.w	r4, [r0, fp]
1000a3c0:	f014 0408 	ands.w	r4, r4, #8
1000a3c4:	d1f7      	bne.n	1000a3b6 <_strtol_l.part.0+0xa>
1000a3c6:	f1bb 0f2d 	cmp.w	fp, #45	@ 0x2d
1000a3ca:	d05b      	beq.n	1000a484 <_strtol_l.part.0+0xd8>
1000a3cc:	f1bb 0f2b 	cmp.w	fp, #43	@ 0x2b
1000a3d0:	f06f 4900 	mvn.w	r9, #2147483648	@ 0x80000000
1000a3d4:	bf04      	itt	eq
1000a3d6:	f89e b000 	ldrbeq.w	fp, [lr]
1000a3da:	f105 0e02 	addeq.w	lr, r5, #2
1000a3de:	f033 0010 	bics.w	r0, r3, #16
1000a3e2:	d110      	bne.n	1000a406 <_strtol_l.part.0+0x5a>
1000a3e4:	f1bb 0f30 	cmp.w	fp, #48	@ 0x30
1000a3e8:	d004      	beq.n	1000a3f4 <_strtol_l.part.0+0x48>
1000a3ea:	2b00      	cmp	r3, #0
1000a3ec:	d15e      	bne.n	1000a4ac <_strtol_l.part.0+0x100>
1000a3ee:	230a      	movs	r3, #10
1000a3f0:	461f      	mov	r7, r3
1000a3f2:	e009      	b.n	1000a408 <_strtol_l.part.0+0x5c>
1000a3f4:	f89e 0000 	ldrb.w	r0, [lr]
1000a3f8:	f000 00df 	and.w	r0, r0, #223	@ 0xdf
1000a3fc:	2858      	cmp	r0, #88	@ 0x58
1000a3fe:	d04e      	beq.n	1000a49e <_strtol_l.part.0+0xf2>
1000a400:	2b00      	cmp	r3, #0
1000a402:	d153      	bne.n	1000a4ac <_strtol_l.part.0+0x100>
1000a404:	2308      	movs	r3, #8
1000a406:	461f      	mov	r7, r3
1000a408:	2500      	movs	r5, #0
1000a40a:	fbb9 f6f7 	udiv	r6, r9, r7
1000a40e:	4628      	mov	r0, r5
1000a410:	fb07 9816 	mls	r8, r7, r6, r9
1000a414:	e00e      	b.n	1000a434 <_strtol_l.part.0+0x88>
1000a416:	f1ab 0c37 	sub.w	ip, fp, #55	@ 0x37
1000a41a:	4563      	cmp	r3, ip
1000a41c:	dd1d      	ble.n	1000a45a <_strtol_l.part.0+0xae>
1000a41e:	2d00      	cmp	r5, #0
1000a420:	db04      	blt.n	1000a42c <_strtol_l.part.0+0x80>
1000a422:	4286      	cmp	r6, r0
1000a424:	d302      	bcc.n	1000a42c <_strtol_l.part.0+0x80>
1000a426:	d121      	bne.n	1000a46c <_strtol_l.part.0+0xc0>
1000a428:	45e0      	cmp	r8, ip
1000a42a:	da1f      	bge.n	1000a46c <_strtol_l.part.0+0xc0>
1000a42c:	f04f 35ff 	mov.w	r5, #4294967295
1000a430:	f81e bb01 	ldrb.w	fp, [lr], #1
1000a434:	f1ab 0c30 	sub.w	ip, fp, #48	@ 0x30
1000a438:	f1bc 0f09 	cmp.w	ip, #9
1000a43c:	d9ed      	bls.n	1000a41a <_strtol_l.part.0+0x6e>
1000a43e:	f1ab 0c41 	sub.w	ip, fp, #65	@ 0x41
1000a442:	f1bc 0f19 	cmp.w	ip, #25
1000a446:	d9e6      	bls.n	1000a416 <_strtol_l.part.0+0x6a>
1000a448:	f1ab 0c61 	sub.w	ip, fp, #97	@ 0x61
1000a44c:	f1bc 0f19 	cmp.w	ip, #25
1000a450:	d803      	bhi.n	1000a45a <_strtol_l.part.0+0xae>
1000a452:	f1ab 0c57 	sub.w	ip, fp, #87	@ 0x57
1000a456:	4563      	cmp	r3, ip
1000a458:	dce1      	bgt.n	1000a41e <_strtol_l.part.0+0x72>
1000a45a:	1c6b      	adds	r3, r5, #1
1000a45c:	d00a      	beq.n	1000a474 <_strtol_l.part.0+0xc8>
1000a45e:	b104      	cbz	r4, 1000a462 <_strtol_l.part.0+0xb6>
1000a460:	4240      	negs	r0, r0
1000a462:	b10a      	cbz	r2, 1000a468 <_strtol_l.part.0+0xbc>
1000a464:	b9cd      	cbnz	r5, 1000a49a <_strtol_l.part.0+0xee>
1000a466:	6011      	str	r1, [r2, #0]
1000a468:	e8bd 8ff0 	ldmia.w	sp!, {r4, r5, r6, r7, r8, r9, sl, fp, pc}
1000a46c:	fb07 c000 	mla	r0, r7, r0, ip
1000a470:	2501      	movs	r5, #1
1000a472:	e7dd      	b.n	1000a430 <_strtol_l.part.0+0x84>
1000a474:	2322      	movs	r3, #34	@ 0x22
1000a476:	f8ca 3000 	str.w	r3, [sl]
1000a47a:	b15a      	cbz	r2, 1000a494 <_strtol_l.part.0+0xe8>
1000a47c:	f10e 31ff 	add.w	r1, lr, #4294967295
1000a480:	4648      	mov	r0, r9
1000a482:	e7f0      	b.n	1000a466 <_strtol_l.part.0+0xba>
1000a484:	f89e b000 	ldrb.w	fp, [lr]
1000a488:	f04f 4900 	mov.w	r9, #2147483648	@ 0x80000000
1000a48c:	f105 0e02 	add.w	lr, r5, #2
1000a490:	2401      	movs	r4, #1
1000a492:	e7a4      	b.n	1000a3de <_strtol_l.part.0+0x32>
1000a494:	4648      	mov	r0, r9
1000a496:	e8bd 8ff0 	ldmia.w	sp!, {r4, r5, r6, r7, r8, r9, sl, fp, pc}
1000a49a:	4681      	mov	r9, r0
1000a49c:	e7ee      	b.n	1000a47c <_strtol_l.part.0+0xd0>
1000a49e:	2310      	movs	r3, #16
1000a4a0:	f89e b001 	ldrb.w	fp, [lr, #1]
1000a4a4:	f10e 0e02 	add.w	lr, lr, #2
1000a4a8:	461f      	mov	r7, r3
1000a4aa:	e7ad      	b.n	1000a408 <_strtol_l.part.0+0x5c>
1000a4ac:	2310      	movs	r3, #16
1000a4ae:	461f      	mov	r7, r3
1000a4b0:	e7aa      	b.n	1000a408 <_strtol_l.part.0+0x5c>
1000a4b2:	bf00      	nop
1000a4b4:	1000c87d 	.word	0x1000c87d

1000a4b8 <_strtol_r>:
1000a4b8:	2b24      	cmp	r3, #36	@ 0x24
1000a4ba:	d803      	bhi.n	1000a4c4 <_strtol_r+0xc>
1000a4bc:	2b01      	cmp	r3, #1
1000a4be:	d001      	beq.n	1000a4c4 <_strtol_r+0xc>
1000a4c0:	f7ff bf74 	b.w	1000a3ac <_strtol_l.part.0>
1000a4c4:	b510      	push	{r4, lr}
1000a4c6:	f7fc fa8b 	bl	100069e0 <__errno>
1000a4ca:	2316      	movs	r3, #22
1000a4cc:	6003      	str	r3, [r0, #0]
1000a4ce:	2000      	movs	r0, #0
1000a4d0:	bd10      	pop	{r4, pc}
1000a4d2:	bf00      	nop

1000a4d4 <__ascii_wctomb>:
1000a4d4:	4603      	mov	r3, r0
1000a4d6:	b149      	cbz	r1, 1000a4ec <__ascii_wctomb+0x18>
1000a4d8:	2aff      	cmp	r2, #255	@ 0xff
1000a4da:	d802      	bhi.n	1000a4e2 <__ascii_wctomb+0xe>
1000a4dc:	2001      	movs	r0, #1
1000a4de:	700a      	strb	r2, [r1, #0]
1000a4e0:	4770      	bx	lr
1000a4e2:	228a      	movs	r2, #138	@ 0x8a
1000a4e4:	f04f 30ff 	mov.w	r0, #4294967295
1000a4e8:	601a      	str	r2, [r3, #0]
1000a4ea:	4770      	bx	lr
1000a4ec:	4608      	mov	r0, r1
1000a4ee:	4770      	bx	lr

1000a4f0 <_strtoll_l.isra.0>:
1000a4f0:	e92d 4ff0 	stmdb	sp!, {r4, r5, r6, r7, r8, r9, sl, fp, lr}
1000a4f4:	4692      	mov	sl, r2
1000a4f6:	b085      	sub	sp, #20
1000a4f8:	4689      	mov	r9, r1
1000a4fa:	461e      	mov	r6, r3
1000a4fc:	460d      	mov	r5, r1
1000a4fe:	4a55      	ldr	r2, [pc, #340]	@ (1000a654 <_strtoll_l.isra.0+0x164>)
1000a500:	9003      	str	r0, [sp, #12]
1000a502:	4629      	mov	r1, r5
1000a504:	f815 4b01 	ldrb.w	r4, [r5], #1
1000a508:	5d13      	ldrb	r3, [r2, r4]
1000a50a:	f013 0308 	ands.w	r3, r3, #8
1000a50e:	d1f8      	bne.n	1000a502 <_strtoll_l.isra.0+0x12>
1000a510:	2c2d      	cmp	r4, #45	@ 0x2d
1000a512:	d07c      	beq.n	1000a60e <_strtoll_l.isra.0+0x11e>
1000a514:	2c2b      	cmp	r4, #43	@ 0x2b
1000a516:	d04e      	beq.n	1000a5b6 <_strtoll_l.isra.0+0xc6>
1000a518:	f04f 31ff 	mov.w	r1, #4294967295
1000a51c:	9302      	str	r3, [sp, #8]
1000a51e:	f06f 4300 	mvn.w	r3, #2147483648	@ 0x80000000
1000a522:	e9cd 1300 	strd	r1, r3, [sp]
1000a526:	f036 0810 	bics.w	r8, r6, #16
1000a52a:	d051      	beq.n	1000a5d0 <_strtoll_l.isra.0+0xe0>
1000a52c:	4637      	mov	r7, r6
1000a52e:	ea4f 78e6 	mov.w	r8, r6, asr #31
1000a532:	463a      	mov	r2, r7
1000a534:	4643      	mov	r3, r8
1000a536:	e9dd 0100 	ldrd	r0, r1, [sp]
1000a53a:	f001 fdb1 	bl	1000c0a0 <____aeabi_uldivmod_veneer>
1000a53e:	2300      	movs	r3, #0
1000a540:	4683      	mov	fp, r0
1000a542:	468e      	mov	lr, r1
1000a544:	4618      	mov	r0, r3
1000a546:	4619      	mov	r1, r3
1000a548:	46a4      	mov	ip, r4
1000a54a:	e013      	b.n	1000a574 <_strtoll_l.isra.0+0x84>
1000a54c:	f1ac 0437 	sub.w	r4, ip, #55	@ 0x37
1000a550:	42a6      	cmp	r6, r4
1000a552:	dd1f      	ble.n	1000a594 <_strtoll_l.isra.0+0xa4>
1000a554:	2b00      	cmp	r3, #0
1000a556:	db09      	blt.n	1000a56c <_strtoll_l.isra.0+0x7c>
1000a558:	4583      	cmp	fp, r0
1000a55a:	eb7e 0301 	sbcs.w	r3, lr, r1
1000a55e:	d305      	bcc.n	1000a56c <_strtoll_l.isra.0+0x7c>
1000a560:	458e      	cmp	lr, r1
1000a562:	bf08      	it	eq
1000a564:	4583      	cmpeq	fp, r0
1000a566:	d13b      	bne.n	1000a5e0 <_strtoll_l.isra.0+0xf0>
1000a568:	42a2      	cmp	r2, r4
1000a56a:	da39      	bge.n	1000a5e0 <_strtoll_l.isra.0+0xf0>
1000a56c:	f04f 33ff 	mov.w	r3, #4294967295
1000a570:	f815 cb01 	ldrb.w	ip, [r5], #1
1000a574:	f1ac 0430 	sub.w	r4, ip, #48	@ 0x30
1000a578:	2c09      	cmp	r4, #9
1000a57a:	d9e9      	bls.n	1000a550 <_strtoll_l.isra.0+0x60>
1000a57c:	f1ac 0441 	sub.w	r4, ip, #65	@ 0x41
1000a580:	2c19      	cmp	r4, #25
1000a582:	d9e3      	bls.n	1000a54c <_strtoll_l.isra.0+0x5c>
1000a584:	f1ac 0461 	sub.w	r4, ip, #97	@ 0x61
1000a588:	2c19      	cmp	r4, #25
1000a58a:	d803      	bhi.n	1000a594 <_strtoll_l.isra.0+0xa4>
1000a58c:	f1ac 0457 	sub.w	r4, ip, #87	@ 0x57
1000a590:	42a6      	cmp	r6, r4
1000a592:	dcdf      	bgt.n	1000a554 <_strtoll_l.isra.0+0x64>
1000a594:	1c5a      	adds	r2, r3, #1
1000a596:	d02f      	beq.n	1000a5f8 <_strtoll_l.isra.0+0x108>
1000a598:	9a02      	ldr	r2, [sp, #8]
1000a59a:	b112      	cbz	r2, 1000a5a2 <_strtoll_l.isra.0+0xb2>
1000a59c:	4240      	negs	r0, r0
1000a59e:	eb61 0141 	sbc.w	r1, r1, r1, lsl #1
1000a5a2:	f1ba 0f00 	cmp.w	sl, #0
1000a5a6:	d003      	beq.n	1000a5b0 <_strtoll_l.isra.0+0xc0>
1000a5a8:	2b00      	cmp	r3, #0
1000a5aa:	d148      	bne.n	1000a63e <_strtoll_l.isra.0+0x14e>
1000a5ac:	f8ca 9000 	str.w	r9, [sl]
1000a5b0:	b005      	add	sp, #20
1000a5b2:	e8bd 8ff0 	ldmia.w	sp!, {r4, r5, r6, r7, r8, r9, sl, fp, pc}
1000a5b6:	f04f 30ff 	mov.w	r0, #4294967295
1000a5ba:	9302      	str	r3, [sp, #8]
1000a5bc:	f036 0810 	bics.w	r8, r6, #16
1000a5c0:	f06f 4300 	mvn.w	r3, #2147483648	@ 0x80000000
1000a5c4:	782c      	ldrb	r4, [r5, #0]
1000a5c6:	f101 0502 	add.w	r5, r1, #2
1000a5ca:	e9cd 0300 	strd	r0, r3, [sp]
1000a5ce:	d1ad      	bne.n	1000a52c <_strtoll_l.isra.0+0x3c>
1000a5d0:	2c30      	cmp	r4, #48	@ 0x30
1000a5d2:	d025      	beq.n	1000a620 <_strtoll_l.isra.0+0x130>
1000a5d4:	2e00      	cmp	r6, #0
1000a5d6:	d13a      	bne.n	1000a64e <_strtoll_l.isra.0+0x15e>
1000a5d8:	270a      	movs	r7, #10
1000a5da:	46b0      	mov	r8, r6
1000a5dc:	463e      	mov	r6, r7
1000a5de:	e7a8      	b.n	1000a532 <_strtoll_l.isra.0+0x42>
1000a5e0:	fb00 f308 	mul.w	r3, r0, r8
1000a5e4:	fb07 3301 	mla	r3, r7, r1, r3
1000a5e8:	fba0 0107 	umull	r0, r1, r0, r7
1000a5ec:	440b      	add	r3, r1
1000a5ee:	1820      	adds	r0, r4, r0
1000a5f0:	eb43 71e4 	adc.w	r1, r3, r4, asr #31
1000a5f4:	2301      	movs	r3, #1
1000a5f6:	e7bb      	b.n	1000a570 <_strtoll_l.isra.0+0x80>
1000a5f8:	2322      	movs	r3, #34	@ 0x22
1000a5fa:	9a03      	ldr	r2, [sp, #12]
1000a5fc:	6013      	str	r3, [r2, #0]
1000a5fe:	f1ba 0f00 	cmp.w	sl, #0
1000a602:	d017      	beq.n	1000a634 <_strtoll_l.isra.0+0x144>
1000a604:	f105 39ff 	add.w	r9, r5, #4294967295
1000a608:	e9dd 0100 	ldrd	r0, r1, [sp]
1000a60c:	e7ce      	b.n	1000a5ac <_strtoll_l.isra.0+0xbc>
1000a60e:	f04f 4700 	mov.w	r7, #2147483648	@ 0x80000000
1000a612:	9300      	str	r3, [sp, #0]
1000a614:	2301      	movs	r3, #1
1000a616:	782c      	ldrb	r4, [r5, #0]
1000a618:	1c8d      	adds	r5, r1, #2
1000a61a:	e9cd 7301 	strd	r7, r3, [sp, #4]
1000a61e:	e782      	b.n	1000a526 <_strtoll_l.isra.0+0x36>
1000a620:	782b      	ldrb	r3, [r5, #0]
1000a622:	f003 03df 	and.w	r3, r3, #223	@ 0xdf
1000a626:	2b58      	cmp	r3, #88	@ 0x58
1000a628:	d00c      	beq.n	1000a644 <_strtoll_l.isra.0+0x154>
1000a62a:	b986      	cbnz	r6, 1000a64e <_strtoll_l.isra.0+0x15e>
1000a62c:	2708      	movs	r7, #8
1000a62e:	46b0      	mov	r8, r6
1000a630:	463e      	mov	r6, r7
1000a632:	e77e      	b.n	1000a532 <_strtoll_l.isra.0+0x42>
1000a634:	e9dd 0100 	ldrd	r0, r1, [sp]
1000a638:	b005      	add	sp, #20
1000a63a:	e8bd 8ff0 	ldmia.w	sp!, {r4, r5, r6, r7, r8, r9, sl, fp, pc}
1000a63e:	e9cd 0100 	strd	r0, r1, [sp]
1000a642:	e7df      	b.n	1000a604 <_strtoll_l.isra.0+0x114>
1000a644:	2710      	movs	r7, #16
1000a646:	786c      	ldrb	r4, [r5, #1]
1000a648:	3502      	adds	r5, #2
1000a64a:	463e      	mov	r6, r7
1000a64c:	e771      	b.n	1000a532 <_strtoll_l.isra.0+0x42>
1000a64e:	2710      	movs	r7, #16
1000a650:	463e      	mov	r6, r7
1000a652:	e76e      	b.n	1000a532 <_strtoll_l.isra.0+0x42>
1000a654:	1000c87d 	.word	0x1000c87d

1000a658 <_strtoll_r>:
1000a658:	f7ff bf4a 	b.w	1000a4f0 <_strtoll_l.isra.0>

1000a65c <_strtoull_l.isra.0>:
1000a65c:	e92d 4ff0 	stmdb	sp!, {r4, r5, r6, r7, r8, r9, sl, fp, lr}
1000a660:	b085      	sub	sp, #20
1000a662:	468b      	mov	fp, r1
1000a664:	461e      	mov	r6, r3
1000a666:	460d      	mov	r5, r1
1000a668:	9201      	str	r2, [sp, #4]
1000a66a:	4a5d      	ldr	r2, [pc, #372]	@ (1000a7e0 <_strtoull_l.isra.0+0x184>)
1000a66c:	9003      	str	r0, [sp, #12]
1000a66e:	4629      	mov	r1, r5
1000a670:	f815 4b01 	ldrb.w	r4, [r5], #1
1000a674:	5d13      	ldrb	r3, [r2, r4]
1000a676:	f013 0308 	ands.w	r3, r3, #8
1000a67a:	d1f8      	bne.n	1000a66e <_strtoull_l.isra.0+0x12>
1000a67c:	2c2d      	cmp	r4, #45	@ 0x2d
1000a67e:	f000 8082 	beq.w	1000a786 <_strtoull_l.isra.0+0x12a>
1000a682:	2c2b      	cmp	r4, #43	@ 0x2b
1000a684:	d051      	beq.n	1000a72a <_strtoull_l.isra.0+0xce>
1000a686:	9302      	str	r3, [sp, #8]
1000a688:	f036 0a10 	bics.w	sl, r6, #16
1000a68c:	d054      	beq.n	1000a738 <_strtoull_l.isra.0+0xdc>
1000a68e:	ea4f 7ae6 	mov.w	sl, r6, asr #31
1000a692:	4632      	mov	r2, r6
1000a694:	f04f 30ff 	mov.w	r0, #4294967295
1000a698:	f04f 31ff 	mov.w	r1, #4294967295
1000a69c:	4653      	mov	r3, sl
1000a69e:	46b1      	mov	r9, r6
1000a6a0:	f001 fcfe 	bl	1000c0a0 <____aeabi_uldivmod_veneer>
1000a6a4:	4632      	mov	r2, r6
1000a6a6:	4607      	mov	r7, r0
1000a6a8:	4688      	mov	r8, r1
1000a6aa:	4653      	mov	r3, sl
1000a6ac:	f04f 30ff 	mov.w	r0, #4294967295
1000a6b0:	f04f 31ff 	mov.w	r1, #4294967295
1000a6b4:	f001 fcf4 	bl	1000c0a0 <____aeabi_uldivmod_veneer>
1000a6b8:	4694      	mov	ip, r2
1000a6ba:	2200      	movs	r2, #0
1000a6bc:	4610      	mov	r0, r2
1000a6be:	4611      	mov	r1, r2
1000a6c0:	e013      	b.n	1000a6ea <_strtoull_l.isra.0+0x8e>
1000a6c2:	f1a4 0337 	sub.w	r3, r4, #55	@ 0x37
1000a6c6:	429e      	cmp	r6, r3
1000a6c8:	dd1f      	ble.n	1000a70a <_strtoull_l.isra.0+0xae>
1000a6ca:	2a00      	cmp	r2, #0
1000a6cc:	db09      	blt.n	1000a6e2 <_strtoull_l.isra.0+0x86>
1000a6ce:	4287      	cmp	r7, r0
1000a6d0:	eb78 0201 	sbcs.w	r2, r8, r1
1000a6d4:	d305      	bcc.n	1000a6e2 <_strtoull_l.isra.0+0x86>
1000a6d6:	4541      	cmp	r1, r8
1000a6d8:	bf08      	it	eq
1000a6da:	42b8      	cmpeq	r0, r7
1000a6dc:	d13b      	bne.n	1000a756 <_strtoull_l.isra.0+0xfa>
1000a6de:	4563      	cmp	r3, ip
1000a6e0:	dd39      	ble.n	1000a756 <_strtoull_l.isra.0+0xfa>
1000a6e2:	f04f 32ff 	mov.w	r2, #4294967295
1000a6e6:	f815 4b01 	ldrb.w	r4, [r5], #1
1000a6ea:	f1a4 0330 	sub.w	r3, r4, #48	@ 0x30
1000a6ee:	2b09      	cmp	r3, #9
1000a6f0:	d9e9      	bls.n	1000a6c6 <_strtoull_l.isra.0+0x6a>
1000a6f2:	f1a4 0341 	sub.w	r3, r4, #65	@ 0x41
1000a6f6:	2b19      	cmp	r3, #25
1000a6f8:	d9e3      	bls.n	1000a6c2 <_strtoull_l.isra.0+0x66>
1000a6fa:	f1a4 0361 	sub.w	r3, r4, #97	@ 0x61
1000a6fe:	2b19      	cmp	r3, #25
1000a700:	d803      	bhi.n	1000a70a <_strtoull_l.isra.0+0xae>
1000a702:	f1a4 0357 	sub.w	r3, r4, #87	@ 0x57
1000a706:	429e      	cmp	r6, r3
1000a708:	dcdf      	bgt.n	1000a6ca <_strtoull_l.isra.0+0x6e>
1000a70a:	1c53      	adds	r3, r2, #1
1000a70c:	d030      	beq.n	1000a770 <_strtoull_l.isra.0+0x114>
1000a70e:	9b02      	ldr	r3, [sp, #8]
1000a710:	b113      	cbz	r3, 1000a718 <_strtoull_l.isra.0+0xbc>
1000a712:	4240      	negs	r0, r0
1000a714:	eb61 0141 	sbc.w	r1, r1, r1, lsl #1
1000a718:	9b01      	ldr	r3, [sp, #4]
1000a71a:	b11b      	cbz	r3, 1000a724 <_strtoull_l.isra.0+0xc8>
1000a71c:	bb82      	cbnz	r2, 1000a780 <_strtoull_l.isra.0+0x124>
1000a71e:	9b01      	ldr	r3, [sp, #4]
1000a720:	f8c3 b000 	str.w	fp, [r3]
1000a724:	b005      	add	sp, #20
1000a726:	e8bd 8ff0 	ldmia.w	sp!, {r4, r5, r6, r7, r8, r9, sl, fp, pc}
1000a72a:	f036 0a10 	bics.w	sl, r6, #16
1000a72e:	782c      	ldrb	r4, [r5, #0]
1000a730:	9302      	str	r3, [sp, #8]
1000a732:	f101 0502 	add.w	r5, r1, #2
1000a736:	d1aa      	bne.n	1000a68e <_strtoull_l.isra.0+0x32>
1000a738:	2c30      	cmp	r4, #48	@ 0x30
1000a73a:	d029      	beq.n	1000a790 <_strtoull_l.isra.0+0x134>
1000a73c:	2e00      	cmp	r6, #0
1000a73e:	d144      	bne.n	1000a7ca <_strtoull_l.isra.0+0x16e>
1000a740:	f04f 090a 	mov.w	r9, #10
1000a744:	46b2      	mov	sl, r6
1000a746:	f04f 0c05 	mov.w	ip, #5
1000a74a:	f04f 3799 	mov.w	r7, #2576980377	@ 0x99999999
1000a74e:	f8df 8094 	ldr.w	r8, [pc, #148]	@ 1000a7e4 <_strtoull_l.isra.0+0x188>
1000a752:	464e      	mov	r6, r9
1000a754:	e7b1      	b.n	1000a6ba <_strtoull_l.isra.0+0x5e>
1000a756:	fb09 f101 	mul.w	r1, r9, r1
1000a75a:	fb00 110a 	mla	r1, r0, sl, r1
1000a75e:	fba9 0200 	umull	r0, r2, r9, r0
1000a762:	4411      	add	r1, r2
1000a764:	1818      	adds	r0, r3, r0
1000a766:	f04f 0201 	mov.w	r2, #1
1000a76a:	eb41 71e3 	adc.w	r1, r1, r3, asr #31
1000a76e:	e7ba      	b.n	1000a6e6 <_strtoull_l.isra.0+0x8a>
1000a770:	2322      	movs	r3, #34	@ 0x22
1000a772:	9903      	ldr	r1, [sp, #12]
1000a774:	4610      	mov	r0, r2
1000a776:	600b      	str	r3, [r1, #0]
1000a778:	4611      	mov	r1, r2
1000a77a:	9b01      	ldr	r3, [sp, #4]
1000a77c:	2b00      	cmp	r3, #0
1000a77e:	d0d1      	beq.n	1000a724 <_strtoull_l.isra.0+0xc8>
1000a780:	f105 3bff 	add.w	fp, r5, #4294967295
1000a784:	e7cb      	b.n	1000a71e <_strtoull_l.isra.0+0xc2>
1000a786:	2301      	movs	r3, #1
1000a788:	782c      	ldrb	r4, [r5, #0]
1000a78a:	1c8d      	adds	r5, r1, #2
1000a78c:	9302      	str	r3, [sp, #8]
1000a78e:	e77b      	b.n	1000a688 <_strtoull_l.isra.0+0x2c>
1000a790:	782b      	ldrb	r3, [r5, #0]
1000a792:	f003 03df 	and.w	r3, r3, #223	@ 0xdf
1000a796:	2b58      	cmp	r3, #88	@ 0x58
1000a798:	d00b      	beq.n	1000a7b2 <_strtoull_l.isra.0+0x156>
1000a79a:	b9b6      	cbnz	r6, 1000a7ca <_strtoull_l.isra.0+0x16e>
1000a79c:	f04f 0908 	mov.w	r9, #8
1000a7a0:	46b2      	mov	sl, r6
1000a7a2:	f04f 0c07 	mov.w	ip, #7
1000a7a6:	f04f 37ff 	mov.w	r7, #4294967295
1000a7aa:	f06f 4860 	mvn.w	r8, #3758096384	@ 0xe0000000
1000a7ae:	464e      	mov	r6, r9
1000a7b0:	e783      	b.n	1000a6ba <_strtoull_l.isra.0+0x5e>
1000a7b2:	f04f 0910 	mov.w	r9, #16
1000a7b6:	786c      	ldrb	r4, [r5, #1]
1000a7b8:	f04f 0c0f 	mov.w	ip, #15
1000a7bc:	3502      	adds	r5, #2
1000a7be:	f04f 37ff 	mov.w	r7, #4294967295
1000a7c2:	f06f 4870 	mvn.w	r8, #4026531840	@ 0xf0000000
1000a7c6:	464e      	mov	r6, r9
1000a7c8:	e777      	b.n	1000a6ba <_strtoull_l.isra.0+0x5e>
1000a7ca:	f04f 0910 	mov.w	r9, #16
1000a7ce:	f04f 0c0f 	mov.w	ip, #15
1000a7d2:	f04f 37ff 	mov.w	r7, #4294967295
1000a7d6:	f06f 4870 	mvn.w	r8, #4026531840	@ 0xf0000000
1000a7da:	464e      	mov	r6, r9
1000a7dc:	e76d      	b.n	1000a6ba <_strtoull_l.isra.0+0x5e>
1000a7de:	bf00      	nop
1000a7e0:	1000c87d 	.word	0x1000c87d
1000a7e4:	19999999 	.word	0x19999999

1000a7e8 <_strtoull_r>:
1000a7e8:	f7ff bf38 	b.w	1000a65c <_strtoull_l.isra.0>

1000a7ec <_mbrtowc_r>:
1000a7ec:	b570      	push	{r4, r5, r6, lr}
1000a7ee:	b082      	sub	sp, #8
1000a7f0:	4604      	mov	r4, r0
1000a7f2:	9d06      	ldr	r5, [sp, #24]
1000a7f4:	b155      	cbz	r5, 1000a80c <_mbrtowc_r+0x20>
1000a7f6:	4810      	ldr	r0, [pc, #64]	@ (1000a838 <_mbrtowc_r+0x4c>)
1000a7f8:	f8d0 60e4 	ldr.w	r6, [r0, #228]	@ 0xe4
1000a7fc:	b16a      	cbz	r2, 1000a81a <_mbrtowc_r+0x2e>
1000a7fe:	4620      	mov	r0, r4
1000a800:	9500      	str	r5, [sp, #0]
1000a802:	47b0      	blx	r6
1000a804:	1c43      	adds	r3, r0, #1
1000a806:	d010      	beq.n	1000a82a <_mbrtowc_r+0x3e>
1000a808:	b002      	add	sp, #8
1000a80a:	bd70      	pop	{r4, r5, r6, pc}
1000a80c:	f100 05f4 	add.w	r5, r0, #244	@ 0xf4
1000a810:	4809      	ldr	r0, [pc, #36]	@ (1000a838 <_mbrtowc_r+0x4c>)
1000a812:	f8d0 60e4 	ldr.w	r6, [r0, #228]	@ 0xe4
1000a816:	2a00      	cmp	r2, #0
1000a818:	d1f1      	bne.n	1000a7fe <_mbrtowc_r+0x12>
1000a81a:	2301      	movs	r3, #1
1000a81c:	4611      	mov	r1, r2
1000a81e:	4620      	mov	r0, r4
1000a820:	4a06      	ldr	r2, [pc, #24]	@ (1000a83c <_mbrtowc_r+0x50>)
1000a822:	9500      	str	r5, [sp, #0]
1000a824:	47b0      	blx	r6
1000a826:	1c43      	adds	r3, r0, #1
1000a828:	d1ee      	bne.n	1000a808 <_mbrtowc_r+0x1c>
1000a82a:	2200      	movs	r2, #0
1000a82c:	238a      	movs	r3, #138	@ 0x8a
1000a82e:	602a      	str	r2, [r5, #0]
1000a830:	6023      	str	r3, [r4, #0]
1000a832:	b002      	add	sp, #8
1000a834:	bd70      	pop	{r4, r5, r6, pc}
1000a836:	bf00      	nop
1000a838:	20000c5c 	.word	0x20000c5c
1000a83c:	1000c214 	.word	0x1000c214

1000a840 <iswspace>:
1000a840:	2100      	movs	r1, #0
1000a842:	f000 b801 	b.w	1000a848 <iswspace_l>
1000a846:	bf00      	nop

1000a848 <iswspace_l>:
1000a848:	b510      	push	{r4, lr}
1000a84a:	f000 f8b7 	bl	1000a9bc <_jp2uc_l>
1000a84e:	4604      	mov	r4, r0
1000a850:	f001 fbf2 	bl	1000c038 <category>
1000a854:	f1a0 031a 	sub.w	r3, r0, #26
1000a858:	b2db      	uxtb	r3, r3
1000a85a:	2b02      	cmp	r3, #2
1000a85c:	d801      	bhi.n	1000a862 <iswspace_l+0x1a>
1000a85e:	2001      	movs	r0, #1
1000a860:	bd10      	pop	{r4, pc}
1000a862:	f1a4 0009 	sub.w	r0, r4, #9
1000a866:	2804      	cmp	r0, #4
1000a868:	bf8c      	ite	hi
1000a86a:	2000      	movhi	r0, #0
1000a86c:	2001      	movls	r0, #1
1000a86e:	bd10      	pop	{r4, pc}

1000a870 <__jp2uc>:
1000a870:	2902      	cmp	r1, #2
1000a872:	f3c0 2307 	ubfx	r3, r0, #8, #8
1000a876:	fa5f fc80 	uxtb.w	ip, r0
1000a87a:	d025      	beq.n	1000a8c8 <__jp2uc+0x58>
1000a87c:	2903      	cmp	r1, #3
1000a87e:	d003      	beq.n	1000a888 <__jp2uc+0x18>
1000a880:	f083 0380 	eor.w	r3, r3, #128	@ 0x80
1000a884:	f08c 0c80 	eor.w	ip, ip, #128	@ 0x80
1000a888:	f103 0250 	add.w	r2, r3, #80	@ 0x50
1000a88c:	b2d2      	uxtb	r2, r2
1000a88e:	2a1f      	cmp	r2, #31
1000a890:	d90b      	bls.n	1000a8aa <__jp2uc+0x3a>
1000a892:	f103 0230 	add.w	r2, r3, #48	@ 0x30
1000a896:	b2d2      	uxtb	r2, r2
1000a898:	2a24      	cmp	r2, #36	@ 0x24
1000a89a:	d83b      	bhi.n	1000a914 <__jp2uc+0xa4>
1000a89c:	f24f 42a6 	movw	r2, #62630	@ 0xf4a6
1000a8a0:	4290      	cmp	r0, r2
1000a8a2:	d92c      	bls.n	1000a8fe <__jp2uc+0x8e>
1000a8a4:	f04f 30ff 	mov.w	r0, #4294967295
1000a8a8:	4770      	bx	lr
1000a8aa:	f64c 72d3 	movw	r2, #53203	@ 0xcfd3
1000a8ae:	4290      	cmp	r0, r2
1000a8b0:	d8f8      	bhi.n	1000a8a4 <__jp2uc+0x34>
1000a8b2:	3bb0      	subs	r3, #176	@ 0xb0
1000a8b4:	f1ac 0ca1 	sub.w	ip, ip, #161	@ 0xa1
1000a8b8:	4a38      	ldr	r2, [pc, #224]	@ (1000a99c <__jp2uc+0x12c>)
1000a8ba:	ebc3 13c3 	rsb	r3, r3, r3, lsl #7
1000a8be:	eb0c 0343 	add.w	r3, ip, r3, lsl #1
1000a8c2:	f832 0013 	ldrh.w	r0, [r2, r3, lsl #1]
1000a8c6:	4770      	bx	lr
1000a8c8:	f1bc 0f9e 	cmp.w	ip, #158	@ 0x9e
1000a8cc:	d911      	bls.n	1000a8f2 <__jp2uc+0x82>
1000a8ce:	f10c 0c23 	add.w	ip, ip, #35	@ 0x23
1000a8d2:	2280      	movs	r2, #128	@ 0x80
1000a8d4:	fa5f fc8c 	uxtb.w	ip, ip
1000a8d8:	2b9f      	cmp	r3, #159	@ 0x9f
1000a8da:	bf94      	ite	ls
1000a8dc:	3b70      	subls	r3, #112	@ 0x70
1000a8de:	3350      	addhi	r3, #80	@ 0x50
1000a8e0:	eb02 0243 	add.w	r2, r2, r3, lsl #1
1000a8e4:	b2d3      	uxtb	r3, r2
1000a8e6:	f103 0250 	add.w	r2, r3, #80	@ 0x50
1000a8ea:	b2d2      	uxtb	r2, r2
1000a8ec:	2a1f      	cmp	r2, #31
1000a8ee:	d8d0      	bhi.n	1000a892 <__jp2uc+0x22>
1000a8f0:	e7db      	b.n	1000a8aa <__jp2uc+0x3a>
1000a8f2:	f1ac 0c7e 	sub.w	ip, ip, #126	@ 0x7e
1000a8f6:	227f      	movs	r2, #127	@ 0x7f
1000a8f8:	fa5f fc8c 	uxtb.w	ip, ip
1000a8fc:	e7ec      	b.n	1000a8d8 <__jp2uc+0x68>
1000a8fe:	3bd0      	subs	r3, #208	@ 0xd0
1000a900:	f1ac 0ca1 	sub.w	ip, ip, #161	@ 0xa1
1000a904:	4a26      	ldr	r2, [pc, #152]	@ (1000a9a0 <__jp2uc+0x130>)
1000a906:	ebc3 13c3 	rsb	r3, r3, r3, lsl #7
1000a90a:	eb0c 0343 	add.w	r3, ip, r3, lsl #1
1000a90e:	f832 0013 	ldrh.w	r0, [r2, r3, lsl #1]
1000a912:	4770      	bx	lr
1000a914:	3ba1      	subs	r3, #161	@ 0xa1
1000a916:	2b07      	cmp	r3, #7
1000a918:	d8c4      	bhi.n	1000a8a4 <__jp2uc+0x34>
1000a91a:	e8df f003 	tbb	[pc, r3]
1000a91e:	2e38      	.short	0x2e38
1000a920:	12171d24 	.word	0x12171d24
1000a924:	040d      	.short	0x040d
1000a926:	f1bc 0fc0 	cmp.w	ip, #192	@ 0xc0
1000a92a:	d8bb      	bhi.n	1000a8a4 <__jp2uc+0x34>
1000a92c:	4a1d      	ldr	r2, [pc, #116]	@ (1000a9a4 <__jp2uc+0x134>)
1000a92e:	f1ac 03a1 	sub.w	r3, ip, #161	@ 0xa1
1000a932:	f832 0013 	ldrh.w	r0, [r2, r3, lsl #1]
1000a936:	4770      	bx	lr
1000a938:	f1bc 0ff1 	cmp.w	ip, #241	@ 0xf1
1000a93c:	d8b2      	bhi.n	1000a8a4 <__jp2uc+0x34>
1000a93e:	4a1a      	ldr	r2, [pc, #104]	@ (1000a9a8 <__jp2uc+0x138>)
1000a940:	e01c      	b.n	1000a97c <__jp2uc+0x10c>
1000a942:	f1bc 0fd8 	cmp.w	ip, #216	@ 0xd8
1000a946:	d8ad      	bhi.n	1000a8a4 <__jp2uc+0x34>
1000a948:	4a18      	ldr	r2, [pc, #96]	@ (1000a9ac <__jp2uc+0x13c>)
1000a94a:	e017      	b.n	1000a97c <__jp2uc+0x10c>
1000a94c:	f1bc 0ff6 	cmp.w	ip, #246	@ 0xf6
1000a950:	d8a8      	bhi.n	1000a8a4 <__jp2uc+0x34>
1000a952:	f50c 5040 	add.w	r0, ip, #12288	@ 0x3000
1000a956:	4770      	bx	lr
1000a958:	f1bc 0ff3 	cmp.w	ip, #243	@ 0xf3
1000a95c:	d8a2      	bhi.n	1000a8a4 <__jp2uc+0x34>
1000a95e:	f642 70a0 	movw	r0, #12192	@ 0x2fa0
1000a962:	4460      	add	r0, ip
1000a964:	4770      	bx	lr
1000a966:	4b12      	ldr	r3, [pc, #72]	@ (1000a9b0 <__jp2uc+0x140>)
1000a968:	4463      	add	r3, ip
1000a96a:	f813 3ca1 	ldrb.w	r3, [r3, #-161]
1000a96e:	2b00      	cmp	r3, #0
1000a970:	d098      	beq.n	1000a8a4 <__jp2uc+0x34>
1000a972:	f64f 6060 	movw	r0, #65120	@ 0xfe60
1000a976:	4460      	add	r0, ip
1000a978:	4770      	bx	lr
1000a97a:	4a0e      	ldr	r2, [pc, #56]	@ (1000a9b4 <__jp2uc+0x144>)
1000a97c:	f1ac 03a1 	sub.w	r3, ip, #161	@ 0xa1
1000a980:	f832 0013 	ldrh.w	r0, [r2, r3, lsl #1]
1000a984:	2800      	cmp	r0, #0
1000a986:	bf08      	it	eq
1000a988:	f04f 30ff 	moveq.w	r0, #4294967295
1000a98c:	4770      	bx	lr
1000a98e:	4a0a      	ldr	r2, [pc, #40]	@ (1000a9b8 <__jp2uc+0x148>)
1000a990:	f1ac 03a1 	sub.w	r3, ip, #161	@ 0xa1
1000a994:	f832 0013 	ldrh.w	r0, [r2, r3, lsl #1]
1000a998:	4770      	bx	lr
1000a99a:	bf00      	nop
1000a99c:	1000e474 	.word	0x1000e474
1000a9a0:	1000c9f8 	.word	0x1000c9f8
1000a9a4:	1000fba0 	.word	0x1000fba0
1000a9a8:	1000fbe0 	.word	0x1000fbe0
1000a9ac:	1000fc84 	.word	0x1000fc84
1000a9b0:	1000fcf4 	.word	0x1000fcf4
1000a9b4:	1000fd50 	.word	0x1000fd50
1000a9b8:	1000fe0c 	.word	0x1000fe0c

1000a9bc <_jp2uc_l>:
1000a9bc:	b538      	push	{r3, r4, r5, lr}
1000a9be:	4605      	mov	r5, r0
1000a9c0:	b1b9      	cbz	r1, 1000a9f2 <_jp2uc_l+0x36>
1000a9c2:	f501 7495 	add.w	r4, r1, #298	@ 0x12a
1000a9c6:	4912      	ldr	r1, [pc, #72]	@ (1000aa10 <_jp2uc_l+0x54>)
1000a9c8:	4620      	mov	r0, r4
1000a9ca:	f7fc f825 	bl	10006a18 <strcmp>
1000a9ce:	b928      	cbnz	r0, 1000a9dc <_jp2uc_l+0x20>
1000a9d0:	4628      	mov	r0, r5
1000a9d2:	2101      	movs	r1, #1
1000a9d4:	e8bd 4038 	ldmia.w	sp!, {r3, r4, r5, lr}
1000a9d8:	f7ff bf4a 	b.w	1000a870 <__jp2uc>
1000a9dc:	490d      	ldr	r1, [pc, #52]	@ (1000aa14 <_jp2uc_l+0x58>)
1000a9de:	4620      	mov	r0, r4
1000a9e0:	f7fc f81a 	bl	10006a18 <strcmp>
1000a9e4:	b938      	cbnz	r0, 1000a9f6 <_jp2uc_l+0x3a>
1000a9e6:	4628      	mov	r0, r5
1000a9e8:	2102      	movs	r1, #2
1000a9ea:	e8bd 4038 	ldmia.w	sp!, {r3, r4, r5, lr}
1000a9ee:	f7ff bf3f 	b.w	1000a870 <__jp2uc>
1000a9f2:	4c09      	ldr	r4, [pc, #36]	@ (1000aa18 <_jp2uc_l+0x5c>)
1000a9f4:	e7e7      	b.n	1000a9c6 <_jp2uc_l+0xa>
1000a9f6:	4909      	ldr	r1, [pc, #36]	@ (1000aa1c <_jp2uc_l+0x60>)
1000a9f8:	4620      	mov	r0, r4
1000a9fa:	f7fc f80d 	bl	10006a18 <strcmp>
1000a9fe:	b928      	cbnz	r0, 1000aa0c <_jp2uc_l+0x50>
1000aa00:	4628      	mov	r0, r5
1000aa02:	2103      	movs	r1, #3
1000aa04:	e8bd 4038 	ldmia.w	sp!, {r3, r4, r5, lr}
1000aa08:	f7ff bf32 	b.w	1000a870 <__jp2uc>
1000aa0c:	4628      	mov	r0, r5
1000aa0e:	bd38      	pop	{r3, r4, r5, pc}
1000aa10:	1000c684 	.word	0x1000c684
1000aa14:	1000c688 	.word	0x1000c688
1000aa18:	20000d86 	.word	0x20000d86
1000aa1c:	1000c690 	.word	0x1000c690

1000aa20 <_fclose_r>:
1000aa20:	b570      	push	{r4, r5, r6, lr}
1000aa22:	2900      	cmp	r1, #0
1000aa24:	d03f      	beq.n	1000aaa6 <_fclose_r+0x86>
1000aa26:	4606      	mov	r6, r0
1000aa28:	460c      	mov	r4, r1
1000aa2a:	b110      	cbz	r0, 1000aa32 <_fclose_r+0x12>
1000aa2c:	6b43      	ldr	r3, [r0, #52]	@ 0x34
1000aa2e:	2b00      	cmp	r3, #0
1000aa30:	d03c      	beq.n	1000aaac <_fclose_r+0x8c>
1000aa32:	6e63      	ldr	r3, [r4, #100]	@ 0x64
1000aa34:	f9b4 200c 	ldrsh.w	r2, [r4, #12]
1000aa38:	07dd      	lsls	r5, r3, #31
1000aa3a:	d432      	bmi.n	1000aaa2 <_fclose_r+0x82>
1000aa3c:	0590      	lsls	r0, r2, #22
1000aa3e:	d538      	bpl.n	1000aab2 <_fclose_r+0x92>
1000aa40:	4621      	mov	r1, r4
1000aa42:	4630      	mov	r0, r6
1000aa44:	f000 f84c 	bl	1000aae0 <__sflush_r>
1000aa48:	6ae3      	ldr	r3, [r4, #44]	@ 0x2c
1000aa4a:	4605      	mov	r5, r0
1000aa4c:	b133      	cbz	r3, 1000aa5c <_fclose_r+0x3c>
1000aa4e:	69e1      	ldr	r1, [r4, #28]
1000aa50:	4630      	mov	r0, r6
1000aa52:	4798      	blx	r3
1000aa54:	2800      	cmp	r0, #0
1000aa56:	bfb8      	it	lt
1000aa58:	f04f 35ff 	movlt.w	r5, #4294967295
1000aa5c:	89a3      	ldrh	r3, [r4, #12]
1000aa5e:	061a      	lsls	r2, r3, #24
1000aa60:	d439      	bmi.n	1000aad6 <_fclose_r+0xb6>
1000aa62:	6b21      	ldr	r1, [r4, #48]	@ 0x30
1000aa64:	b141      	cbz	r1, 1000aa78 <_fclose_r+0x58>
1000aa66:	f104 0340 	add.w	r3, r4, #64	@ 0x40
1000aa6a:	4299      	cmp	r1, r3
1000aa6c:	d002      	beq.n	1000aa74 <_fclose_r+0x54>
1000aa6e:	4630      	mov	r0, r6
1000aa70:	f7fc f9b0 	bl	10006dd4 <_free_r>
1000aa74:	2300      	movs	r3, #0
1000aa76:	6323      	str	r3, [r4, #48]	@ 0x30
1000aa78:	6c61      	ldr	r1, [r4, #68]	@ 0x44
1000aa7a:	b121      	cbz	r1, 1000aa86 <_fclose_r+0x66>
1000aa7c:	4630      	mov	r0, r6
1000aa7e:	f7fc f9a9 	bl	10006dd4 <_free_r>
1000aa82:	2300      	movs	r3, #0
1000aa84:	6463      	str	r3, [r4, #68]	@ 0x44
1000aa86:	f7fe f8c9 	bl	10008c1c <__sfp_lock_acquire>
1000aa8a:	6e63      	ldr	r3, [r4, #100]	@ 0x64
1000aa8c:	2200      	movs	r2, #0
1000aa8e:	07db      	lsls	r3, r3, #31
1000aa90:	81a2      	strh	r2, [r4, #12]
1000aa92:	d51c      	bpl.n	1000aace <_fclose_r+0xae>
1000aa94:	6da0      	ldr	r0, [r4, #88]	@ 0x58
1000aa96:	f7fb ffab 	bl	100069f0 <__retarget_lock_close_recursive>
1000aa9a:	f7fe f8c5 	bl	10008c28 <__sfp_lock_release>
1000aa9e:	4628      	mov	r0, r5
1000aaa0:	bd70      	pop	{r4, r5, r6, pc}
1000aaa2:	2a00      	cmp	r2, #0
1000aaa4:	d1cc      	bne.n	1000aa40 <_fclose_r+0x20>
1000aaa6:	2500      	movs	r5, #0
1000aaa8:	4628      	mov	r0, r5
1000aaaa:	bd70      	pop	{r4, r5, r6, pc}
1000aaac:	f7fe f898 	bl	10008be0 <__sinit>
1000aab0:	e7bf      	b.n	1000aa32 <_fclose_r+0x12>
1000aab2:	6da0      	ldr	r0, [r4, #88]	@ 0x58
1000aab4:	f7fb ff9e 	bl	100069f4 <__retarget_lock_acquire_recursive>
1000aab8:	f9b4 300c 	ldrsh.w	r3, [r4, #12]
1000aabc:	2b00      	cmp	r3, #0
1000aabe:	d1bf      	bne.n	1000aa40 <_fclose_r+0x20>
1000aac0:	6e63      	ldr	r3, [r4, #100]	@ 0x64
1000aac2:	07d9      	lsls	r1, r3, #31
1000aac4:	d4ef      	bmi.n	1000aaa6 <_fclose_r+0x86>
1000aac6:	6da0      	ldr	r0, [r4, #88]	@ 0x58
1000aac8:	f7fb ff96 	bl	100069f8 <__retarget_lock_release_recursive>
1000aacc:	e7eb      	b.n	1000aaa6 <_fclose_r+0x86>
1000aace:	6da0      	ldr	r0, [r4, #88]	@ 0x58
1000aad0:	f7fb ff92 	bl	100069f8 <__retarget_lock_release_recursive>
1000aad4:	e7de      	b.n	1000aa94 <_fclose_r+0x74>
1000aad6:	6921      	ldr	r1, [r4, #16]
1000aad8:	4630      	mov	r0, r6
1000aada:	f7fc f97b 	bl	10006dd4 <_free_r>
1000aade:	e7c0      	b.n	1000aa62 <_fclose_r+0x42>

1000aae0 <__sflush_r>:
1000aae0:	f9b1 200c 	ldrsh.w	r2, [r1, #12]
1000aae4:	e92d 41f0 	stmdb	sp!, {r4, r5, r6, r7, r8, lr}
1000aae8:	0716      	lsls	r6, r2, #28
1000aaea:	460c      	mov	r4, r1
1000aaec:	4680      	mov	r8, r0
1000aaee:	d44e      	bmi.n	1000ab8e <__sflush_r+0xae>
1000aaf0:	6849      	ldr	r1, [r1, #4]
1000aaf2:	f442 6300 	orr.w	r3, r2, #2048	@ 0x800
1000aaf6:	2900      	cmp	r1, #0
1000aaf8:	81a3      	strh	r3, [r4, #12]
1000aafa:	dd63      	ble.n	1000abc4 <__sflush_r+0xe4>
1000aafc:	6aa5      	ldr	r5, [r4, #40]	@ 0x28
1000aafe:	2d00      	cmp	r5, #0
1000ab00:	d042      	beq.n	1000ab88 <__sflush_r+0xa8>
1000ab02:	2100      	movs	r1, #0
1000ab04:	f412 5280 	ands.w	r2, r2, #4096	@ 0x1000
1000ab08:	f8d8 6000 	ldr.w	r6, [r8]
1000ab0c:	f8c8 1000 	str.w	r1, [r8]
1000ab10:	69e1      	ldr	r1, [r4, #28]
1000ab12:	d164      	bne.n	1000abde <__sflush_r+0xfe>
1000ab14:	2301      	movs	r3, #1
1000ab16:	4640      	mov	r0, r8
1000ab18:	47a8      	blx	r5
1000ab1a:	1c45      	adds	r5, r0, #1
1000ab1c:	4602      	mov	r2, r0
1000ab1e:	d06d      	beq.n	1000abfc <__sflush_r+0x11c>
1000ab20:	f9b4 300c 	ldrsh.w	r3, [r4, #12]
1000ab24:	6aa5      	ldr	r5, [r4, #40]	@ 0x28
1000ab26:	69e1      	ldr	r1, [r4, #28]
1000ab28:	0758      	lsls	r0, r3, #29
1000ab2a:	d505      	bpl.n	1000ab38 <__sflush_r+0x58>
1000ab2c:	6863      	ldr	r3, [r4, #4]
1000ab2e:	1ad2      	subs	r2, r2, r3
1000ab30:	6b23      	ldr	r3, [r4, #48]	@ 0x30
1000ab32:	b10b      	cbz	r3, 1000ab38 <__sflush_r+0x58>
1000ab34:	6be3      	ldr	r3, [r4, #60]	@ 0x3c
1000ab36:	1ad2      	subs	r2, r2, r3
1000ab38:	2300      	movs	r3, #0
1000ab3a:	4640      	mov	r0, r8
1000ab3c:	47a8      	blx	r5
1000ab3e:	1c43      	adds	r3, r0, #1
1000ab40:	d14f      	bne.n	1000abe2 <__sflush_r+0x102>
1000ab42:	f8d8 1000 	ldr.w	r1, [r8]
1000ab46:	f9b4 300c 	ldrsh.w	r3, [r4, #12]
1000ab4a:	291d      	cmp	r1, #29
1000ab4c:	d840      	bhi.n	1000abd0 <__sflush_r+0xf0>
1000ab4e:	4a31      	ldr	r2, [pc, #196]	@ (1000ac14 <__sflush_r+0x134>)
1000ab50:	40ca      	lsrs	r2, r1
1000ab52:	07d7      	lsls	r7, r2, #31
1000ab54:	d53c      	bpl.n	1000abd0 <__sflush_r+0xf0>
1000ab56:	f423 6200 	bic.w	r2, r3, #2048	@ 0x800
1000ab5a:	04dd      	lsls	r5, r3, #19
1000ab5c:	81a2      	strh	r2, [r4, #12]
1000ab5e:	f04f 0200 	mov.w	r2, #0
1000ab62:	6062      	str	r2, [r4, #4]
1000ab64:	6922      	ldr	r2, [r4, #16]
1000ab66:	6022      	str	r2, [r4, #0]
1000ab68:	d501      	bpl.n	1000ab6e <__sflush_r+0x8e>
1000ab6a:	2900      	cmp	r1, #0
1000ab6c:	d044      	beq.n	1000abf8 <__sflush_r+0x118>
1000ab6e:	6b21      	ldr	r1, [r4, #48]	@ 0x30
1000ab70:	f8c8 6000 	str.w	r6, [r8]
1000ab74:	b141      	cbz	r1, 1000ab88 <__sflush_r+0xa8>
1000ab76:	f104 0340 	add.w	r3, r4, #64	@ 0x40
1000ab7a:	4299      	cmp	r1, r3
1000ab7c:	d002      	beq.n	1000ab84 <__sflush_r+0xa4>
1000ab7e:	4640      	mov	r0, r8
1000ab80:	f7fc f928 	bl	10006dd4 <_free_r>
1000ab84:	2300      	movs	r3, #0
1000ab86:	6323      	str	r3, [r4, #48]	@ 0x30
1000ab88:	2000      	movs	r0, #0
1000ab8a:	e8bd 81f0 	ldmia.w	sp!, {r4, r5, r6, r7, r8, pc}
1000ab8e:	690e      	ldr	r6, [r1, #16]
1000ab90:	2e00      	cmp	r6, #0
1000ab92:	d0f9      	beq.n	1000ab88 <__sflush_r+0xa8>
1000ab94:	0792      	lsls	r2, r2, #30
1000ab96:	680d      	ldr	r5, [r1, #0]
1000ab98:	600e      	str	r6, [r1, #0]
1000ab9a:	bf0c      	ite	eq
1000ab9c:	694b      	ldreq	r3, [r1, #20]
1000ab9e:	2300      	movne	r3, #0
1000aba0:	1bad      	subs	r5, r5, r6
1000aba2:	608b      	str	r3, [r1, #8]
1000aba4:	e00b      	b.n	1000abbe <__sflush_r+0xde>
1000aba6:	462b      	mov	r3, r5
1000aba8:	4632      	mov	r2, r6
1000abaa:	69e1      	ldr	r1, [r4, #28]
1000abac:	4640      	mov	r0, r8
1000abae:	6a67      	ldr	r7, [r4, #36]	@ 0x24
1000abb0:	47b8      	blx	r7
1000abb2:	f1b0 0c00 	subs.w	ip, r0, #0
1000abb6:	eba5 050c 	sub.w	r5, r5, ip
1000abba:	4466      	add	r6, ip
1000abbc:	dd06      	ble.n	1000abcc <__sflush_r+0xec>
1000abbe:	2d00      	cmp	r5, #0
1000abc0:	dcf1      	bgt.n	1000aba6 <__sflush_r+0xc6>
1000abc2:	e7e1      	b.n	1000ab88 <__sflush_r+0xa8>
1000abc4:	6be1      	ldr	r1, [r4, #60]	@ 0x3c
1000abc6:	2900      	cmp	r1, #0
1000abc8:	dc98      	bgt.n	1000aafc <__sflush_r+0x1c>
1000abca:	e7dd      	b.n	1000ab88 <__sflush_r+0xa8>
1000abcc:	f9b4 300c 	ldrsh.w	r3, [r4, #12]
1000abd0:	f043 0340 	orr.w	r3, r3, #64	@ 0x40
1000abd4:	f04f 30ff 	mov.w	r0, #4294967295
1000abd8:	81a3      	strh	r3, [r4, #12]
1000abda:	e8bd 81f0 	ldmia.w	sp!, {r4, r5, r6, r7, r8, pc}
1000abde:	6d22      	ldr	r2, [r4, #80]	@ 0x50
1000abe0:	e7a2      	b.n	1000ab28 <__sflush_r+0x48>
1000abe2:	f9b4 300c 	ldrsh.w	r3, [r4, #12]
1000abe6:	2200      	movs	r2, #0
1000abe8:	6062      	str	r2, [r4, #4]
1000abea:	f423 6200 	bic.w	r2, r3, #2048	@ 0x800
1000abee:	04db      	lsls	r3, r3, #19
1000abf0:	81a2      	strh	r2, [r4, #12]
1000abf2:	6922      	ldr	r2, [r4, #16]
1000abf4:	6022      	str	r2, [r4, #0]
1000abf6:	d5ba      	bpl.n	1000ab6e <__sflush_r+0x8e>
1000abf8:	6520      	str	r0, [r4, #80]	@ 0x50
1000abfa:	e7b8      	b.n	1000ab6e <__sflush_r+0x8e>
1000abfc:	f8d8 3000 	ldr.w	r3, [r8]
1000ac00:	2b00      	cmp	r3, #0
1000ac02:	d08d      	beq.n	1000ab20 <__sflush_r+0x40>
1000ac04:	2b1d      	cmp	r3, #29
1000ac06:	d001      	beq.n	1000ac0c <__sflush_r+0x12c>
1000ac08:	2b16      	cmp	r3, #22
1000ac0a:	d1df      	bne.n	1000abcc <__sflush_r+0xec>
1000ac0c:	f8c8 6000 	str.w	r6, [r8]
1000ac10:	e7ba      	b.n	1000ab88 <__sflush_r+0xa8>
1000ac12:	bf00      	nop
1000ac14:	20400001 	.word	0x20400001

1000ac18 <_fflush_r>:
1000ac18:	b538      	push	{r3, r4, r5, lr}
1000ac1a:	4605      	mov	r5, r0
1000ac1c:	460c      	mov	r4, r1
1000ac1e:	b108      	cbz	r0, 1000ac24 <_fflush_r+0xc>
1000ac20:	6b43      	ldr	r3, [r0, #52]	@ 0x34
1000ac22:	b303      	cbz	r3, 1000ac66 <_fflush_r+0x4e>
1000ac24:	f9b4 000c 	ldrsh.w	r0, [r4, #12]
1000ac28:	b188      	cbz	r0, 1000ac4e <_fflush_r+0x36>
1000ac2a:	6e63      	ldr	r3, [r4, #100]	@ 0x64
1000ac2c:	07db      	lsls	r3, r3, #31
1000ac2e:	d401      	bmi.n	1000ac34 <_fflush_r+0x1c>
1000ac30:	0581      	lsls	r1, r0, #22
1000ac32:	d50f      	bpl.n	1000ac54 <_fflush_r+0x3c>
1000ac34:	4628      	mov	r0, r5
1000ac36:	4621      	mov	r1, r4
1000ac38:	f7ff ff52 	bl	1000aae0 <__sflush_r>
1000ac3c:	6e63      	ldr	r3, [r4, #100]	@ 0x64
1000ac3e:	4605      	mov	r5, r0
1000ac40:	07da      	lsls	r2, r3, #31
1000ac42:	d402      	bmi.n	1000ac4a <_fflush_r+0x32>
1000ac44:	89a3      	ldrh	r3, [r4, #12]
1000ac46:	059b      	lsls	r3, r3, #22
1000ac48:	d508      	bpl.n	1000ac5c <_fflush_r+0x44>
1000ac4a:	4628      	mov	r0, r5
1000ac4c:	bd38      	pop	{r3, r4, r5, pc}
1000ac4e:	4605      	mov	r5, r0
1000ac50:	4628      	mov	r0, r5
1000ac52:	bd38      	pop	{r3, r4, r5, pc}
1000ac54:	6da0      	ldr	r0, [r4, #88]	@ 0x58
1000ac56:	f7fb fecd 	bl	100069f4 <__retarget_lock_acquire_recursive>
1000ac5a:	e7eb      	b.n	1000ac34 <_fflush_r+0x1c>
1000ac5c:	6da0      	ldr	r0, [r4, #88]	@ 0x58
1000ac5e:	f7fb fecb 	bl	100069f8 <__retarget_lock_release_recursive>
1000ac62:	4628      	mov	r0, r5
1000ac64:	bd38      	pop	{r3, r4, r5, pc}
1000ac66:	f7fd ffbb 	bl	10008be0 <__sinit>
1000ac6a:	e7db      	b.n	1000ac24 <_fflush_r+0xc>

1000ac6c <__smakebuf_r>:
1000ac6c:	f9b1 300c 	ldrsh.w	r3, [r1, #12]
1000ac70:	e92d 41f0 	stmdb	sp!, {r4, r5, r6, r7, r8, lr}
1000ac74:	460c      	mov	r4, r1
1000ac76:	0799      	lsls	r1, r3, #30
1000ac78:	b096      	sub	sp, #88	@ 0x58
1000ac7a:	d508      	bpl.n	1000ac8e <__smakebuf_r+0x22>
1000ac7c:	f104 0343 	add.w	r3, r4, #67	@ 0x43
1000ac80:	2201      	movs	r2, #1
1000ac82:	6023      	str	r3, [r4, #0]
1000ac84:	e9c4 3204 	strd	r3, r2, [r4, #16]
1000ac88:	b016      	add	sp, #88	@ 0x58
1000ac8a:	e8bd 81f0 	ldmia.w	sp!, {r4, r5, r6, r7, r8, pc}
1000ac8e:	f9b4 100e 	ldrsh.w	r1, [r4, #14]
1000ac92:	4606      	mov	r6, r0
1000ac94:	2900      	cmp	r1, #0
1000ac96:	db26      	blt.n	1000ace6 <__smakebuf_r+0x7a>
1000ac98:	466a      	mov	r2, sp
1000ac9a:	f000 f855 	bl	1000ad48 <_fstat_r>
1000ac9e:	2800      	cmp	r0, #0
1000aca0:	db1f      	blt.n	1000ace2 <__smakebuf_r+0x76>
1000aca2:	9d01      	ldr	r5, [sp, #4]
1000aca4:	f44f 6880 	mov.w	r8, #1024	@ 0x400
1000aca8:	f44f 6700 	mov.w	r7, #2048	@ 0x800
1000acac:	f405 4570 	and.w	r5, r5, #61440	@ 0xf000
1000acb0:	f5a5 5500 	sub.w	r5, r5, #8192	@ 0x2000
1000acb4:	fab5 f585 	clz	r5, r5
1000acb8:	096d      	lsrs	r5, r5, #5
1000acba:	4641      	mov	r1, r8
1000acbc:	4630      	mov	r0, r6
1000acbe:	f7fb f8fd 	bl	10005ebc <_malloc_r>
1000acc2:	b1e8      	cbz	r0, 1000ad00 <__smakebuf_r+0x94>
1000acc4:	f9b4 300c 	ldrsh.w	r3, [r4, #12]
1000acc8:	f8c4 8014 	str.w	r8, [r4, #20]
1000accc:	f043 0380 	orr.w	r3, r3, #128	@ 0x80
1000acd0:	6020      	str	r0, [r4, #0]
1000acd2:	6120      	str	r0, [r4, #16]
1000acd4:	81a3      	strh	r3, [r4, #12]
1000acd6:	bb3d      	cbnz	r5, 1000ad28 <__smakebuf_r+0xbc>
1000acd8:	433b      	orrs	r3, r7
1000acda:	81a3      	strh	r3, [r4, #12]
1000acdc:	b016      	add	sp, #88	@ 0x58
1000acde:	e8bd 81f0 	ldmia.w	sp!, {r4, r5, r6, r7, r8, pc}
1000ace2:	f9b4 300c 	ldrsh.w	r3, [r4, #12]
1000ace6:	f013 0580 	ands.w	r5, r3, #128	@ 0x80
1000acea:	d019      	beq.n	1000ad20 <__smakebuf_r+0xb4>
1000acec:	f04f 0840 	mov.w	r8, #64	@ 0x40
1000acf0:	2500      	movs	r5, #0
1000acf2:	4630      	mov	r0, r6
1000acf4:	4641      	mov	r1, r8
1000acf6:	462f      	mov	r7, r5
1000acf8:	f7fb f8e0 	bl	10005ebc <_malloc_r>
1000acfc:	2800      	cmp	r0, #0
1000acfe:	d1e1      	bne.n	1000acc4 <__smakebuf_r+0x58>
1000ad00:	f9b4 300c 	ldrsh.w	r3, [r4, #12]
1000ad04:	059a      	lsls	r2, r3, #22
1000ad06:	d4bf      	bmi.n	1000ac88 <__smakebuf_r+0x1c>
1000ad08:	f023 0303 	bic.w	r3, r3, #3
1000ad0c:	f104 0243 	add.w	r2, r4, #67	@ 0x43
1000ad10:	2101      	movs	r1, #1
1000ad12:	f043 0302 	orr.w	r3, r3, #2
1000ad16:	6022      	str	r2, [r4, #0]
1000ad18:	e9c4 2104 	strd	r2, r1, [r4, #16]
1000ad1c:	81a3      	strh	r3, [r4, #12]
1000ad1e:	e7b3      	b.n	1000ac88 <__smakebuf_r+0x1c>
1000ad20:	f44f 6880 	mov.w	r8, #1024	@ 0x400
1000ad24:	462f      	mov	r7, r5
1000ad26:	e7c8      	b.n	1000acba <__smakebuf_r+0x4e>
1000ad28:	f9b4 100e 	ldrsh.w	r1, [r4, #14]
1000ad2c:	4630      	mov	r0, r6
1000ad2e:	f000 f821 	bl	1000ad74 <_isatty_r>
1000ad32:	b910      	cbnz	r0, 1000ad3a <__smakebuf_r+0xce>
1000ad34:	f9b4 300c 	ldrsh.w	r3, [r4, #12]
1000ad38:	e7ce      	b.n	1000acd8 <__smakebuf_r+0x6c>
1000ad3a:	89a3      	ldrh	r3, [r4, #12]
1000ad3c:	f023 0303 	bic.w	r3, r3, #3
1000ad40:	f043 0301 	orr.w	r3, r3, #1
1000ad44:	b21b      	sxth	r3, r3
1000ad46:	e7c7      	b.n	1000acd8 <__smakebuf_r+0x6c>

1000ad48 <_fstat_r>:
1000ad48:	b570      	push	{r4, r5, r6, lr}
1000ad4a:	460c      	mov	r4, r1
1000ad4c:	4603      	mov	r3, r0
1000ad4e:	4d08      	ldr	r5, [pc, #32]	@ (1000ad70 <_fstat_r+0x28>)
1000ad50:	2600      	movs	r6, #0
1000ad52:	4620      	mov	r0, r4
1000ad54:	4611      	mov	r1, r2
1000ad56:	461c      	mov	r4, r3
1000ad58:	602e      	str	r6, [r5, #0]
1000ad5a:	f7fa fb17 	bl	1000538c <_fstat>
1000ad5e:	1c43      	adds	r3, r0, #1
1000ad60:	d000      	beq.n	1000ad64 <_fstat_r+0x1c>
1000ad62:	bd70      	pop	{r4, r5, r6, pc}
1000ad64:	682b      	ldr	r3, [r5, #0]
1000ad66:	2b00      	cmp	r3, #0
1000ad68:	d0fb      	beq.n	1000ad62 <_fstat_r+0x1a>
1000ad6a:	6023      	str	r3, [r4, #0]
1000ad6c:	bd70      	pop	{r4, r5, r6, pc}
1000ad6e:	bf00      	nop
1000ad70:	200012f8 	.word	0x200012f8

1000ad74 <_isatty_r>:
1000ad74:	b538      	push	{r3, r4, r5, lr}
1000ad76:	2200      	movs	r2, #0
1000ad78:	4d06      	ldr	r5, [pc, #24]	@ (1000ad94 <_isatty_r+0x20>)
1000ad7a:	4604      	mov	r4, r0
1000ad7c:	4608      	mov	r0, r1
1000ad7e:	602a      	str	r2, [r5, #0]
1000ad80:	f7fa fb08 	bl	10005394 <_isatty>
1000ad84:	1c43      	adds	r3, r0, #1
1000ad86:	d000      	beq.n	1000ad8a <_isatty_r+0x16>
1000ad88:	bd38      	pop	{r3, r4, r5, pc}
1000ad8a:	682b      	ldr	r3, [r5, #0]
1000ad8c:	2b00      	cmp	r3, #0
1000ad8e:	d0fb      	beq.n	1000ad88 <_isatty_r+0x14>
1000ad90:	6023      	str	r3, [r4, #0]
1000ad92:	bd38      	pop	{r3, r4, r5, pc}
1000ad94:	200012f8 	.word	0x200012f8

1000ad98 <nan>:
1000ad98:	2000      	movs	r0, #0
1000ad9a:	4901      	ldr	r1, [pc, #4]	@ (1000ada0 <nan+0x8>)
1000ad9c:	4770      	bx	lr
1000ad9e:	bf00      	nop
1000ada0:	7ff80000 	.word	0x7ff80000

1000ada4 <rshift>:
1000ada4:	e92d 41f0 	stmdb	sp!, {r4, r5, r6, r7, r8, lr}
1000ada8:	6904      	ldr	r4, [r0, #16]
1000adaa:	ebb4 1f61 	cmp.w	r4, r1, asr #5
1000adae:	dc05      	bgt.n	1000adbc <rshift+0x18>
1000adb0:	2300      	movs	r3, #0
1000adb2:	6103      	str	r3, [r0, #16]
1000adb4:	2300      	movs	r3, #0
1000adb6:	6143      	str	r3, [r0, #20]
1000adb8:	e8bd 81f0 	ldmia.w	sp!, {r4, r5, r6, r7, r8, pc}
1000adbc:	f100 0514 	add.w	r5, r0, #20
1000adc0:	114e      	asrs	r6, r1, #5
1000adc2:	f011 0c1f 	ands.w	ip, r1, #31
1000adc6:	eb05 0e84 	add.w	lr, r5, r4, lsl #2
1000adca:	eb05 0386 	add.w	r3, r5, r6, lsl #2
1000adce:	d021      	beq.n	1000ae14 <rshift+0x70>
1000add0:	3304      	adds	r3, #4
1000add2:	f855 1026 	ldr.w	r1, [r5, r6, lsl #2]
1000add6:	f1cc 0820 	rsb	r8, ip, #32
1000adda:	459e      	cmp	lr, r3
1000addc:	fa21 f10c 	lsr.w	r1, r1, ip
1000ade0:	d92d      	bls.n	1000ae3e <rshift+0x9a>
1000ade2:	462f      	mov	r7, r5
1000ade4:	681a      	ldr	r2, [r3, #0]
1000ade6:	fa02 f208 	lsl.w	r2, r2, r8
1000adea:	430a      	orrs	r2, r1
1000adec:	f847 2b04 	str.w	r2, [r7], #4
1000adf0:	f853 1b04 	ldr.w	r1, [r3], #4
1000adf4:	459e      	cmp	lr, r3
1000adf6:	fa21 f10c 	lsr.w	r1, r1, ip
1000adfa:	d8f3      	bhi.n	1000ade4 <rshift+0x40>
1000adfc:	1ba3      	subs	r3, r4, r6
1000adfe:	009b      	lsls	r3, r3, #2
1000ae00:	3b05      	subs	r3, #5
1000ae02:	089b      	lsrs	r3, r3, #2
1000ae04:	3301      	adds	r3, #1
1000ae06:	eb05 0483 	add.w	r4, r5, r3, lsl #2
1000ae0a:	f845 1023 	str.w	r1, [r5, r3, lsl #2]
1000ae0e:	b171      	cbz	r1, 1000ae2e <rshift+0x8a>
1000ae10:	3404      	adds	r4, #4
1000ae12:	e00c      	b.n	1000ae2e <rshift+0x8a>
1000ae14:	459e      	cmp	lr, r3
1000ae16:	d9cb      	bls.n	1000adb0 <rshift+0xc>
1000ae18:	f100 0210 	add.w	r2, r0, #16
1000ae1c:	f853 1b04 	ldr.w	r1, [r3], #4
1000ae20:	459e      	cmp	lr, r3
1000ae22:	f842 1f04 	str.w	r1, [r2, #4]!
1000ae26:	d8f9      	bhi.n	1000ae1c <rshift+0x78>
1000ae28:	1ba4      	subs	r4, r4, r6
1000ae2a:	eb05 0484 	add.w	r4, r5, r4, lsl #2
1000ae2e:	1b63      	subs	r3, r4, r5
1000ae30:	42ac      	cmp	r4, r5
1000ae32:	ea4f 03a3 	mov.w	r3, r3, asr #2
1000ae36:	6103      	str	r3, [r0, #16]
1000ae38:	d0bc      	beq.n	1000adb4 <rshift+0x10>
1000ae3a:	e8bd 81f0 	ldmia.w	sp!, {r4, r5, r6, r7, r8, pc}
1000ae3e:	6141      	str	r1, [r0, #20]
1000ae40:	2900      	cmp	r1, #0
1000ae42:	d0b5      	beq.n	1000adb0 <rshift+0xc>
1000ae44:	462c      	mov	r4, r5
1000ae46:	e7e3      	b.n	1000ae10 <rshift+0x6c>

1000ae48 <__gethex>:
1000ae48:	e92d 4ff0 	stmdb	sp!, {r4, r5, r6, r7, r8, r9, sl, fp, lr}
1000ae4c:	468a      	mov	sl, r1
1000ae4e:	b085      	sub	sp, #20
1000ae50:	6809      	ldr	r1, [r1, #0]
1000ae52:	9303      	str	r3, [sp, #12]
1000ae54:	788b      	ldrb	r3, [r1, #2]
1000ae56:	2b30      	cmp	r3, #48	@ 0x30
1000ae58:	e9cd 2000 	strd	r2, r0, [sp]
1000ae5c:	f040 81ee 	bne.w	1000b23c <__gethex+0x3f4>
1000ae60:	1cca      	adds	r2, r1, #3
1000ae62:	7813      	ldrb	r3, [r2, #0]
1000ae64:	4614      	mov	r4, r2
1000ae66:	3201      	adds	r2, #1
1000ae68:	2b30      	cmp	r3, #48	@ 0x30
1000ae6a:	d0fa      	beq.n	1000ae62 <__gethex+0x1a>
1000ae6c:	eba4 0901 	sub.w	r9, r4, r1
1000ae70:	f1a9 0902 	sub.w	r9, r9, #2
1000ae74:	f8df 8310 	ldr.w	r8, [pc, #784]	@ 1000b188 <__gethex+0x340>
1000ae78:	f818 3003 	ldrb.w	r3, [r8, r3]
1000ae7c:	2b00      	cmp	r3, #0
1000ae7e:	f000 80d3 	beq.w	1000b028 <__gethex+0x1e0>
1000ae82:	7823      	ldrb	r3, [r4, #0]
1000ae84:	2700      	movs	r7, #0
1000ae86:	f818 3003 	ldrb.w	r3, [r8, r3]
1000ae8a:	463d      	mov	r5, r7
1000ae8c:	2b00      	cmp	r3, #0
1000ae8e:	f000 816d 	beq.w	1000b16c <__gethex+0x324>
1000ae92:	4626      	mov	r6, r4
1000ae94:	f816 3f01 	ldrb.w	r3, [r6, #1]!
1000ae98:	f818 3003 	ldrb.w	r3, [r8, r3]
1000ae9c:	2b00      	cmp	r3, #0
1000ae9e:	d1f9      	bne.n	1000ae94 <__gethex+0x4c>
1000aea0:	2201      	movs	r2, #1
1000aea2:	49b8      	ldr	r1, [pc, #736]	@ (1000b184 <__gethex+0x33c>)
1000aea4:	4630      	mov	r0, r6
1000aea6:	f7fe f9b5 	bl	10009214 <strncmp>
1000aeaa:	4683      	mov	fp, r0
1000aeac:	2800      	cmp	r0, #0
1000aeae:	d043      	beq.n	1000af38 <__gethex+0xf0>
1000aeb0:	7832      	ldrb	r2, [r6, #0]
1000aeb2:	2d00      	cmp	r5, #0
1000aeb4:	f000 81a3 	beq.w	1000b1fe <__gethex+0x3b6>
1000aeb8:	1bab      	subs	r3, r5, r6
1000aeba:	ea4f 0b83 	mov.w	fp, r3, lsl #2
1000aebe:	f002 02df 	and.w	r2, r2, #223	@ 0xdf
1000aec2:	4635      	mov	r5, r6
1000aec4:	2a50      	cmp	r2, #80	@ 0x50
1000aec6:	d043      	beq.n	1000af50 <__gethex+0x108>
1000aec8:	f8ca 6000 	str.w	r6, [sl]
1000aecc:	2f00      	cmp	r7, #0
1000aece:	d154      	bne.n	1000af7a <__gethex+0x132>
1000aed0:	1b2a      	subs	r2, r5, r4
1000aed2:	4639      	mov	r1, r7
1000aed4:	3a01      	subs	r2, #1
1000aed6:	2a07      	cmp	r2, #7
1000aed8:	dd03      	ble.n	1000aee2 <__gethex+0x9a>
1000aeda:	1052      	asrs	r2, r2, #1
1000aedc:	3101      	adds	r1, #1
1000aede:	2a07      	cmp	r2, #7
1000aee0:	dcfb      	bgt.n	1000aeda <__gethex+0x92>
1000aee2:	9801      	ldr	r0, [sp, #4]
1000aee4:	f000 fb78 	bl	1000b5d8 <_Balloc>
1000aee8:	4682      	mov	sl, r0
1000aeea:	2800      	cmp	r0, #0
1000aeec:	f000 826a 	beq.w	1000b3c4 <__gethex+0x57c>
1000aef0:	f100 0614 	add.w	r6, r0, #20
1000aef4:	42a5      	cmp	r5, r4
1000aef6:	9602      	str	r6, [sp, #8]
1000aef8:	f240 81cc 	bls.w	1000b294 <__gethex+0x44c>
1000aefc:	2700      	movs	r7, #0
1000aefe:	46b9      	mov	r9, r7
1000af00:	e00c      	b.n	1000af1c <__gethex+0xd4>
1000af02:	463a      	mov	r2, r7
1000af04:	3704      	adds	r7, #4
1000af06:	782b      	ldrb	r3, [r5, #0]
1000af08:	42ac      	cmp	r4, r5
1000af0a:	f818 3003 	ldrb.w	r3, [r8, r3]
1000af0e:	f003 030f 	and.w	r3, r3, #15
1000af12:	fa03 f302 	lsl.w	r3, r3, r2
1000af16:	ea49 0903 	orr.w	r9, r9, r3
1000af1a:	d040      	beq.n	1000af9e <__gethex+0x156>
1000af1c:	f815 3d01 	ldrb.w	r3, [r5, #-1]!
1000af20:	2b2e      	cmp	r3, #46	@ 0x2e
1000af22:	d101      	bne.n	1000af28 <__gethex+0xe0>
1000af24:	42ac      	cmp	r4, r5
1000af26:	d931      	bls.n	1000af8c <__gethex+0x144>
1000af28:	2f20      	cmp	r7, #32
1000af2a:	d1ea      	bne.n	1000af02 <__gethex+0xba>
1000af2c:	2200      	movs	r2, #0
1000af2e:	f846 9b04 	str.w	r9, [r6], #4
1000af32:	2704      	movs	r7, #4
1000af34:	4691      	mov	r9, r2
1000af36:	e7e6      	b.n	1000af06 <__gethex+0xbe>
1000af38:	2d00      	cmp	r5, #0
1000af3a:	f000 8170 	beq.w	1000b21e <__gethex+0x3d6>
1000af3e:	7832      	ldrb	r2, [r6, #0]
1000af40:	1bab      	subs	r3, r5, r6
1000af42:	4635      	mov	r5, r6
1000af44:	f002 02df 	and.w	r2, r2, #223	@ 0xdf
1000af48:	ea4f 0b83 	mov.w	fp, r3, lsl #2
1000af4c:	2a50      	cmp	r2, #80	@ 0x50
1000af4e:	d1bb      	bne.n	1000aec8 <__gethex+0x80>
1000af50:	786a      	ldrb	r2, [r5, #1]
1000af52:	2a2b      	cmp	r2, #43	@ 0x2b
1000af54:	f000 8151 	beq.w	1000b1fa <__gethex+0x3b2>
1000af58:	2a2d      	cmp	r2, #45	@ 0x2d
1000af5a:	f040 80c5 	bne.w	1000b0e8 <__gethex+0x2a0>
1000af5e:	2001      	movs	r0, #1
1000af60:	78aa      	ldrb	r2, [r5, #2]
1000af62:	1cae      	adds	r6, r5, #2
1000af64:	f818 1002 	ldrb.w	r1, [r8, r2]
1000af68:	1e4a      	subs	r2, r1, #1
1000af6a:	2a18      	cmp	r2, #24
1000af6c:	f240 80c4 	bls.w	1000b0f8 <__gethex+0x2b0>
1000af70:	462e      	mov	r6, r5
1000af72:	f8ca 6000 	str.w	r6, [sl]
1000af76:	2f00      	cmp	r7, #0
1000af78:	d0aa      	beq.n	1000aed0 <__gethex+0x88>
1000af7a:	f1b9 0f00 	cmp.w	r9, #0
1000af7e:	bf0c      	ite	eq
1000af80:	2506      	moveq	r5, #6
1000af82:	2500      	movne	r5, #0
1000af84:	4628      	mov	r0, r5
1000af86:	b005      	add	sp, #20
1000af88:	e8bd 8ff0 	ldmia.w	sp!, {r4, r5, r6, r7, r8, r9, sl, fp, pc}
1000af8c:	2201      	movs	r2, #1
1000af8e:	497d      	ldr	r1, [pc, #500]	@ (1000b184 <__gethex+0x33c>)
1000af90:	4628      	mov	r0, r5
1000af92:	f7fe f93f 	bl	10009214 <strncmp>
1000af96:	2800      	cmp	r0, #0
1000af98:	d1c6      	bne.n	1000af28 <__gethex+0xe0>
1000af9a:	42ac      	cmp	r4, r5
1000af9c:	d1be      	bne.n	1000af1c <__gethex+0xd4>
1000af9e:	9b02      	ldr	r3, [sp, #8]
1000afa0:	4648      	mov	r0, r9
1000afa2:	f846 9b04 	str.w	r9, [r6], #4
1000afa6:	1af6      	subs	r6, r6, r3
1000afa8:	10b6      	asrs	r6, r6, #2
1000afaa:	f8ca 6010 	str.w	r6, [sl, #16]
1000afae:	0176      	lsls	r6, r6, #5
1000afb0:	f000 fbec 	bl	1000b78c <__hi0bits>
1000afb4:	9b00      	ldr	r3, [sp, #0]
1000afb6:	1a36      	subs	r6, r6, r0
1000afb8:	681c      	ldr	r4, [r3, #0]
1000afba:	42a6      	cmp	r6, r4
1000afbc:	dc77      	bgt.n	1000b0ae <__gethex+0x266>
1000afbe:	f2c0 8120 	blt.w	1000b202 <__gethex+0x3ba>
1000afc2:	2700      	movs	r7, #0
1000afc4:	9b00      	ldr	r3, [sp, #0]
1000afc6:	689a      	ldr	r2, [r3, #8]
1000afc8:	455a      	cmp	r2, fp
1000afca:	f2c0 8158 	blt.w	1000b27e <__gethex+0x436>
1000afce:	9b00      	ldr	r3, [sp, #0]
1000afd0:	685a      	ldr	r2, [r3, #4]
1000afd2:	455a      	cmp	r2, fp
1000afd4:	dd4b      	ble.n	1000b06e <__gethex+0x226>
1000afd6:	eba2 0b0b 	sub.w	fp, r2, fp
1000afda:	455c      	cmp	r4, fp
1000afdc:	f300 80a7 	bgt.w	1000b12e <__gethex+0x2e6>
1000afe0:	68db      	ldr	r3, [r3, #12]
1000afe2:	2b02      	cmp	r3, #2
1000afe4:	f000 80f9 	beq.w	1000b1da <__gethex+0x392>
1000afe8:	2b03      	cmp	r3, #3
1000afea:	f000 816a 	beq.w	1000b2c2 <__gethex+0x47a>
1000afee:	2b01      	cmp	r3, #1
1000aff0:	f040 80f7 	bne.w	1000b1e2 <__gethex+0x39a>
1000aff4:	455c      	cmp	r4, fp
1000aff6:	f040 80f4 	bne.w	1000b1e2 <__gethex+0x39a>
1000affa:	2c01      	cmp	r4, #1
1000affc:	d008      	beq.n	1000b010 <__gethex+0x1c8>
1000affe:	1e61      	subs	r1, r4, #1
1000b000:	4650      	mov	r0, sl
1000b002:	f000 ffeb 	bl	1000bfdc <__any_on>
1000b006:	2800      	cmp	r0, #0
1000b008:	f000 80eb 	beq.w	1000b1e2 <__gethex+0x39a>
1000b00c:	9b00      	ldr	r3, [sp, #0]
1000b00e:	685a      	ldr	r2, [r3, #4]
1000b010:	9903      	ldr	r1, [sp, #12]
1000b012:	2301      	movs	r3, #1
1000b014:	2562      	movs	r5, #98	@ 0x62
1000b016:	600a      	str	r2, [r1, #0]
1000b018:	9a02      	ldr	r2, [sp, #8]
1000b01a:	f8ca 3010 	str.w	r3, [sl, #16]
1000b01e:	6013      	str	r3, [r2, #0]
1000b020:	9b0e      	ldr	r3, [sp, #56]	@ 0x38
1000b022:	f8c3 a000 	str.w	sl, [r3]
1000b026:	e7ad      	b.n	1000af84 <__gethex+0x13c>
1000b028:	2201      	movs	r2, #1
1000b02a:	4956      	ldr	r1, [pc, #344]	@ (1000b184 <__gethex+0x33c>)
1000b02c:	4620      	mov	r0, r4
1000b02e:	f7fe f8f1 	bl	10009214 <strncmp>
1000b032:	4607      	mov	r7, r0
1000b034:	2800      	cmp	r0, #0
1000b036:	f040 809b 	bne.w	1000b170 <__gethex+0x328>
1000b03a:	7863      	ldrb	r3, [r4, #1]
1000b03c:	1c65      	adds	r5, r4, #1
1000b03e:	f818 2003 	ldrb.w	r2, [r8, r3]
1000b042:	2a00      	cmp	r2, #0
1000b044:	f000 8096 	beq.w	1000b174 <__gethex+0x32c>
1000b048:	2b30      	cmp	r3, #48	@ 0x30
1000b04a:	462c      	mov	r4, r5
1000b04c:	f040 8144 	bne.w	1000b2d8 <__gethex+0x490>
1000b050:	f814 3f01 	ldrb.w	r3, [r4, #1]!
1000b054:	2b30      	cmp	r3, #48	@ 0x30
1000b056:	d0fb      	beq.n	1000b050 <__gethex+0x208>
1000b058:	f818 3003 	ldrb.w	r3, [r8, r3]
1000b05c:	f04f 0901 	mov.w	r9, #1
1000b060:	fab3 f783 	clz	r7, r3
1000b064:	097f      	lsrs	r7, r7, #5
1000b066:	2b00      	cmp	r3, #0
1000b068:	f47f af13 	bne.w	1000ae92 <__gethex+0x4a>
1000b06c:	e07e      	b.n	1000b16c <__gethex+0x324>
1000b06e:	2501      	movs	r5, #1
1000b070:	b19f      	cbz	r7, 1000b09a <__gethex+0x252>
1000b072:	9b00      	ldr	r3, [sp, #0]
1000b074:	68da      	ldr	r2, [r3, #12]
1000b076:	2a02      	cmp	r2, #2
1000b078:	f000 8088 	beq.w	1000b18c <__gethex+0x344>
1000b07c:	2a03      	cmp	r2, #3
1000b07e:	f000 8089 	beq.w	1000b194 <__gethex+0x34c>
1000b082:	2a01      	cmp	r2, #1
1000b084:	d107      	bne.n	1000b096 <__gethex+0x24e>
1000b086:	07b9      	lsls	r1, r7, #30
1000b088:	d505      	bpl.n	1000b096 <__gethex+0x24e>
1000b08a:	9b02      	ldr	r3, [sp, #8]
1000b08c:	681a      	ldr	r2, [r3, #0]
1000b08e:	4317      	orrs	r7, r2
1000b090:	07fa      	lsls	r2, r7, #31
1000b092:	f100 8083 	bmi.w	1000b19c <__gethex+0x354>
1000b096:	f045 0510 	orr.w	r5, r5, #16
1000b09a:	9b0e      	ldr	r3, [sp, #56]	@ 0x38
1000b09c:	4628      	mov	r0, r5
1000b09e:	f8c3 a000 	str.w	sl, [r3]
1000b0a2:	9b03      	ldr	r3, [sp, #12]
1000b0a4:	f8c3 b000 	str.w	fp, [r3]
1000b0a8:	b005      	add	sp, #20
1000b0aa:	e8bd 8ff0 	ldmia.w	sp!, {r4, r5, r6, r7, r8, r9, sl, fp, pc}
1000b0ae:	1b36      	subs	r6, r6, r4
1000b0b0:	4650      	mov	r0, sl
1000b0b2:	4631      	mov	r1, r6
1000b0b4:	f000 ff92 	bl	1000bfdc <__any_on>
1000b0b8:	4607      	mov	r7, r0
1000b0ba:	b178      	cbz	r0, 1000b0dc <__gethex+0x294>
1000b0bc:	1e71      	subs	r1, r6, #1
1000b0be:	9b02      	ldr	r3, [sp, #8]
1000b0c0:	2701      	movs	r7, #1
1000b0c2:	114a      	asrs	r2, r1, #5
1000b0c4:	f853 0022 	ldr.w	r0, [r3, r2, lsl #2]
1000b0c8:	f001 021f 	and.w	r2, r1, #31
1000b0cc:	fa07 f202 	lsl.w	r2, r7, r2
1000b0d0:	4202      	tst	r2, r0
1000b0d2:	d003      	beq.n	1000b0dc <__gethex+0x294>
1000b0d4:	42b9      	cmp	r1, r7
1000b0d6:	f300 80e7 	bgt.w	1000b2a8 <__gethex+0x460>
1000b0da:	2702      	movs	r7, #2
1000b0dc:	4631      	mov	r1, r6
1000b0de:	4650      	mov	r0, sl
1000b0e0:	44b3      	add	fp, r6
1000b0e2:	f7ff fe5f 	bl	1000ada4 <rshift>
1000b0e6:	e76d      	b.n	1000afc4 <__gethex+0x17c>
1000b0e8:	f818 1002 	ldrb.w	r1, [r8, r2]
1000b0ec:	1c6e      	adds	r6, r5, #1
1000b0ee:	2000      	movs	r0, #0
1000b0f0:	1e4a      	subs	r2, r1, #1
1000b0f2:	2a18      	cmp	r2, #24
1000b0f4:	f63f af3c 	bhi.w	1000af70 <__gethex+0x128>
1000b0f8:	7872      	ldrb	r2, [r6, #1]
1000b0fa:	3910      	subs	r1, #16
1000b0fc:	3601      	adds	r6, #1
1000b0fe:	f818 2002 	ldrb.w	r2, [r8, r2]
1000b102:	f102 3cff 	add.w	ip, r2, #4294967295
1000b106:	f1bc 0f18 	cmp.w	ip, #24
1000b10a:	d80c      	bhi.n	1000b126 <__gethex+0x2de>
1000b10c:	eb01 0181 	add.w	r1, r1, r1, lsl #2
1000b110:	f816 3f01 	ldrb.w	r3, [r6, #1]!
1000b114:	eb02 0241 	add.w	r2, r2, r1, lsl #1
1000b118:	f1a2 0110 	sub.w	r1, r2, #16
1000b11c:	f818 2003 	ldrb.w	r2, [r8, r3]
1000b120:	1e53      	subs	r3, r2, #1
1000b122:	2b18      	cmp	r3, #24
1000b124:	d9f2      	bls.n	1000b10c <__gethex+0x2c4>
1000b126:	b100      	cbz	r0, 1000b12a <__gethex+0x2e2>
1000b128:	4249      	negs	r1, r1
1000b12a:	448b      	add	fp, r1
1000b12c:	e6cc      	b.n	1000aec8 <__gethex+0x80>
1000b12e:	f10b 36ff 	add.w	r6, fp, #4294967295
1000b132:	2f00      	cmp	r7, #0
1000b134:	f040 80ac 	bne.w	1000b290 <__gethex+0x448>
1000b138:	2e00      	cmp	r6, #0
1000b13a:	f040 80af 	bne.w	1000b29c <__gethex+0x454>
1000b13e:	1173      	asrs	r3, r6, #5
1000b140:	9a02      	ldr	r2, [sp, #8]
1000b142:	f006 061f 	and.w	r6, r6, #31
1000b146:	4659      	mov	r1, fp
1000b148:	f852 2023 	ldr.w	r2, [r2, r3, lsl #2]
1000b14c:	2301      	movs	r3, #1
1000b14e:	4650      	mov	r0, sl
1000b150:	eba4 040b 	sub.w	r4, r4, fp
1000b154:	40b3      	lsls	r3, r6
1000b156:	2502      	movs	r5, #2
1000b158:	4213      	tst	r3, r2
1000b15a:	bf18      	it	ne
1000b15c:	f047 0702 	orrne.w	r7, r7, #2
1000b160:	f7ff fe20 	bl	1000ada4 <rshift>
1000b164:	9b00      	ldr	r3, [sp, #0]
1000b166:	f8d3 b004 	ldr.w	fp, [r3, #4]
1000b16a:	e781      	b.n	1000b070 <__gethex+0x228>
1000b16c:	4626      	mov	r6, r4
1000b16e:	e697      	b.n	1000aea0 <__gethex+0x58>
1000b170:	7823      	ldrb	r3, [r4, #0]
1000b172:	4625      	mov	r5, r4
1000b174:	f003 03df 	and.w	r3, r3, #223	@ 0xdf
1000b178:	2b50      	cmp	r3, #80	@ 0x50
1000b17a:	f000 809e 	beq.w	1000b2ba <__gethex+0x472>
1000b17e:	f8ca 5000 	str.w	r5, [sl]
1000b182:	e6fa      	b.n	1000af7a <__gethex+0x132>
1000b184:	1000c110 	.word	0x1000c110
1000b188:	1000fec8 	.word	0x1000fec8
1000b18c:	9b0f      	ldr	r3, [sp, #60]	@ 0x3c
1000b18e:	f1c3 0301 	rsb	r3, r3, #1
1000b192:	930f      	str	r3, [sp, #60]	@ 0x3c
1000b194:	9b0f      	ldr	r3, [sp, #60]	@ 0x3c
1000b196:	2b00      	cmp	r3, #0
1000b198:	f43f af7d 	beq.w	1000b096 <__gethex+0x24e>
1000b19c:	9b02      	ldr	r3, [sp, #8]
1000b19e:	2600      	movs	r6, #0
1000b1a0:	f8da 7010 	ldr.w	r7, [sl, #16]
1000b1a4:	4698      	mov	r8, r3
1000b1a6:	461a      	mov	r2, r3
1000b1a8:	ea4f 0987 	mov.w	r9, r7, lsl #2
1000b1ac:	eb03 0087 	add.w	r0, r3, r7, lsl #2
1000b1b0:	e003      	b.n	1000b1ba <__gethex+0x372>
1000b1b2:	4290      	cmp	r0, r2
1000b1b4:	f842 6c04 	str.w	r6, [r2, #-4]
1000b1b8:	d944      	bls.n	1000b244 <__gethex+0x3fc>
1000b1ba:	4694      	mov	ip, r2
1000b1bc:	f852 1b04 	ldr.w	r1, [r2], #4
1000b1c0:	1c4b      	adds	r3, r1, #1
1000b1c2:	d0f6      	beq.n	1000b1b2 <__gethex+0x36a>
1000b1c4:	3101      	adds	r1, #1
1000b1c6:	2d02      	cmp	r5, #2
1000b1c8:	f8cc 1000 	str.w	r1, [ip]
1000b1cc:	d07d      	beq.n	1000b2ca <__gethex+0x482>
1000b1ce:	f014 041f 	ands.w	r4, r4, #31
1000b1d2:	f040 80ab 	bne.w	1000b32c <__gethex+0x4e4>
1000b1d6:	2521      	movs	r5, #33	@ 0x21
1000b1d8:	e75f      	b.n	1000b09a <__gethex+0x252>
1000b1da:	9b0f      	ldr	r3, [sp, #60]	@ 0x3c
1000b1dc:	2b00      	cmp	r3, #0
1000b1de:	f43f af17 	beq.w	1000b010 <__gethex+0x1c8>
1000b1e2:	2550      	movs	r5, #80	@ 0x50
1000b1e4:	9801      	ldr	r0, [sp, #4]
1000b1e6:	4651      	mov	r1, sl
1000b1e8:	f000 fa1c 	bl	1000b624 <_Bfree>
1000b1ec:	2300      	movs	r3, #0
1000b1ee:	9a0e      	ldr	r2, [sp, #56]	@ 0x38
1000b1f0:	4628      	mov	r0, r5
1000b1f2:	6013      	str	r3, [r2, #0]
1000b1f4:	b005      	add	sp, #20
1000b1f6:	e8bd 8ff0 	ldmia.w	sp!, {r4, r5, r6, r7, r8, r9, sl, fp, pc}
1000b1fa:	2000      	movs	r0, #0
1000b1fc:	e6b0      	b.n	1000af60 <__gethex+0x118>
1000b1fe:	46ab      	mov	fp, r5
1000b200:	e65d      	b.n	1000aebe <__gethex+0x76>
1000b202:	1ba6      	subs	r6, r4, r6
1000b204:	4651      	mov	r1, sl
1000b206:	9801      	ldr	r0, [sp, #4]
1000b208:	2700      	movs	r7, #0
1000b20a:	4632      	mov	r2, r6
1000b20c:	ebab 0b06 	sub.w	fp, fp, r6
1000b210:	f000 fc4a 	bl	1000baa8 <__lshift>
1000b214:	f100 0314 	add.w	r3, r0, #20
1000b218:	4682      	mov	sl, r0
1000b21a:	9302      	str	r3, [sp, #8]
1000b21c:	e6d2      	b.n	1000afc4 <__gethex+0x17c>
1000b21e:	7872      	ldrb	r2, [r6, #1]
1000b220:	1c75      	adds	r5, r6, #1
1000b222:	f818 1002 	ldrb.w	r1, [r8, r2]
1000b226:	462e      	mov	r6, r5
1000b228:	2900      	cmp	r1, #0
1000b22a:	f43f ae48 	beq.w	1000aebe <__gethex+0x76>
1000b22e:	f816 2f01 	ldrb.w	r2, [r6, #1]!
1000b232:	f818 3002 	ldrb.w	r3, [r8, r2]
1000b236:	2b00      	cmp	r3, #0
1000b238:	d1f9      	bne.n	1000b22e <__gethex+0x3e6>
1000b23a:	e63d      	b.n	1000aeb8 <__gethex+0x70>
1000b23c:	1c8c      	adds	r4, r1, #2
1000b23e:	f04f 0900 	mov.w	r9, #0
1000b242:	e617      	b.n	1000ae74 <__gethex+0x2c>
1000b244:	f8da 2008 	ldr.w	r2, [sl, #8]
1000b248:	4297      	cmp	r7, r2
1000b24a:	da48      	bge.n	1000b2de <__gethex+0x496>
1000b24c:	1c7a      	adds	r2, r7, #1
1000b24e:	2101      	movs	r1, #1
1000b250:	eb0a 0787 	add.w	r7, sl, r7, lsl #2
1000b254:	2d02      	cmp	r5, #2
1000b256:	f8ca 2010 	str.w	r2, [sl, #16]
1000b25a:	f8dd 8008 	ldr.w	r8, [sp, #8]
1000b25e:	6179      	str	r1, [r7, #20]
1000b260:	d033      	beq.n	1000b2ca <__gethex+0x482>
1000b262:	2a00      	cmp	r2, #0
1000b264:	dc6f      	bgt.n	1000b346 <__gethex+0x4fe>
1000b266:	2200      	movs	r2, #0
1000b268:	f8ca 2010 	str.w	r2, [sl, #16]
1000b26c:	2200      	movs	r2, #0
1000b26e:	f8ca 2014 	str.w	r2, [sl, #20]
1000b272:	9b00      	ldr	r3, [sp, #0]
1000b274:	f10b 0b01 	add.w	fp, fp, #1
1000b278:	689a      	ldr	r2, [r3, #8]
1000b27a:	455a      	cmp	r2, fp
1000b27c:	daab      	bge.n	1000b1d6 <__gethex+0x38e>
1000b27e:	4651      	mov	r1, sl
1000b280:	9801      	ldr	r0, [sp, #4]
1000b282:	f000 f9cf 	bl	1000b624 <_Bfree>
1000b286:	2300      	movs	r3, #0
1000b288:	9a0e      	ldr	r2, [sp, #56]	@ 0x38
1000b28a:	25a3      	movs	r5, #163	@ 0xa3
1000b28c:	6013      	str	r3, [r2, #0]
1000b28e:	e679      	b.n	1000af84 <__gethex+0x13c>
1000b290:	2701      	movs	r7, #1
1000b292:	e754      	b.n	1000b13e <__gethex+0x2f6>
1000b294:	9e02      	ldr	r6, [sp, #8]
1000b296:	f04f 0900 	mov.w	r9, #0
1000b29a:	e680      	b.n	1000af9e <__gethex+0x156>
1000b29c:	4631      	mov	r1, r6
1000b29e:	4650      	mov	r0, sl
1000b2a0:	f000 fe9c 	bl	1000bfdc <__any_on>
1000b2a4:	4607      	mov	r7, r0
1000b2a6:	e74a      	b.n	1000b13e <__gethex+0x2f6>
1000b2a8:	1eb1      	subs	r1, r6, #2
1000b2aa:	4650      	mov	r0, sl
1000b2ac:	f000 fe96 	bl	1000bfdc <__any_on>
1000b2b0:	2800      	cmp	r0, #0
1000b2b2:	f43f af12 	beq.w	1000b0da <__gethex+0x292>
1000b2b6:	2703      	movs	r7, #3
1000b2b8:	e710      	b.n	1000b0dc <__gethex+0x294>
1000b2ba:	f04f 0b00 	mov.w	fp, #0
1000b2be:	2701      	movs	r7, #1
1000b2c0:	e646      	b.n	1000af50 <__gethex+0x108>
1000b2c2:	9b0f      	ldr	r3, [sp, #60]	@ 0x3c
1000b2c4:	2b00      	cmp	r3, #0
1000b2c6:	d08c      	beq.n	1000b1e2 <__gethex+0x39a>
1000b2c8:	e6a2      	b.n	1000b010 <__gethex+0x1c8>
1000b2ca:	9b00      	ldr	r3, [sp, #0]
1000b2cc:	681a      	ldr	r2, [r3, #0]
1000b2ce:	3a01      	subs	r2, #1
1000b2d0:	42a2      	cmp	r2, r4
1000b2d2:	d063      	beq.n	1000b39c <__gethex+0x554>
1000b2d4:	2522      	movs	r5, #34	@ 0x22
1000b2d6:	e6e0      	b.n	1000b09a <__gethex+0x252>
1000b2d8:	f04f 0901 	mov.w	r9, #1
1000b2dc:	e5d9      	b.n	1000ae92 <__gethex+0x4a>
1000b2de:	f8da 1004 	ldr.w	r1, [sl, #4]
1000b2e2:	9801      	ldr	r0, [sp, #4]
1000b2e4:	3101      	adds	r1, #1
1000b2e6:	f000 f977 	bl	1000b5d8 <_Balloc>
1000b2ea:	4606      	mov	r6, r0
1000b2ec:	2800      	cmp	r0, #0
1000b2ee:	d06f      	beq.n	1000b3d0 <__gethex+0x588>
1000b2f0:	f8da 2010 	ldr.w	r2, [sl, #16]
1000b2f4:	f10a 010c 	add.w	r1, sl, #12
1000b2f8:	300c      	adds	r0, #12
1000b2fa:	f106 0814 	add.w	r8, r6, #20
1000b2fe:	3202      	adds	r2, #2
1000b300:	0092      	lsls	r2, r2, #2
1000b302:	f7fb fc67 	bl	10006bd4 <memcpy>
1000b306:	4651      	mov	r1, sl
1000b308:	9801      	ldr	r0, [sp, #4]
1000b30a:	46b2      	mov	sl, r6
1000b30c:	f000 f98a 	bl	1000b624 <_Bfree>
1000b310:	6931      	ldr	r1, [r6, #16]
1000b312:	2001      	movs	r0, #1
1000b314:	2d02      	cmp	r5, #2
1000b316:	eb01 0200 	add.w	r2, r1, r0
1000b31a:	eb06 0181 	add.w	r1, r6, r1, lsl #2
1000b31e:	6132      	str	r2, [r6, #16]
1000b320:	6148      	str	r0, [r1, #20]
1000b322:	d0d2      	beq.n	1000b2ca <__gethex+0x482>
1000b324:	4297      	cmp	r7, r2
1000b326:	f6bf af52 	bge.w	1000b1ce <__gethex+0x386>
1000b32a:	e79a      	b.n	1000b262 <__gethex+0x41a>
1000b32c:	44c1      	add	r9, r8
1000b32e:	f1c4 0420 	rsb	r4, r4, #32
1000b332:	f859 0c04 	ldr.w	r0, [r9, #-4]
1000b336:	f000 fa29 	bl	1000b78c <__hi0bits>
1000b33a:	42a0      	cmp	r0, r4
1000b33c:	f6bf af4b 	bge.w	1000b1d6 <__gethex+0x38e>
1000b340:	f8da 2010 	ldr.w	r2, [sl, #16]
1000b344:	e78d      	b.n	1000b262 <__gethex+0x41a>
1000b346:	eb08 0082 	add.w	r0, r8, r2, lsl #2
1000b34a:	f10a 0418 	add.w	r4, sl, #24
1000b34e:	f8da 2014 	ldr.w	r2, [sl, #20]
1000b352:	42a0      	cmp	r0, r4
1000b354:	ea4f 0252 	mov.w	r2, r2, lsr #1
1000b358:	d92c      	bls.n	1000b3b4 <__gethex+0x56c>
1000b35a:	4645      	mov	r5, r8
1000b35c:	6823      	ldr	r3, [r4, #0]
1000b35e:	ea42 72c3 	orr.w	r2, r2, r3, lsl #31
1000b362:	f845 2b04 	str.w	r2, [r5], #4
1000b366:	f854 2b04 	ldr.w	r2, [r4], #4
1000b36a:	42a0      	cmp	r0, r4
1000b36c:	ea4f 0252 	mov.w	r2, r2, lsr #1
1000b370:	d8f4      	bhi.n	1000b35c <__gethex+0x514>
1000b372:	eba0 010a 	sub.w	r1, r0, sl
1000b376:	3919      	subs	r1, #25
1000b378:	0889      	lsrs	r1, r1, #2
1000b37a:	3101      	adds	r1, #1
1000b37c:	f848 2021 	str.w	r2, [r8, r1, lsl #2]
1000b380:	eb08 0181 	add.w	r1, r8, r1, lsl #2
1000b384:	b102      	cbz	r2, 1000b388 <__gethex+0x540>
1000b386:	3104      	adds	r1, #4
1000b388:	eba1 0208 	sub.w	r2, r1, r8
1000b38c:	4541      	cmp	r1, r8
1000b38e:	ea4f 02a2 	mov.w	r2, r2, asr #2
1000b392:	f8ca 2010 	str.w	r2, [sl, #16]
1000b396:	f47f af6c 	bne.w	1000b272 <__gethex+0x42a>
1000b39a:	e767      	b.n	1000b26c <__gethex+0x424>
1000b39c:	1162      	asrs	r2, r4, #5
1000b39e:	f004 041f 	and.w	r4, r4, #31
1000b3a2:	f858 1022 	ldr.w	r1, [r8, r2, lsl #2]
1000b3a6:	2201      	movs	r2, #1
1000b3a8:	40a2      	lsls	r2, r4
1000b3aa:	420a      	tst	r2, r1
1000b3ac:	bf14      	ite	ne
1000b3ae:	2521      	movne	r5, #33	@ 0x21
1000b3b0:	2522      	moveq	r5, #34	@ 0x22
1000b3b2:	e672      	b.n	1000b09a <__gethex+0x252>
1000b3b4:	f8c8 2000 	str.w	r2, [r8]
1000b3b8:	b10a      	cbz	r2, 1000b3be <__gethex+0x576>
1000b3ba:	4641      	mov	r1, r8
1000b3bc:	e7e3      	b.n	1000b386 <__gethex+0x53e>
1000b3be:	f8ca 2010 	str.w	r2, [sl, #16]
1000b3c2:	e753      	b.n	1000b26c <__gethex+0x424>
1000b3c4:	4602      	mov	r2, r0
1000b3c6:	4b05      	ldr	r3, [pc, #20]	@ (1000b3dc <__gethex+0x594>)
1000b3c8:	21e4      	movs	r1, #228	@ 0xe4
1000b3ca:	4805      	ldr	r0, [pc, #20]	@ (1000b3e0 <__gethex+0x598>)
1000b3cc:	f7f9 ffec 	bl	100053a8 <__assert_func>
1000b3d0:	4602      	mov	r2, r0
1000b3d2:	4b02      	ldr	r3, [pc, #8]	@ (1000b3dc <__gethex+0x594>)
1000b3d4:	2184      	movs	r1, #132	@ 0x84
1000b3d6:	4802      	ldr	r0, [pc, #8]	@ (1000b3e0 <__gethex+0x598>)
1000b3d8:	f7f9 ffe6 	bl	100053a8 <__assert_func>
1000b3dc:	1000c698 	.word	0x1000c698
1000b3e0:	1000c6ac 	.word	0x1000c6ac

1000b3e4 <__match>:
1000b3e4:	b510      	push	{r4, lr}
1000b3e6:	6804      	ldr	r4, [r0, #0]
1000b3e8:	4686      	mov	lr, r0
1000b3ea:	3401      	adds	r4, #1
1000b3ec:	e009      	b.n	1000b402 <__match+0x1e>
1000b3ee:	f814 3b01 	ldrb.w	r3, [r4], #1
1000b3f2:	f1a3 0c41 	sub.w	ip, r3, #65	@ 0x41
1000b3f6:	f1bc 0f19 	cmp.w	ip, #25
1000b3fa:	bf98      	it	ls
1000b3fc:	3320      	addls	r3, #32
1000b3fe:	4293      	cmp	r3, r2
1000b400:	d107      	bne.n	1000b412 <__match+0x2e>
1000b402:	f811 2b01 	ldrb.w	r2, [r1], #1
1000b406:	2a00      	cmp	r2, #0
1000b408:	d1f1      	bne.n	1000b3ee <__match+0xa>
1000b40a:	2001      	movs	r0, #1
1000b40c:	f8ce 4000 	str.w	r4, [lr]
1000b410:	bd10      	pop	{r4, pc}
1000b412:	2000      	movs	r0, #0
1000b414:	bd10      	pop	{r4, pc}
1000b416:	bf00      	nop

1000b418 <__hexnan>:
1000b418:	6809      	ldr	r1, [r1, #0]
1000b41a:	e92d 4ff0 	stmdb	sp!, {r4, r5, r6, r7, r8, r9, sl, fp, lr}
1000b41e:	114b      	asrs	r3, r1, #5
1000b420:	b085      	sub	sp, #20
1000b422:	f011 011f 	ands.w	r1, r1, #31
1000b426:	4604      	mov	r4, r0
1000b428:	eb02 0383 	add.w	r3, r2, r3, lsl #2
1000b42c:	9102      	str	r1, [sp, #8]
1000b42e:	f040 809a 	bne.w	1000b566 <__hexnan+0x14e>
1000b432:	1f18      	subs	r0, r3, #4
1000b434:	4619      	mov	r1, r3
1000b436:	6825      	ldr	r5, [r4, #0]
1000b438:	2600      	movs	r6, #0
1000b43a:	f841 6c04 	str.w	r6, [r1, #-4]
1000b43e:	3501      	adds	r5, #1
1000b440:	782b      	ldrb	r3, [r5, #0]
1000b442:	2b00      	cmp	r3, #0
1000b444:	f000 80a7 	beq.w	1000b596 <__hexnan+0x17e>
1000b448:	46b4      	mov	ip, r6
1000b44a:	9101      	str	r1, [sp, #4]
1000b44c:	4606      	mov	r6, r0
1000b44e:	4686      	mov	lr, r0
1000b450:	f8df 8180 	ldr.w	r8, [pc, #384]	@ 1000b5d4 <__hexnan+0x1bc>
1000b454:	46e1      	mov	r9, ip
1000b456:	4667      	mov	r7, ip
1000b458:	46e3      	mov	fp, ip
1000b45a:	46aa      	mov	sl, r5
1000b45c:	4601      	mov	r1, r0
1000b45e:	9403      	str	r4, [sp, #12]
1000b460:	f818 0003 	ldrb.w	r0, [r8, r3]
1000b464:	2800      	cmp	r0, #0
1000b466:	d15c      	bne.n	1000b522 <__hexnan+0x10a>
1000b468:	2b20      	cmp	r3, #32
1000b46a:	f200 808e 	bhi.w	1000b58a <__hexnan+0x172>
1000b46e:	454f      	cmp	r7, r9
1000b470:	dd20      	ble.n	1000b4b4 <__hexnan+0x9c>
1000b472:	4576      	cmp	r6, lr
1000b474:	d91a      	bls.n	1000b4ac <__hexnan+0x94>
1000b476:	f1bc 0f07 	cmp.w	ip, #7
1000b47a:	dc17      	bgt.n	1000b4ac <__hexnan+0x94>
1000b47c:	f1cc 0408 	rsb	r4, ip, #8
1000b480:	f8de 3000 	ldr.w	r3, [lr]
1000b484:	4670      	mov	r0, lr
1000b486:	f8cd e000 	str.w	lr, [sp]
1000b48a:	00a4      	lsls	r4, r4, #2
1000b48c:	f1c4 0c20 	rsb	ip, r4, #32
1000b490:	46a6      	mov	lr, r4
1000b492:	6844      	ldr	r4, [r0, #4]
1000b494:	fa04 f50c 	lsl.w	r5, r4, ip
1000b498:	431d      	orrs	r5, r3
1000b49a:	fa24 f30e 	lsr.w	r3, r4, lr
1000b49e:	6005      	str	r5, [r0, #0]
1000b4a0:	f840 3f04 	str.w	r3, [r0, #4]!
1000b4a4:	4286      	cmp	r6, r0
1000b4a6:	d8f4      	bhi.n	1000b492 <__hexnan+0x7a>
1000b4a8:	f8dd e000 	ldr.w	lr, [sp]
1000b4ac:	4572      	cmp	r2, lr
1000b4ae:	d351      	bcc.n	1000b554 <__hexnan+0x13c>
1000b4b0:	f04f 0c08 	mov.w	ip, #8
1000b4b4:	f81a 3f01 	ldrb.w	r3, [sl, #1]!
1000b4b8:	2b00      	cmp	r3, #0
1000b4ba:	d1d1      	bne.n	1000b460 <__hexnan+0x48>
1000b4bc:	4608      	mov	r0, r1
1000b4be:	9901      	ldr	r1, [sp, #4]
1000b4c0:	2f00      	cmp	r7, #0
1000b4c2:	d068      	beq.n	1000b596 <__hexnan+0x17e>
1000b4c4:	45b6      	cmp	lr, r6
1000b4c6:	d202      	bcs.n	1000b4ce <__hexnan+0xb6>
1000b4c8:	f1bc 0f07 	cmp.w	ip, #7
1000b4cc:	dd67      	ble.n	1000b59e <__hexnan+0x186>
1000b4ce:	4572      	cmp	r2, lr
1000b4d0:	d24c      	bcs.n	1000b56c <__hexnan+0x154>
1000b4d2:	1f14      	subs	r4, r2, #4
1000b4d4:	4673      	mov	r3, lr
1000b4d6:	f853 5b04 	ldr.w	r5, [r3], #4
1000b4da:	4283      	cmp	r3, r0
1000b4dc:	f844 5f04 	str.w	r5, [r4, #4]!
1000b4e0:	d9f9      	bls.n	1000b4d6 <__hexnan+0xbe>
1000b4e2:	eba0 030e 	sub.w	r3, r0, lr
1000b4e6:	1c44      	adds	r4, r0, #1
1000b4e8:	f10e 0e01 	add.w	lr, lr, #1
1000b4ec:	f023 0303 	bic.w	r3, r3, #3
1000b4f0:	3304      	adds	r3, #4
1000b4f2:	45a6      	cmp	lr, r4
1000b4f4:	bf88      	it	hi
1000b4f6:	2304      	movhi	r3, #4
1000b4f8:	2400      	movs	r4, #0
1000b4fa:	4413      	add	r3, r2
1000b4fc:	f843 4b04 	str.w	r4, [r3], #4
1000b500:	4283      	cmp	r3, r0
1000b502:	d9fb      	bls.n	1000b4fc <__hexnan+0xe4>
1000b504:	f851 4c04 	ldr.w	r4, [r1, #-4]
1000b508:	b11c      	cbz	r4, 1000b512 <__hexnan+0xfa>
1000b50a:	e006      	b.n	1000b51a <__hexnan+0x102>
1000b50c:	f850 3d04 	ldr.w	r3, [r0, #-4]!
1000b510:	b91b      	cbnz	r3, 1000b51a <__hexnan+0x102>
1000b512:	4282      	cmp	r2, r0
1000b514:	d1fa      	bne.n	1000b50c <__hexnan+0xf4>
1000b516:	2301      	movs	r3, #1
1000b518:	6003      	str	r3, [r0, #0]
1000b51a:	2005      	movs	r0, #5
1000b51c:	b005      	add	sp, #20
1000b51e:	e8bd 8ff0 	ldmia.w	sp!, {r4, r5, r6, r7, r8, r9, sl, fp, pc}
1000b522:	f10c 0c01 	add.w	ip, ip, #1
1000b526:	3701      	adds	r7, #1
1000b528:	f1bc 0f08 	cmp.w	ip, #8
1000b52c:	dc08      	bgt.n	1000b540 <__hexnan+0x128>
1000b52e:	f8de 3000 	ldr.w	r3, [lr]
1000b532:	011b      	lsls	r3, r3, #4
1000b534:	f000 000f 	and.w	r0, r0, #15
1000b538:	4318      	orrs	r0, r3
1000b53a:	f8ce 0000 	str.w	r0, [lr]
1000b53e:	e7b9      	b.n	1000b4b4 <__hexnan+0x9c>
1000b540:	4572      	cmp	r2, lr
1000b542:	d2b7      	bcs.n	1000b4b4 <__hexnan+0x9c>
1000b544:	f84e bc04 	str.w	fp, [lr, #-4]
1000b548:	2300      	movs	r3, #0
1000b54a:	f1ae 0e04 	sub.w	lr, lr, #4
1000b54e:	f04f 0c01 	mov.w	ip, #1
1000b552:	e7ef      	b.n	1000b534 <__hexnan+0x11c>
1000b554:	f1ae 0604 	sub.w	r6, lr, #4
1000b558:	f84e bc04 	str.w	fp, [lr, #-4]
1000b55c:	46b9      	mov	r9, r7
1000b55e:	f04f 0c00 	mov.w	ip, #0
1000b562:	46b6      	mov	lr, r6
1000b564:	e7a6      	b.n	1000b4b4 <__hexnan+0x9c>
1000b566:	1d19      	adds	r1, r3, #4
1000b568:	4618      	mov	r0, r3
1000b56a:	e764      	b.n	1000b436 <__hexnan+0x1e>
1000b56c:	9b02      	ldr	r3, [sp, #8]
1000b56e:	f851 4c04 	ldr.w	r4, [r1, #-4]
1000b572:	2b00      	cmp	r3, #0
1000b574:	d0c8      	beq.n	1000b508 <__hexnan+0xf0>
1000b576:	f1c3 0320 	rsb	r3, r3, #32
1000b57a:	f04f 35ff 	mov.w	r5, #4294967295
1000b57e:	fa25 f303 	lsr.w	r3, r5, r3
1000b582:	401c      	ands	r4, r3
1000b584:	f841 4c04 	str.w	r4, [r1, #-4]
1000b588:	e7be      	b.n	1000b508 <__hexnan+0xf0>
1000b58a:	2b29      	cmp	r3, #41	@ 0x29
1000b58c:	4608      	mov	r0, r1
1000b58e:	4655      	mov	r5, sl
1000b590:	9901      	ldr	r1, [sp, #4]
1000b592:	9c03      	ldr	r4, [sp, #12]
1000b594:	d01b      	beq.n	1000b5ce <__hexnan+0x1b6>
1000b596:	2004      	movs	r0, #4
1000b598:	b005      	add	sp, #20
1000b59a:	e8bd 8ff0 	ldmia.w	sp!, {r4, r5, r6, r7, r8, r9, sl, fp, pc}
1000b59e:	f1cc 0308 	rsb	r3, ip, #8
1000b5a2:	f8de 4000 	ldr.w	r4, [lr]
1000b5a6:	4677      	mov	r7, lr
1000b5a8:	009b      	lsls	r3, r3, #2
1000b5aa:	4625      	mov	r5, r4
1000b5ac:	f1c3 0820 	rsb	r8, r3, #32
1000b5b0:	469c      	mov	ip, r3
1000b5b2:	687b      	ldr	r3, [r7, #4]
1000b5b4:	fa03 f408 	lsl.w	r4, r3, r8
1000b5b8:	432c      	orrs	r4, r5
1000b5ba:	fa23 f50c 	lsr.w	r5, r3, ip
1000b5be:	603c      	str	r4, [r7, #0]
1000b5c0:	f847 5f04 	str.w	r5, [r7, #4]!
1000b5c4:	42be      	cmp	r6, r7
1000b5c6:	d8f4      	bhi.n	1000b5b2 <__hexnan+0x19a>
1000b5c8:	4572      	cmp	r2, lr
1000b5ca:	d382      	bcc.n	1000b4d2 <__hexnan+0xba>
1000b5cc:	e7ce      	b.n	1000b56c <__hexnan+0x154>
1000b5ce:	3501      	adds	r5, #1
1000b5d0:	6025      	str	r5, [r4, #0]
1000b5d2:	e775      	b.n	1000b4c0 <__hexnan+0xa8>
1000b5d4:	1000fec8 	.word	0x1000fec8

1000b5d8 <_Balloc>:
1000b5d8:	b538      	push	{r3, r4, r5, lr}
1000b5da:	6c43      	ldr	r3, [r0, #68]	@ 0x44
1000b5dc:	4605      	mov	r5, r0
1000b5de:	460c      	mov	r4, r1
1000b5e0:	b14b      	cbz	r3, 1000b5f6 <_Balloc+0x1e>
1000b5e2:	f853 0024 	ldr.w	r0, [r3, r4, lsl #2]
1000b5e6:	b180      	cbz	r0, 1000b60a <_Balloc+0x32>
1000b5e8:	6802      	ldr	r2, [r0, #0]
1000b5ea:	f843 2024 	str.w	r2, [r3, r4, lsl #2]
1000b5ee:	2300      	movs	r3, #0
1000b5f0:	e9c0 3303 	strd	r3, r3, [r0, #12]
1000b5f4:	bd38      	pop	{r3, r4, r5, pc}
1000b5f6:	2221      	movs	r2, #33	@ 0x21
1000b5f8:	2104      	movs	r1, #4
1000b5fa:	f7fa fc17 	bl	10005e2c <_calloc_r>
1000b5fe:	4603      	mov	r3, r0
1000b600:	6468      	str	r0, [r5, #68]	@ 0x44
1000b602:	2800      	cmp	r0, #0
1000b604:	d1ed      	bne.n	1000b5e2 <_Balloc+0xa>
1000b606:	2000      	movs	r0, #0
1000b608:	bd38      	pop	{r3, r4, r5, pc}
1000b60a:	2101      	movs	r1, #1
1000b60c:	4628      	mov	r0, r5
1000b60e:	fa01 f504 	lsl.w	r5, r1, r4
1000b612:	1d6a      	adds	r2, r5, #5
1000b614:	0092      	lsls	r2, r2, #2
1000b616:	f7fa fc09 	bl	10005e2c <_calloc_r>
1000b61a:	2800      	cmp	r0, #0
1000b61c:	d0f3      	beq.n	1000b606 <_Balloc+0x2e>
1000b61e:	e9c0 4501 	strd	r4, r5, [r0, #4]
1000b622:	e7e4      	b.n	1000b5ee <_Balloc+0x16>

1000b624 <_Bfree>:
1000b624:	b131      	cbz	r1, 1000b634 <_Bfree+0x10>
1000b626:	6c43      	ldr	r3, [r0, #68]	@ 0x44
1000b628:	684a      	ldr	r2, [r1, #4]
1000b62a:	f853 0022 	ldr.w	r0, [r3, r2, lsl #2]
1000b62e:	6008      	str	r0, [r1, #0]
1000b630:	f843 1022 	str.w	r1, [r3, r2, lsl #2]
1000b634:	4770      	bx	lr
1000b636:	bf00      	nop

1000b638 <__multadd>:
1000b638:	e92d 41f0 	stmdb	sp!, {r4, r5, r6, r7, r8, lr}
1000b63c:	4607      	mov	r7, r0
1000b63e:	460e      	mov	r6, r1
1000b640:	461c      	mov	r4, r3
1000b642:	690d      	ldr	r5, [r1, #16]
1000b644:	f101 0e14 	add.w	lr, r1, #20
1000b648:	2000      	movs	r0, #0
1000b64a:	f8de 1000 	ldr.w	r1, [lr]
1000b64e:	3001      	adds	r0, #1
1000b650:	b28b      	uxth	r3, r1
1000b652:	4285      	cmp	r5, r0
1000b654:	ea4f 4111 	mov.w	r1, r1, lsr #16
1000b658:	fb02 4303 	mla	r3, r2, r3, r4
1000b65c:	ea4f 4c13 	mov.w	ip, r3, lsr #16
1000b660:	b29b      	uxth	r3, r3
1000b662:	fb02 cc01 	mla	ip, r2, r1, ip
1000b666:	eb03 430c 	add.w	r3, r3, ip, lsl #16
1000b66a:	ea4f 441c 	mov.w	r4, ip, lsr #16
1000b66e:	f84e 3b04 	str.w	r3, [lr], #4
1000b672:	dcea      	bgt.n	1000b64a <__multadd+0x12>
1000b674:	b13c      	cbz	r4, 1000b686 <__multadd+0x4e>
1000b676:	68b3      	ldr	r3, [r6, #8]
1000b678:	42ab      	cmp	r3, r5
1000b67a:	dd07      	ble.n	1000b68c <__multadd+0x54>
1000b67c:	eb06 0385 	add.w	r3, r6, r5, lsl #2
1000b680:	3501      	adds	r5, #1
1000b682:	615c      	str	r4, [r3, #20]
1000b684:	6135      	str	r5, [r6, #16]
1000b686:	4630      	mov	r0, r6
1000b688:	e8bd 81f0 	ldmia.w	sp!, {r4, r5, r6, r7, r8, pc}
1000b68c:	6871      	ldr	r1, [r6, #4]
1000b68e:	4638      	mov	r0, r7
1000b690:	3101      	adds	r1, #1
1000b692:	f7ff ffa1 	bl	1000b5d8 <_Balloc>
1000b696:	4680      	mov	r8, r0
1000b698:	b1a8      	cbz	r0, 1000b6c6 <__multadd+0x8e>
1000b69a:	6932      	ldr	r2, [r6, #16]
1000b69c:	f106 010c 	add.w	r1, r6, #12
1000b6a0:	300c      	adds	r0, #12
1000b6a2:	3202      	adds	r2, #2
1000b6a4:	0092      	lsls	r2, r2, #2
1000b6a6:	f7fb fa95 	bl	10006bd4 <memcpy>
1000b6aa:	6c7b      	ldr	r3, [r7, #68]	@ 0x44
1000b6ac:	6872      	ldr	r2, [r6, #4]
1000b6ae:	f853 1022 	ldr.w	r1, [r3, r2, lsl #2]
1000b6b2:	6031      	str	r1, [r6, #0]
1000b6b4:	f843 6022 	str.w	r6, [r3, r2, lsl #2]
1000b6b8:	4646      	mov	r6, r8
1000b6ba:	eb06 0385 	add.w	r3, r6, r5, lsl #2
1000b6be:	3501      	adds	r5, #1
1000b6c0:	615c      	str	r4, [r3, #20]
1000b6c2:	6135      	str	r5, [r6, #16]
1000b6c4:	e7df      	b.n	1000b686 <__multadd+0x4e>
1000b6c6:	4602      	mov	r2, r0
1000b6c8:	4b02      	ldr	r3, [pc, #8]	@ (1000b6d4 <__multadd+0x9c>)
1000b6ca:	21ba      	movs	r1, #186	@ 0xba
1000b6cc:	4802      	ldr	r0, [pc, #8]	@ (1000b6d8 <__multadd+0xa0>)
1000b6ce:	f7f9 fe6b 	bl	100053a8 <__assert_func>
1000b6d2:	bf00      	nop
1000b6d4:	1000c698 	.word	0x1000c698
1000b6d8:	1000c710 	.word	0x1000c710

1000b6dc <__s2b>:
1000b6dc:	e92d 43f8 	stmdb	sp!, {r3, r4, r5, r6, r7, r8, r9, lr}
1000b6e0:	461e      	mov	r6, r3
1000b6e2:	4617      	mov	r7, r2
1000b6e4:	3308      	adds	r3, #8
1000b6e6:	4a26      	ldr	r2, [pc, #152]	@ (1000b780 <__s2b+0xa4>)
1000b6e8:	460c      	mov	r4, r1
1000b6ea:	2e09      	cmp	r6, #9
1000b6ec:	fb82 1203 	smull	r1, r2, r2, r3
1000b6f0:	ea4f 73e3 	mov.w	r3, r3, asr #31
1000b6f4:	4605      	mov	r5, r0
1000b6f6:	ebc3 0362 	rsb	r3, r3, r2, asr #1
1000b6fa:	dd38      	ble.n	1000b76e <__s2b+0x92>
1000b6fc:	f04f 0c01 	mov.w	ip, #1
1000b700:	2100      	movs	r1, #0
1000b702:	ea4f 0c4c 	mov.w	ip, ip, lsl #1
1000b706:	3101      	adds	r1, #1
1000b708:	4563      	cmp	r3, ip
1000b70a:	dcfa      	bgt.n	1000b702 <__s2b+0x26>
1000b70c:	4628      	mov	r0, r5
1000b70e:	f7ff ff63 	bl	1000b5d8 <_Balloc>
1000b712:	4601      	mov	r1, r0
1000b714:	b368      	cbz	r0, 1000b772 <__s2b+0x96>
1000b716:	9b08      	ldr	r3, [sp, #32]
1000b718:	2f09      	cmp	r7, #9
1000b71a:	6143      	str	r3, [r0, #20]
1000b71c:	f04f 0301 	mov.w	r3, #1
1000b720:	6103      	str	r3, [r0, #16]
1000b722:	dc12      	bgt.n	1000b74a <__s2b+0x6e>
1000b724:	340a      	adds	r4, #10
1000b726:	2709      	movs	r7, #9
1000b728:	42be      	cmp	r6, r7
1000b72a:	dd0b      	ble.n	1000b744 <__s2b+0x68>
1000b72c:	1bf6      	subs	r6, r6, r7
1000b72e:	4426      	add	r6, r4
1000b730:	f814 3b01 	ldrb.w	r3, [r4], #1
1000b734:	220a      	movs	r2, #10
1000b736:	4628      	mov	r0, r5
1000b738:	3b30      	subs	r3, #48	@ 0x30
1000b73a:	f7ff ff7d 	bl	1000b638 <__multadd>
1000b73e:	42b4      	cmp	r4, r6
1000b740:	4601      	mov	r1, r0
1000b742:	d1f5      	bne.n	1000b730 <__s2b+0x54>
1000b744:	4608      	mov	r0, r1
1000b746:	e8bd 83f8 	ldmia.w	sp!, {r3, r4, r5, r6, r7, r8, r9, pc}
1000b74a:	f104 0909 	add.w	r9, r4, #9
1000b74e:	443c      	add	r4, r7
1000b750:	46c8      	mov	r8, r9
1000b752:	f818 3b01 	ldrb.w	r3, [r8], #1
1000b756:	220a      	movs	r2, #10
1000b758:	4628      	mov	r0, r5
1000b75a:	3b30      	subs	r3, #48	@ 0x30
1000b75c:	f7ff ff6c 	bl	1000b638 <__multadd>
1000b760:	45a0      	cmp	r8, r4
1000b762:	4601      	mov	r1, r0
1000b764:	d1f5      	bne.n	1000b752 <__s2b+0x76>
1000b766:	f1a7 0408 	sub.w	r4, r7, #8
1000b76a:	444c      	add	r4, r9
1000b76c:	e7dc      	b.n	1000b728 <__s2b+0x4c>
1000b76e:	2100      	movs	r1, #0
1000b770:	e7cc      	b.n	1000b70c <__s2b+0x30>
1000b772:	4602      	mov	r2, r0
1000b774:	4b03      	ldr	r3, [pc, #12]	@ (1000b784 <__s2b+0xa8>)
1000b776:	21d3      	movs	r1, #211	@ 0xd3
1000b778:	4803      	ldr	r0, [pc, #12]	@ (1000b788 <__s2b+0xac>)
1000b77a:	f7f9 fe15 	bl	100053a8 <__assert_func>
1000b77e:	bf00      	nop
1000b780:	38e38e39 	.word	0x38e38e39
1000b784:	1000c698 	.word	0x1000c698
1000b788:	1000c710 	.word	0x1000c710

1000b78c <__hi0bits>:
1000b78c:	f5b0 3f80 	cmp.w	r0, #65536	@ 0x10000
1000b790:	4603      	mov	r3, r0
1000b792:	d218      	bcs.n	1000b7c6 <__hi0bits+0x3a>
1000b794:	0403      	lsls	r3, r0, #16
1000b796:	2010      	movs	r0, #16
1000b798:	f1b3 7f80 	cmp.w	r3, #16777216	@ 0x1000000
1000b79c:	d201      	bcs.n	1000b7a2 <__hi0bits+0x16>
1000b79e:	3008      	adds	r0, #8
1000b7a0:	021b      	lsls	r3, r3, #8
1000b7a2:	f1b3 5f80 	cmp.w	r3, #268435456	@ 0x10000000
1000b7a6:	d201      	bcs.n	1000b7ac <__hi0bits+0x20>
1000b7a8:	3004      	adds	r0, #4
1000b7aa:	011b      	lsls	r3, r3, #4
1000b7ac:	f1b3 4f80 	cmp.w	r3, #1073741824	@ 0x40000000
1000b7b0:	d303      	bcc.n	1000b7ba <__hi0bits+0x2e>
1000b7b2:	2b00      	cmp	r3, #0
1000b7b4:	db06      	blt.n	1000b7c4 <__hi0bits+0x38>
1000b7b6:	3001      	adds	r0, #1
1000b7b8:	4770      	bx	lr
1000b7ba:	009b      	lsls	r3, r3, #2
1000b7bc:	d405      	bmi.n	1000b7ca <__hi0bits+0x3e>
1000b7be:	005b      	lsls	r3, r3, #1
1000b7c0:	d405      	bmi.n	1000b7ce <__hi0bits+0x42>
1000b7c2:	2020      	movs	r0, #32
1000b7c4:	4770      	bx	lr
1000b7c6:	2000      	movs	r0, #0
1000b7c8:	e7e6      	b.n	1000b798 <__hi0bits+0xc>
1000b7ca:	3002      	adds	r0, #2
1000b7cc:	4770      	bx	lr
1000b7ce:	3003      	adds	r0, #3
1000b7d0:	4770      	bx	lr
1000b7d2:	bf00      	nop

1000b7d4 <__lo0bits>:
1000b7d4:	6803      	ldr	r3, [r0, #0]
1000b7d6:	4601      	mov	r1, r0
1000b7d8:	f013 0207 	ands.w	r2, r3, #7
1000b7dc:	d007      	beq.n	1000b7ee <__lo0bits+0x1a>
1000b7de:	07da      	lsls	r2, r3, #31
1000b7e0:	d41f      	bmi.n	1000b822 <__lo0bits+0x4e>
1000b7e2:	0798      	lsls	r0, r3, #30
1000b7e4:	d521      	bpl.n	1000b82a <__lo0bits+0x56>
1000b7e6:	085b      	lsrs	r3, r3, #1
1000b7e8:	2001      	movs	r0, #1
1000b7ea:	600b      	str	r3, [r1, #0]
1000b7ec:	4770      	bx	lr
1000b7ee:	b298      	uxth	r0, r3
1000b7f0:	b1a0      	cbz	r0, 1000b81c <__lo0bits+0x48>
1000b7f2:	4610      	mov	r0, r2
1000b7f4:	b2da      	uxtb	r2, r3
1000b7f6:	b90a      	cbnz	r2, 1000b7fc <__lo0bits+0x28>
1000b7f8:	3008      	adds	r0, #8
1000b7fa:	0a1b      	lsrs	r3, r3, #8
1000b7fc:	071a      	lsls	r2, r3, #28
1000b7fe:	d101      	bne.n	1000b804 <__lo0bits+0x30>
1000b800:	3004      	adds	r0, #4
1000b802:	091b      	lsrs	r3, r3, #4
1000b804:	079a      	lsls	r2, r3, #30
1000b806:	d101      	bne.n	1000b80c <__lo0bits+0x38>
1000b808:	3002      	adds	r0, #2
1000b80a:	089b      	lsrs	r3, r3, #2
1000b80c:	07da      	lsls	r2, r3, #31
1000b80e:	d403      	bmi.n	1000b818 <__lo0bits+0x44>
1000b810:	085b      	lsrs	r3, r3, #1
1000b812:	f100 0001 	add.w	r0, r0, #1
1000b816:	d006      	beq.n	1000b826 <__lo0bits+0x52>
1000b818:	600b      	str	r3, [r1, #0]
1000b81a:	4770      	bx	lr
1000b81c:	0c1b      	lsrs	r3, r3, #16
1000b81e:	2010      	movs	r0, #16
1000b820:	e7e8      	b.n	1000b7f4 <__lo0bits+0x20>
1000b822:	2000      	movs	r0, #0
1000b824:	4770      	bx	lr
1000b826:	2020      	movs	r0, #32
1000b828:	4770      	bx	lr
1000b82a:	089b      	lsrs	r3, r3, #2
1000b82c:	2002      	movs	r0, #2
1000b82e:	600b      	str	r3, [r1, #0]
1000b830:	4770      	bx	lr
1000b832:	bf00      	nop

1000b834 <__i2b>:
1000b834:	b538      	push	{r3, r4, r5, lr}
1000b836:	6c43      	ldr	r3, [r0, #68]	@ 0x44
1000b838:	4604      	mov	r4, r0
1000b83a:	460d      	mov	r5, r1
1000b83c:	b14b      	cbz	r3, 1000b852 <__i2b+0x1e>
1000b83e:	6858      	ldr	r0, [r3, #4]
1000b840:	b1b0      	cbz	r0, 1000b870 <__i2b+0x3c>
1000b842:	6802      	ldr	r2, [r0, #0]
1000b844:	605a      	str	r2, [r3, #4]
1000b846:	2200      	movs	r2, #0
1000b848:	2301      	movs	r3, #1
1000b84a:	6145      	str	r5, [r0, #20]
1000b84c:	e9c0 2303 	strd	r2, r3, [r0, #12]
1000b850:	bd38      	pop	{r3, r4, r5, pc}
1000b852:	2221      	movs	r2, #33	@ 0x21
1000b854:	2104      	movs	r1, #4
1000b856:	f7fa fae9 	bl	10005e2c <_calloc_r>
1000b85a:	4603      	mov	r3, r0
1000b85c:	6460      	str	r0, [r4, #68]	@ 0x44
1000b85e:	2800      	cmp	r0, #0
1000b860:	d1ed      	bne.n	1000b83e <__i2b+0xa>
1000b862:	4b09      	ldr	r3, [pc, #36]	@ (1000b888 <__i2b+0x54>)
1000b864:	2200      	movs	r2, #0
1000b866:	f240 1145 	movw	r1, #325	@ 0x145
1000b86a:	4808      	ldr	r0, [pc, #32]	@ (1000b88c <__i2b+0x58>)
1000b86c:	f7f9 fd9c 	bl	100053a8 <__assert_func>
1000b870:	221c      	movs	r2, #28
1000b872:	2101      	movs	r1, #1
1000b874:	4620      	mov	r0, r4
1000b876:	f7fa fad9 	bl	10005e2c <_calloc_r>
1000b87a:	2800      	cmp	r0, #0
1000b87c:	d0f1      	beq.n	1000b862 <__i2b+0x2e>
1000b87e:	2201      	movs	r2, #1
1000b880:	2302      	movs	r3, #2
1000b882:	e9c0 2301 	strd	r2, r3, [r0, #4]
1000b886:	e7de      	b.n	1000b846 <__i2b+0x12>
1000b888:	1000c698 	.word	0x1000c698
1000b88c:	1000c710 	.word	0x1000c710

1000b890 <__multiply>:
1000b890:	e92d 4ff0 	stmdb	sp!, {r4, r5, r6, r7, r8, r9, sl, fp, lr}
1000b894:	f8d1 8010 	ldr.w	r8, [r1, #16]
1000b898:	b085      	sub	sp, #20
1000b89a:	6915      	ldr	r5, [r2, #16]
1000b89c:	460e      	mov	r6, r1
1000b89e:	4692      	mov	sl, r2
1000b8a0:	45a8      	cmp	r8, r5
1000b8a2:	db05      	blt.n	1000b8b0 <__multiply+0x20>
1000b8a4:	462a      	mov	r2, r5
1000b8a6:	4653      	mov	r3, sl
1000b8a8:	4645      	mov	r5, r8
1000b8aa:	468a      	mov	sl, r1
1000b8ac:	4690      	mov	r8, r2
1000b8ae:	461e      	mov	r6, r3
1000b8b0:	eb05 0408 	add.w	r4, r5, r8
1000b8b4:	e9da 1301 	ldrd	r1, r3, [sl, #4]
1000b8b8:	42a3      	cmp	r3, r4
1000b8ba:	bfb8      	it	lt
1000b8bc:	3101      	addlt	r1, #1
1000b8be:	f7ff fe8b 	bl	1000b5d8 <_Balloc>
1000b8c2:	2800      	cmp	r0, #0
1000b8c4:	f000 808b 	beq.w	1000b9de <__multiply+0x14e>
1000b8c8:	f100 0714 	add.w	r7, r0, #20
1000b8cc:	eb07 0e84 	add.w	lr, r7, r4, lsl #2
1000b8d0:	4577      	cmp	r7, lr
1000b8d2:	d205      	bcs.n	1000b8e0 <__multiply+0x50>
1000b8d4:	463b      	mov	r3, r7
1000b8d6:	2200      	movs	r2, #0
1000b8d8:	f843 2b04 	str.w	r2, [r3], #4
1000b8dc:	459e      	cmp	lr, r3
1000b8de:	d8fb      	bhi.n	1000b8d8 <__multiply+0x48>
1000b8e0:	3614      	adds	r6, #20
1000b8e2:	f10a 0914 	add.w	r9, sl, #20
1000b8e6:	eb06 0888 	add.w	r8, r6, r8, lsl #2
1000b8ea:	eb09 0585 	add.w	r5, r9, r5, lsl #2
1000b8ee:	4546      	cmp	r6, r8
1000b8f0:	d268      	bcs.n	1000b9c4 <__multiply+0x134>
1000b8f2:	eba5 030a 	sub.w	r3, r5, sl
1000b8f6:	f10a 0a15 	add.w	sl, sl, #21
1000b8fa:	f8cd e008 	str.w	lr, [sp, #8]
1000b8fe:	46ae      	mov	lr, r5
1000b900:	3b15      	subs	r3, #21
1000b902:	9403      	str	r4, [sp, #12]
1000b904:	f023 0303 	bic.w	r3, r3, #3
1000b908:	3304      	adds	r3, #4
1000b90a:	4555      	cmp	r5, sl
1000b90c:	bf2c      	ite	cs
1000b90e:	469b      	movcs	fp, r3
1000b910:	f04f 0b04 	movcc.w	fp, #4
1000b914:	4682      	mov	sl, r0
1000b916:	e005      	b.n	1000b924 <__multiply+0x94>
1000b918:	0c09      	lsrs	r1, r1, #16
1000b91a:	d12c      	bne.n	1000b976 <__multiply+0xe6>
1000b91c:	45b0      	cmp	r8, r6
1000b91e:	f107 0704 	add.w	r7, r7, #4
1000b922:	d94c      	bls.n	1000b9be <__multiply+0x12e>
1000b924:	f856 1b04 	ldr.w	r1, [r6], #4
1000b928:	b28d      	uxth	r5, r1
1000b92a:	2d00      	cmp	r5, #0
1000b92c:	d0f4      	beq.n	1000b918 <__multiply+0x88>
1000b92e:	46cc      	mov	ip, r9
1000b930:	463c      	mov	r4, r7
1000b932:	2300      	movs	r3, #0
1000b934:	9601      	str	r6, [sp, #4]
1000b936:	f85c 0b04 	ldr.w	r0, [ip], #4
1000b93a:	6821      	ldr	r1, [r4, #0]
1000b93c:	b286      	uxth	r6, r0
1000b93e:	45e6      	cmp	lr, ip
1000b940:	b28a      	uxth	r2, r1
1000b942:	ea4f 4010 	mov.w	r0, r0, lsr #16
1000b946:	fb05 2206 	mla	r2, r5, r6, r2
1000b94a:	ea4f 4111 	mov.w	r1, r1, lsr #16
1000b94e:	441a      	add	r2, r3
1000b950:	fb05 1100 	mla	r1, r5, r0, r1
1000b954:	eb01 4112 	add.w	r1, r1, r2, lsr #16
1000b958:	b292      	uxth	r2, r2
1000b95a:	ea4f 4311 	mov.w	r3, r1, lsr #16
1000b95e:	ea42 4201 	orr.w	r2, r2, r1, lsl #16
1000b962:	f844 2b04 	str.w	r2, [r4], #4
1000b966:	d8e6      	bhi.n	1000b936 <__multiply+0xa6>
1000b968:	9e01      	ldr	r6, [sp, #4]
1000b96a:	f847 300b 	str.w	r3, [r7, fp]
1000b96e:	f856 1c04 	ldr.w	r1, [r6, #-4]
1000b972:	0c09      	lsrs	r1, r1, #16
1000b974:	d0d2      	beq.n	1000b91c <__multiply+0x8c>
1000b976:	683b      	ldr	r3, [r7, #0]
1000b978:	2200      	movs	r2, #0
1000b97a:	4648      	mov	r0, r9
1000b97c:	463d      	mov	r5, r7
1000b97e:	461c      	mov	r4, r3
1000b980:	4694      	mov	ip, r2
1000b982:	8802      	ldrh	r2, [r0, #0]
1000b984:	b29b      	uxth	r3, r3
1000b986:	fb01 c202 	mla	r2, r1, r2, ip
1000b98a:	eb02 4214 	add.w	r2, r2, r4, lsr #16
1000b98e:	ea43 4302 	orr.w	r3, r3, r2, lsl #16
1000b992:	f845 3b04 	str.w	r3, [r5], #4
1000b996:	f850 3b04 	ldr.w	r3, [r0], #4
1000b99a:	682c      	ldr	r4, [r5, #0]
1000b99c:	ea4f 4c13 	mov.w	ip, r3, lsr #16
1000b9a0:	4570      	cmp	r0, lr
1000b9a2:	b2a3      	uxth	r3, r4
1000b9a4:	fb01 330c 	mla	r3, r1, ip, r3
1000b9a8:	eb03 4312 	add.w	r3, r3, r2, lsr #16
1000b9ac:	ea4f 4c13 	mov.w	ip, r3, lsr #16
1000b9b0:	d3e7      	bcc.n	1000b982 <__multiply+0xf2>
1000b9b2:	45b0      	cmp	r8, r6
1000b9b4:	f847 300b 	str.w	r3, [r7, fp]
1000b9b8:	f107 0704 	add.w	r7, r7, #4
1000b9bc:	d8b2      	bhi.n	1000b924 <__multiply+0x94>
1000b9be:	4650      	mov	r0, sl
1000b9c0:	e9dd e402 	ldrd	lr, r4, [sp, #8]
1000b9c4:	2c00      	cmp	r4, #0
1000b9c6:	dc02      	bgt.n	1000b9ce <__multiply+0x13e>
1000b9c8:	e005      	b.n	1000b9d6 <__multiply+0x146>
1000b9ca:	3c01      	subs	r4, #1
1000b9cc:	d003      	beq.n	1000b9d6 <__multiply+0x146>
1000b9ce:	f85e 3d04 	ldr.w	r3, [lr, #-4]!
1000b9d2:	2b00      	cmp	r3, #0
1000b9d4:	d0f9      	beq.n	1000b9ca <__multiply+0x13a>
1000b9d6:	6104      	str	r4, [r0, #16]
1000b9d8:	b005      	add	sp, #20
1000b9da:	e8bd 8ff0 	ldmia.w	sp!, {r4, r5, r6, r7, r8, r9, sl, fp, pc}
1000b9de:	4602      	mov	r2, r0
1000b9e0:	4b02      	ldr	r3, [pc, #8]	@ (1000b9ec <__multiply+0x15c>)
1000b9e2:	f44f 71b1 	mov.w	r1, #354	@ 0x162
1000b9e6:	4802      	ldr	r0, [pc, #8]	@ (1000b9f0 <__multiply+0x160>)
1000b9e8:	f7f9 fcde 	bl	100053a8 <__assert_func>
1000b9ec:	1000c698 	.word	0x1000c698
1000b9f0:	1000c710 	.word	0x1000c710

1000b9f4 <__pow5mult>:
1000b9f4:	f012 0303 	ands.w	r3, r2, #3
1000b9f8:	e92d 41f0 	stmdb	sp!, {r4, r5, r6, r7, r8, lr}
1000b9fc:	4614      	mov	r4, r2
1000b9fe:	4607      	mov	r7, r0
1000ba00:	d12c      	bne.n	1000ba5c <__pow5mult+0x68>
1000ba02:	460d      	mov	r5, r1
1000ba04:	10a4      	asrs	r4, r4, #2
1000ba06:	d01c      	beq.n	1000ba42 <__pow5mult+0x4e>
1000ba08:	6c3e      	ldr	r6, [r7, #64]	@ 0x40
1000ba0a:	b386      	cbz	r6, 1000ba6e <__pow5mult+0x7a>
1000ba0c:	07e3      	lsls	r3, r4, #31
1000ba0e:	f04f 0800 	mov.w	r8, #0
1000ba12:	d406      	bmi.n	1000ba22 <__pow5mult+0x2e>
1000ba14:	1064      	asrs	r4, r4, #1
1000ba16:	d014      	beq.n	1000ba42 <__pow5mult+0x4e>
1000ba18:	6830      	ldr	r0, [r6, #0]
1000ba1a:	b1a8      	cbz	r0, 1000ba48 <__pow5mult+0x54>
1000ba1c:	4606      	mov	r6, r0
1000ba1e:	07e3      	lsls	r3, r4, #31
1000ba20:	d5f8      	bpl.n	1000ba14 <__pow5mult+0x20>
1000ba22:	4632      	mov	r2, r6
1000ba24:	4629      	mov	r1, r5
1000ba26:	4638      	mov	r0, r7
1000ba28:	f7ff ff32 	bl	1000b890 <__multiply>
1000ba2c:	b135      	cbz	r5, 1000ba3c <__pow5mult+0x48>
1000ba2e:	6c7b      	ldr	r3, [r7, #68]	@ 0x44
1000ba30:	6869      	ldr	r1, [r5, #4]
1000ba32:	f853 2021 	ldr.w	r2, [r3, r1, lsl #2]
1000ba36:	602a      	str	r2, [r5, #0]
1000ba38:	f843 5021 	str.w	r5, [r3, r1, lsl #2]
1000ba3c:	1064      	asrs	r4, r4, #1
1000ba3e:	4605      	mov	r5, r0
1000ba40:	d1ea      	bne.n	1000ba18 <__pow5mult+0x24>
1000ba42:	4628      	mov	r0, r5
1000ba44:	e8bd 81f0 	ldmia.w	sp!, {r4, r5, r6, r7, r8, pc}
1000ba48:	4632      	mov	r2, r6
1000ba4a:	4631      	mov	r1, r6
1000ba4c:	4638      	mov	r0, r7
1000ba4e:	f7ff ff1f 	bl	1000b890 <__multiply>
1000ba52:	6030      	str	r0, [r6, #0]
1000ba54:	4606      	mov	r6, r0
1000ba56:	f8c0 8000 	str.w	r8, [r0]
1000ba5a:	e7e0      	b.n	1000ba1e <__pow5mult+0x2a>
1000ba5c:	3b01      	subs	r3, #1
1000ba5e:	4a0f      	ldr	r2, [pc, #60]	@ (1000ba9c <__pow5mult+0xa8>)
1000ba60:	f852 2023 	ldr.w	r2, [r2, r3, lsl #2]
1000ba64:	2300      	movs	r3, #0
1000ba66:	f7ff fde7 	bl	1000b638 <__multadd>
1000ba6a:	4605      	mov	r5, r0
1000ba6c:	e7ca      	b.n	1000ba04 <__pow5mult+0x10>
1000ba6e:	2101      	movs	r1, #1
1000ba70:	4638      	mov	r0, r7
1000ba72:	f7ff fdb1 	bl	1000b5d8 <_Balloc>
1000ba76:	4606      	mov	r6, r0
1000ba78:	b140      	cbz	r0, 1000ba8c <__pow5mult+0x98>
1000ba7a:	2301      	movs	r3, #1
1000ba7c:	f240 2271 	movw	r2, #625	@ 0x271
1000ba80:	e9c0 3204 	strd	r3, r2, [r0, #16]
1000ba84:	2300      	movs	r3, #0
1000ba86:	6438      	str	r0, [r7, #64]	@ 0x40
1000ba88:	6003      	str	r3, [r0, #0]
1000ba8a:	e7bf      	b.n	1000ba0c <__pow5mult+0x18>
1000ba8c:	4602      	mov	r2, r0
1000ba8e:	4b04      	ldr	r3, [pc, #16]	@ (1000baa0 <__pow5mult+0xac>)
1000ba90:	f240 1145 	movw	r1, #325	@ 0x145
1000ba94:	4803      	ldr	r0, [pc, #12]	@ (1000baa4 <__pow5mult+0xb0>)
1000ba96:	f7f9 fc87 	bl	100053a8 <__assert_func>
1000ba9a:	bf00      	nop
1000ba9c:	1000ffc8 	.word	0x1000ffc8
1000baa0:	1000c698 	.word	0x1000c698
1000baa4:	1000c710 	.word	0x1000c710

1000baa8 <__lshift>:
1000baa8:	e92d 47f0 	stmdb	sp!, {r4, r5, r6, r7, r8, r9, sl, lr}
1000baac:	460c      	mov	r4, r1
1000baae:	4690      	mov	r8, r2
1000bab0:	4606      	mov	r6, r0
1000bab2:	ea4f 1962 	mov.w	r9, r2, asr #5
1000bab6:	6927      	ldr	r7, [r4, #16]
1000bab8:	68a3      	ldr	r3, [r4, #8]
1000baba:	eb07 1762 	add.w	r7, r7, r2, asr #5
1000babe:	6849      	ldr	r1, [r1, #4]
1000bac0:	1c7d      	adds	r5, r7, #1
1000bac2:	429d      	cmp	r5, r3
1000bac4:	dd03      	ble.n	1000bace <__lshift+0x26>
1000bac6:	005b      	lsls	r3, r3, #1
1000bac8:	3101      	adds	r1, #1
1000baca:	429d      	cmp	r5, r3
1000bacc:	dcfb      	bgt.n	1000bac6 <__lshift+0x1e>
1000bace:	4630      	mov	r0, r6
1000bad0:	f7ff fd82 	bl	1000b5d8 <_Balloc>
1000bad4:	2800      	cmp	r0, #0
1000bad6:	d050      	beq.n	1000bb7a <__lshift+0xd2>
1000bad8:	f1b9 0f00 	cmp.w	r9, #0
1000badc:	f100 0c14 	add.w	ip, r0, #20
1000bae0:	dd0e      	ble.n	1000bb00 <__lshift+0x58>
1000bae2:	f109 0205 	add.w	r2, r9, #5
1000bae6:	4663      	mov	r3, ip
1000bae8:	2100      	movs	r1, #0
1000baea:	ea4f 0e82 	mov.w	lr, r2, lsl #2
1000baee:	eb00 0282 	add.w	r2, r0, r2, lsl #2
1000baf2:	f843 1b04 	str.w	r1, [r3], #4
1000baf6:	4293      	cmp	r3, r2
1000baf8:	d1fb      	bne.n	1000baf2 <__lshift+0x4a>
1000bafa:	f1ae 0314 	sub.w	r3, lr, #20
1000bafe:	449c      	add	ip, r3
1000bb00:	f104 0314 	add.w	r3, r4, #20
1000bb04:	6921      	ldr	r1, [r4, #16]
1000bb06:	f018 081f 	ands.w	r8, r8, #31
1000bb0a:	eb03 0181 	add.w	r1, r3, r1, lsl #2
1000bb0e:	d02b      	beq.n	1000bb68 <__lshift+0xc0>
1000bb10:	f1c8 0920 	rsb	r9, r8, #32
1000bb14:	46e6      	mov	lr, ip
1000bb16:	f04f 0a00 	mov.w	sl, #0
1000bb1a:	681a      	ldr	r2, [r3, #0]
1000bb1c:	fa02 f208 	lsl.w	r2, r2, r8
1000bb20:	ea42 020a 	orr.w	r2, r2, sl
1000bb24:	f84e 2b04 	str.w	r2, [lr], #4
1000bb28:	f853 2b04 	ldr.w	r2, [r3], #4
1000bb2c:	4299      	cmp	r1, r3
1000bb2e:	fa22 fa09 	lsr.w	sl, r2, r9
1000bb32:	d8f2      	bhi.n	1000bb1a <__lshift+0x72>
1000bb34:	1b0b      	subs	r3, r1, r4
1000bb36:	f104 0215 	add.w	r2, r4, #21
1000bb3a:	3b15      	subs	r3, #21
1000bb3c:	f023 0303 	bic.w	r3, r3, #3
1000bb40:	3304      	adds	r3, #4
1000bb42:	4291      	cmp	r1, r2
1000bb44:	bf38      	it	cc
1000bb46:	2304      	movcc	r3, #4
1000bb48:	f84c a003 	str.w	sl, [ip, r3]
1000bb4c:	f1ba 0f00 	cmp.w	sl, #0
1000bb50:	d100      	bne.n	1000bb54 <__lshift+0xac>
1000bb52:	463d      	mov	r5, r7
1000bb54:	6c73      	ldr	r3, [r6, #68]	@ 0x44
1000bb56:	6862      	ldr	r2, [r4, #4]
1000bb58:	6105      	str	r5, [r0, #16]
1000bb5a:	f853 1022 	ldr.w	r1, [r3, r2, lsl #2]
1000bb5e:	6021      	str	r1, [r4, #0]
1000bb60:	f843 4022 	str.w	r4, [r3, r2, lsl #2]
1000bb64:	e8bd 87f0 	ldmia.w	sp!, {r4, r5, r6, r7, r8, r9, sl, pc}
1000bb68:	f1ac 0c04 	sub.w	ip, ip, #4
1000bb6c:	f853 2b04 	ldr.w	r2, [r3], #4
1000bb70:	4299      	cmp	r1, r3
1000bb72:	f84c 2f04 	str.w	r2, [ip, #4]!
1000bb76:	d8f9      	bhi.n	1000bb6c <__lshift+0xc4>
1000bb78:	e7eb      	b.n	1000bb52 <__lshift+0xaa>
1000bb7a:	4602      	mov	r2, r0
1000bb7c:	4b02      	ldr	r3, [pc, #8]	@ (1000bb88 <__lshift+0xe0>)
1000bb7e:	f44f 71ef 	mov.w	r1, #478	@ 0x1de
1000bb82:	4802      	ldr	r0, [pc, #8]	@ (1000bb8c <__lshift+0xe4>)
1000bb84:	f7f9 fc10 	bl	100053a8 <__assert_func>
1000bb88:	1000c698 	.word	0x1000c698
1000bb8c:	1000c710 	.word	0x1000c710

1000bb90 <__mcmp>:
1000bb90:	4684      	mov	ip, r0
1000bb92:	690b      	ldr	r3, [r1, #16]
1000bb94:	6900      	ldr	r0, [r0, #16]
1000bb96:	1ac0      	subs	r0, r0, r3
1000bb98:	d116      	bne.n	1000bbc8 <__mcmp+0x38>
1000bb9a:	f10c 0c14 	add.w	ip, ip, #20
1000bb9e:	3114      	adds	r1, #20
1000bba0:	eb0c 0283 	add.w	r2, ip, r3, lsl #2
1000bba4:	eb01 0383 	add.w	r3, r1, r3, lsl #2
1000bba8:	b410      	push	{r4}
1000bbaa:	e001      	b.n	1000bbb0 <__mcmp+0x20>
1000bbac:	4594      	cmp	ip, r2
1000bbae:	d208      	bcs.n	1000bbc2 <__mcmp+0x32>
1000bbb0:	f852 4d04 	ldr.w	r4, [r2, #-4]!
1000bbb4:	f853 1d04 	ldr.w	r1, [r3, #-4]!
1000bbb8:	428c      	cmp	r4, r1
1000bbba:	d0f7      	beq.n	1000bbac <__mcmp+0x1c>
1000bbbc:	d205      	bcs.n	1000bbca <__mcmp+0x3a>
1000bbbe:	f04f 30ff 	mov.w	r0, #4294967295
1000bbc2:	f85d 4b04 	ldr.w	r4, [sp], #4
1000bbc6:	4770      	bx	lr
1000bbc8:	4770      	bx	lr
1000bbca:	2001      	movs	r0, #1
1000bbcc:	f85d 4b04 	ldr.w	r4, [sp], #4
1000bbd0:	4770      	bx	lr
1000bbd2:	bf00      	nop

1000bbd4 <__mdiff>:
1000bbd4:	e92d 4ff0 	stmdb	sp!, {r4, r5, r6, r7, r8, r9, sl, fp, lr}
1000bbd8:	4615      	mov	r5, r2
1000bbda:	690a      	ldr	r2, [r1, #16]
1000bbdc:	b083      	sub	sp, #12
1000bbde:	4688      	mov	r8, r1
1000bbe0:	692b      	ldr	r3, [r5, #16]
1000bbe2:	1ad2      	subs	r2, r2, r3
1000bbe4:	2a00      	cmp	r2, #0
1000bbe6:	f040 808b 	bne.w	1000bd00 <__mdiff+0x12c>
1000bbea:	f101 0614 	add.w	r6, r1, #20
1000bbee:	f105 0114 	add.w	r1, r5, #20
1000bbf2:	eb01 0183 	add.w	r1, r1, r3, lsl #2
1000bbf6:	eb06 0383 	add.w	r3, r6, r3, lsl #2
1000bbfa:	e002      	b.n	1000bc02 <__mdiff+0x2e>
1000bbfc:	429e      	cmp	r6, r3
1000bbfe:	f080 8082 	bcs.w	1000bd06 <__mdiff+0x132>
1000bc02:	f853 4d04 	ldr.w	r4, [r3, #-4]!
1000bc06:	f851 2d04 	ldr.w	r2, [r1, #-4]!
1000bc0a:	4294      	cmp	r4, r2
1000bc0c:	d0f6      	beq.n	1000bbfc <__mdiff+0x28>
1000bc0e:	d378      	bcc.n	1000bd02 <__mdiff+0x12e>
1000bc10:	462b      	mov	r3, r5
1000bc12:	2400      	movs	r4, #0
1000bc14:	4645      	mov	r5, r8
1000bc16:	4698      	mov	r8, r3
1000bc18:	6869      	ldr	r1, [r5, #4]
1000bc1a:	f7ff fcdd 	bl	1000b5d8 <_Balloc>
1000bc1e:	2800      	cmp	r0, #0
1000bc20:	f000 808c 	beq.w	1000bd3c <__mdiff+0x168>
1000bc24:	692e      	ldr	r6, [r5, #16]
1000bc26:	f105 0b14 	add.w	fp, r5, #20
1000bc2a:	f108 0e14 	add.w	lr, r8, #20
1000bc2e:	f8d8 3010 	ldr.w	r3, [r8, #16]
1000bc32:	f100 0a14 	add.w	sl, r0, #20
1000bc36:	f105 0210 	add.w	r2, r5, #16
1000bc3a:	eb0e 0983 	add.w	r9, lr, r3, lsl #2
1000bc3e:	f04f 0c00 	mov.w	ip, #0
1000bc42:	eb0b 0186 	add.w	r1, fp, r6, lsl #2
1000bc46:	4657      	mov	r7, sl
1000bc48:	60c4      	str	r4, [r0, #12]
1000bc4a:	f8cd b004 	str.w	fp, [sp, #4]
1000bc4e:	f85e 4b04 	ldr.w	r4, [lr], #4
1000bc52:	f852 5f04 	ldr.w	r5, [r2, #4]!
1000bc56:	fa1f fb84 	uxth.w	fp, r4
1000bc5a:	45f1      	cmp	r9, lr
1000bc5c:	b2ab      	uxth	r3, r5
1000bc5e:	ea4f 4414 	mov.w	r4, r4, lsr #16
1000bc62:	eba3 030b 	sub.w	r3, r3, fp
1000bc66:	ebc4 4415 	rsb	r4, r4, r5, lsr #16
1000bc6a:	4463      	add	r3, ip
1000bc6c:	eb04 4423 	add.w	r4, r4, r3, asr #16
1000bc70:	b29b      	uxth	r3, r3
1000bc72:	ea4f 4c24 	mov.w	ip, r4, asr #16
1000bc76:	ea43 4304 	orr.w	r3, r3, r4, lsl #16
1000bc7a:	f847 3b04 	str.w	r3, [r7], #4
1000bc7e:	d8e6      	bhi.n	1000bc4e <__mdiff+0x7a>
1000bc80:	eba9 0408 	sub.w	r4, r9, r8
1000bc84:	f108 0815 	add.w	r8, r8, #21
1000bc88:	f8dd b004 	ldr.w	fp, [sp, #4]
1000bc8c:	45c1      	cmp	r9, r8
1000bc8e:	f1a4 0415 	sub.w	r4, r4, #21
1000bc92:	bf34      	ite	cc
1000bc94:	f04f 0800 	movcc.w	r8, #0
1000bc98:	f04f 0801 	movcs.w	r8, #1
1000bc9c:	08a4      	lsrs	r4, r4, #2
1000bc9e:	f1b8 0f00 	cmp.w	r8, #0
1000bca2:	f104 0201 	add.w	r2, r4, #1
1000bca6:	ea4f 0282 	mov.w	r2, r2, lsl #2
1000bcaa:	bf08      	it	eq
1000bcac:	2204      	moveq	r2, #4
1000bcae:	eb0b 0502 	add.w	r5, fp, r2
1000bcb2:	4452      	add	r2, sl
1000bcb4:	42a9      	cmp	r1, r5
1000bcb6:	d931      	bls.n	1000bd1c <__mdiff+0x148>
1000bcb8:	4617      	mov	r7, r2
1000bcba:	462c      	mov	r4, r5
1000bcbc:	f854 3b04 	ldr.w	r3, [r4], #4
1000bcc0:	fa1f f883 	uxth.w	r8, r3
1000bcc4:	42a1      	cmp	r1, r4
1000bcc6:	ea4f 4e13 	mov.w	lr, r3, lsr #16
1000bcca:	4463      	add	r3, ip
1000bccc:	44c4      	add	ip, r8
1000bcce:	b29b      	uxth	r3, r3
1000bcd0:	eb0e 4c2c 	add.w	ip, lr, ip, asr #16
1000bcd4:	ea43 430c 	orr.w	r3, r3, ip, lsl #16
1000bcd8:	ea4f 4c2c 	mov.w	ip, ip, asr #16
1000bcdc:	f847 3b04 	str.w	r3, [r7], #4
1000bce0:	d8ec      	bhi.n	1000bcbc <__mdiff+0xe8>
1000bce2:	3901      	subs	r1, #1
1000bce4:	1b49      	subs	r1, r1, r5
1000bce6:	f021 0103 	bic.w	r1, r1, #3
1000bcea:	440a      	add	r2, r1
1000bcec:	b923      	cbnz	r3, 1000bcf8 <__mdiff+0x124>
1000bcee:	f852 3d04 	ldr.w	r3, [r2, #-4]!
1000bcf2:	3e01      	subs	r6, #1
1000bcf4:	2b00      	cmp	r3, #0
1000bcf6:	d0fa      	beq.n	1000bcee <__mdiff+0x11a>
1000bcf8:	6106      	str	r6, [r0, #16]
1000bcfa:	b003      	add	sp, #12
1000bcfc:	e8bd 8ff0 	ldmia.w	sp!, {r4, r5, r6, r7, r8, r9, sl, fp, pc}
1000bd00:	da86      	bge.n	1000bc10 <__mdiff+0x3c>
1000bd02:	2401      	movs	r4, #1
1000bd04:	e788      	b.n	1000bc18 <__mdiff+0x44>
1000bd06:	2100      	movs	r1, #0
1000bd08:	f7ff fc66 	bl	1000b5d8 <_Balloc>
1000bd0c:	b178      	cbz	r0, 1000bd2e <__mdiff+0x15a>
1000bd0e:	2201      	movs	r2, #1
1000bd10:	2300      	movs	r3, #0
1000bd12:	e9c0 2304 	strd	r2, r3, [r0, #16]
1000bd16:	b003      	add	sp, #12
1000bd18:	e8bd 8ff0 	ldmia.w	sp!, {r4, r5, r6, r7, r8, r9, sl, fp, pc}
1000bd1c:	f1b8 0f00 	cmp.w	r8, #0
1000bd20:	ea4f 0484 	mov.w	r4, r4, lsl #2
1000bd24:	bf08      	it	eq
1000bd26:	2400      	moveq	r4, #0
1000bd28:	eb0a 0204 	add.w	r2, sl, r4
1000bd2c:	e7de      	b.n	1000bcec <__mdiff+0x118>
1000bd2e:	4602      	mov	r2, r0
1000bd30:	4b06      	ldr	r3, [pc, #24]	@ (1000bd4c <__mdiff+0x178>)
1000bd32:	f240 2137 	movw	r1, #567	@ 0x237
1000bd36:	4806      	ldr	r0, [pc, #24]	@ (1000bd50 <__mdiff+0x17c>)
1000bd38:	f7f9 fb36 	bl	100053a8 <__assert_func>
1000bd3c:	4602      	mov	r2, r0
1000bd3e:	4b03      	ldr	r3, [pc, #12]	@ (1000bd4c <__mdiff+0x178>)
1000bd40:	f240 2145 	movw	r1, #581	@ 0x245
1000bd44:	4802      	ldr	r0, [pc, #8]	@ (1000bd50 <__mdiff+0x17c>)
1000bd46:	f7f9 fb2f 	bl	100053a8 <__assert_func>
1000bd4a:	bf00      	nop
1000bd4c:	1000c698 	.word	0x1000c698
1000bd50:	1000c710 	.word	0x1000c710

1000bd54 <__ulp>:
1000bd54:	4b11      	ldr	r3, [pc, #68]	@ (1000bd9c <__ulp+0x48>)
1000bd56:	400b      	ands	r3, r1
1000bd58:	f1a3 7350 	sub.w	r3, r3, #54525952	@ 0x3400000
1000bd5c:	2b00      	cmp	r3, #0
1000bd5e:	dd03      	ble.n	1000bd68 <__ulp+0x14>
1000bd60:	2200      	movs	r2, #0
1000bd62:	4619      	mov	r1, r3
1000bd64:	4610      	mov	r0, r2
1000bd66:	4770      	bx	lr
1000bd68:	425b      	negs	r3, r3
1000bd6a:	f1b3 7fa0 	cmp.w	r3, #20971520	@ 0x1400000
1000bd6e:	ea4f 5123 	mov.w	r1, r3, asr #20
1000bd72:	da06      	bge.n	1000bd82 <__ulp+0x2e>
1000bd74:	f44f 2300 	mov.w	r3, #524288	@ 0x80000
1000bd78:	2200      	movs	r2, #0
1000bd7a:	410b      	asrs	r3, r1
1000bd7c:	4610      	mov	r0, r2
1000bd7e:	4619      	mov	r1, r3
1000bd80:	4770      	bx	lr
1000bd82:	3914      	subs	r1, #20
1000bd84:	291e      	cmp	r1, #30
1000bd86:	dd04      	ble.n	1000bd92 <__ulp+0x3e>
1000bd88:	2201      	movs	r2, #1
1000bd8a:	2300      	movs	r3, #0
1000bd8c:	4610      	mov	r0, r2
1000bd8e:	4619      	mov	r1, r3
1000bd90:	4770      	bx	lr
1000bd92:	f04f 4200 	mov.w	r2, #2147483648	@ 0x80000000
1000bd96:	40ca      	lsrs	r2, r1
1000bd98:	e7f7      	b.n	1000bd8a <__ulp+0x36>
1000bd9a:	bf00      	nop
1000bd9c:	7ff00000 	.word	0x7ff00000

1000bda0 <__b2d>:
1000bda0:	e92d 41f0 	stmdb	sp!, {r4, r5, r6, r7, r8, lr}
1000bda4:	6902      	ldr	r2, [r0, #16]
1000bda6:	f100 0714 	add.w	r7, r0, #20
1000bdaa:	eb07 0282 	add.w	r2, r7, r2, lsl #2
1000bdae:	f852 6c04 	ldr.w	r6, [r2, #-4]
1000bdb2:	f1a2 0804 	sub.w	r8, r2, #4
1000bdb6:	4630      	mov	r0, r6
1000bdb8:	f7ff fce8 	bl	1000b78c <__hi0bits>
1000bdbc:	f1c0 0320 	rsb	r3, r0, #32
1000bdc0:	280a      	cmp	r0, #10
1000bdc2:	600b      	str	r3, [r1, #0]
1000bdc4:	dd35      	ble.n	1000be32 <__b2d+0x92>
1000bdc6:	4547      	cmp	r7, r8
1000bdc8:	f1a0 010b 	sub.w	r1, r0, #11
1000bdcc:	d21b      	bcs.n	1000be06 <__b2d+0x66>
1000bdce:	f852 3c08 	ldr.w	r3, [r2, #-8]
1000bdd2:	b331      	cbz	r1, 1000be22 <__b2d+0x82>
1000bdd4:	f1c1 0c20 	rsb	ip, r1, #32
1000bdd8:	408e      	lsls	r6, r1
1000bdda:	f1a2 0008 	sub.w	r0, r2, #8
1000bdde:	fa23 f40c 	lsr.w	r4, r3, ip
1000bde2:	408b      	lsls	r3, r1
1000bde4:	4287      	cmp	r7, r0
1000bde6:	ea46 0604 	orr.w	r6, r6, r4
1000bdea:	f046 557f 	orr.w	r5, r6, #1069547520	@ 0x3fc00000
1000bdee:	f445 1540 	orr.w	r5, r5, #3145728	@ 0x300000
1000bdf2:	d21a      	bcs.n	1000be2a <__b2d+0x8a>
1000bdf4:	f852 2c0c 	ldr.w	r2, [r2, #-12]
1000bdf8:	4629      	mov	r1, r5
1000bdfa:	fa22 f20c 	lsr.w	r2, r2, ip
1000bdfe:	4313      	orrs	r3, r2
1000be00:	4618      	mov	r0, r3
1000be02:	e8bd 81f0 	ldmia.w	sp!, {r4, r5, r6, r7, r8, pc}
1000be06:	280b      	cmp	r0, #11
1000be08:	d00a      	beq.n	1000be20 <__b2d+0x80>
1000be0a:	fa06 f101 	lsl.w	r1, r6, r1
1000be0e:	2300      	movs	r3, #0
1000be10:	f041 557f 	orr.w	r5, r1, #1069547520	@ 0x3fc00000
1000be14:	4618      	mov	r0, r3
1000be16:	f445 1540 	orr.w	r5, r5, #3145728	@ 0x300000
1000be1a:	4629      	mov	r1, r5
1000be1c:	e8bd 81f0 	ldmia.w	sp!, {r4, r5, r6, r7, r8, pc}
1000be20:	2300      	movs	r3, #0
1000be22:	f046 557f 	orr.w	r5, r6, #1069547520	@ 0x3fc00000
1000be26:	f445 1540 	orr.w	r5, r5, #3145728	@ 0x300000
1000be2a:	4618      	mov	r0, r3
1000be2c:	4629      	mov	r1, r5
1000be2e:	e8bd 81f0 	ldmia.w	sp!, {r4, r5, r6, r7, r8, pc}
1000be32:	f1c0 030b 	rsb	r3, r0, #11
1000be36:	4547      	cmp	r7, r8
1000be38:	fa26 f103 	lsr.w	r1, r6, r3
1000be3c:	f041 557f 	orr.w	r5, r1, #1069547520	@ 0x3fc00000
1000be40:	f445 1540 	orr.w	r5, r5, #3145728	@ 0x300000
1000be44:	d309      	bcc.n	1000be5a <__b2d+0xba>
1000be46:	2200      	movs	r2, #0
1000be48:	f100 0315 	add.w	r3, r0, #21
1000be4c:	4629      	mov	r1, r5
1000be4e:	fa06 f303 	lsl.w	r3, r6, r3
1000be52:	4313      	orrs	r3, r2
1000be54:	4618      	mov	r0, r3
1000be56:	e8bd 81f0 	ldmia.w	sp!, {r4, r5, r6, r7, r8, pc}
1000be5a:	f852 2c08 	ldr.w	r2, [r2, #-8]
1000be5e:	40da      	lsrs	r2, r3
1000be60:	e7f2      	b.n	1000be48 <__b2d+0xa8>
1000be62:	bf00      	nop

1000be64 <__d2b>:
1000be64:	b5f0      	push	{r4, r5, r6, r7, lr}
1000be66:	2101      	movs	r1, #1
1000be68:	b083      	sub	sp, #12
1000be6a:	4616      	mov	r6, r2
1000be6c:	461f      	mov	r7, r3
1000be6e:	f7ff fbb3 	bl	1000b5d8 <_Balloc>
1000be72:	4605      	mov	r5, r0
1000be74:	2800      	cmp	r0, #0
1000be76:	d049      	beq.n	1000bf0c <__d2b+0xa8>
1000be78:	f3c7 540a 	ubfx	r4, r7, #20, #11
1000be7c:	f3c7 0313 	ubfx	r3, r7, #0, #20
1000be80:	b10c      	cbz	r4, 1000be86 <__d2b+0x22>
1000be82:	f443 1380 	orr.w	r3, r3, #1048576	@ 0x100000
1000be86:	2e00      	cmp	r6, #0
1000be88:	9301      	str	r3, [sp, #4]
1000be8a:	d115      	bne.n	1000beb8 <__d2b+0x54>
1000be8c:	a801      	add	r0, sp, #4
1000be8e:	f7ff fca1 	bl	1000b7d4 <__lo0bits>
1000be92:	9901      	ldr	r1, [sp, #4]
1000be94:	2201      	movs	r2, #1
1000be96:	f100 0320 	add.w	r3, r0, #32
1000be9a:	6169      	str	r1, [r5, #20]
1000be9c:	612a      	str	r2, [r5, #16]
1000be9e:	b31c      	cbz	r4, 1000bee8 <__d2b+0x84>
1000bea0:	f2a4 4433 	subw	r4, r4, #1075	@ 0x433
1000bea4:	f1c3 0035 	rsb	r0, r3, #53	@ 0x35
1000bea8:	441c      	add	r4, r3
1000beaa:	9b08      	ldr	r3, [sp, #32]
1000beac:	601c      	str	r4, [r3, #0]
1000beae:	9b09      	ldr	r3, [sp, #36]	@ 0x24
1000beb0:	6018      	str	r0, [r3, #0]
1000beb2:	4628      	mov	r0, r5
1000beb4:	b003      	add	sp, #12
1000beb6:	bdf0      	pop	{r4, r5, r6, r7, pc}
1000beb8:	4668      	mov	r0, sp
1000beba:	9600      	str	r6, [sp, #0]
1000bebc:	f7ff fc8a 	bl	1000b7d4 <__lo0bits>
1000bec0:	9a01      	ldr	r2, [sp, #4]
1000bec2:	4603      	mov	r3, r0
1000bec4:	b300      	cbz	r0, 1000bf08 <__d2b+0xa4>
1000bec6:	f1c0 0120 	rsb	r1, r0, #32
1000beca:	fa02 f101 	lsl.w	r1, r2, r1
1000bece:	40c2      	lsrs	r2, r0
1000bed0:	9800      	ldr	r0, [sp, #0]
1000bed2:	9201      	str	r2, [sp, #4]
1000bed4:	4301      	orrs	r1, r0
1000bed6:	2a00      	cmp	r2, #0
1000bed8:	e9c5 1205 	strd	r1, r2, [r5, #20]
1000bedc:	bf0c      	ite	eq
1000bede:	2201      	moveq	r2, #1
1000bee0:	2202      	movne	r2, #2
1000bee2:	612a      	str	r2, [r5, #16]
1000bee4:	2c00      	cmp	r4, #0
1000bee6:	d1db      	bne.n	1000bea0 <__d2b+0x3c>
1000bee8:	f2a3 4332 	subw	r3, r3, #1074	@ 0x432
1000beec:	9808      	ldr	r0, [sp, #32]
1000beee:	eb05 0182 	add.w	r1, r5, r2, lsl #2
1000bef2:	6003      	str	r3, [r0, #0]
1000bef4:	6908      	ldr	r0, [r1, #16]
1000bef6:	f7ff fc49 	bl	1000b78c <__hi0bits>
1000befa:	9b09      	ldr	r3, [sp, #36]	@ 0x24
1000befc:	ebc0 1042 	rsb	r0, r0, r2, lsl #5
1000bf00:	6018      	str	r0, [r3, #0]
1000bf02:	4628      	mov	r0, r5
1000bf04:	b003      	add	sp, #12
1000bf06:	bdf0      	pop	{r4, r5, r6, r7, pc}
1000bf08:	9900      	ldr	r1, [sp, #0]
1000bf0a:	e7e4      	b.n	1000bed6 <__d2b+0x72>
1000bf0c:	4602      	mov	r2, r0
1000bf0e:	4b03      	ldr	r3, [pc, #12]	@ (1000bf1c <__d2b+0xb8>)
1000bf10:	f240 310f 	movw	r1, #783	@ 0x30f
1000bf14:	4802      	ldr	r0, [pc, #8]	@ (1000bf20 <__d2b+0xbc>)
1000bf16:	f7f9 fa47 	bl	100053a8 <__assert_func>
1000bf1a:	bf00      	nop
1000bf1c:	1000c698 	.word	0x1000c698
1000bf20:	1000c710 	.word	0x1000c710

1000bf24 <__ratio>:
1000bf24:	e92d 43f0 	stmdb	sp!, {r4, r5, r6, r7, r8, r9, lr}
1000bf28:	b083      	sub	sp, #12
1000bf2a:	4688      	mov	r8, r1
1000bf2c:	4681      	mov	r9, r0
1000bf2e:	4669      	mov	r1, sp
1000bf30:	f7ff ff36 	bl	1000bda0 <__b2d>
1000bf34:	4604      	mov	r4, r0
1000bf36:	460d      	mov	r5, r1
1000bf38:	4640      	mov	r0, r8
1000bf3a:	a901      	add	r1, sp, #4
1000bf3c:	f7ff ff30 	bl	1000bda0 <__b2d>
1000bf40:	f8d9 3010 	ldr.w	r3, [r9, #16]
1000bf44:	f8d8 2010 	ldr.w	r2, [r8, #16]
1000bf48:	eba3 0c02 	sub.w	ip, r3, r2
1000bf4c:	e9dd 3200 	ldrd	r3, r2, [sp]
1000bf50:	1a9b      	subs	r3, r3, r2
1000bf52:	eb03 134c 	add.w	r3, r3, ip, lsl #5
1000bf56:	2b00      	cmp	r3, #0
1000bf58:	dd0b      	ble.n	1000bf72 <__ratio+0x4e>
1000bf5a:	eb05 5703 	add.w	r7, r5, r3, lsl #20
1000bf5e:	463d      	mov	r5, r7
1000bf60:	4602      	mov	r2, r0
1000bf62:	460b      	mov	r3, r1
1000bf64:	4620      	mov	r0, r4
1000bf66:	4629      	mov	r1, r5
1000bf68:	f7f7 fc0c 	bl	10003784 <__wrap___aeabi_ddiv>
1000bf6c:	b003      	add	sp, #12
1000bf6e:	e8bd 83f0 	ldmia.w	sp!, {r4, r5, r6, r7, r8, r9, pc}
1000bf72:	ebc3 3303 	rsb	r3, r3, r3, lsl #12
1000bf76:	eb01 5903 	add.w	r9, r1, r3, lsl #20
1000bf7a:	4649      	mov	r1, r9
1000bf7c:	e7f0      	b.n	1000bf60 <__ratio+0x3c>
1000bf7e:	bf00      	nop

1000bf80 <__copybits>:
1000bf80:	3901      	subs	r1, #1
1000bf82:	f102 0314 	add.w	r3, r2, #20
1000bf86:	ea4f 1c61 	mov.w	ip, r1, asr #5
1000bf8a:	6911      	ldr	r1, [r2, #16]
1000bf8c:	eb03 0181 	add.w	r1, r3, r1, lsl #2
1000bf90:	f10c 0c01 	add.w	ip, ip, #1
1000bf94:	428b      	cmp	r3, r1
1000bf96:	eb00 0c8c 	add.w	ip, r0, ip, lsl #2
1000bf9a:	d216      	bcs.n	1000bfca <__copybits+0x4a>
1000bf9c:	b510      	push	{r4, lr}
1000bf9e:	f1a0 0e04 	sub.w	lr, r0, #4
1000bfa2:	f853 4b04 	ldr.w	r4, [r3], #4
1000bfa6:	4299      	cmp	r1, r3
1000bfa8:	f84e 4f04 	str.w	r4, [lr, #4]!
1000bfac:	d8f9      	bhi.n	1000bfa2 <__copybits+0x22>
1000bfae:	1a8b      	subs	r3, r1, r2
1000bfb0:	3b15      	subs	r3, #21
1000bfb2:	f023 0303 	bic.w	r3, r3, #3
1000bfb6:	3304      	adds	r3, #4
1000bfb8:	4418      	add	r0, r3
1000bfba:	4584      	cmp	ip, r0
1000bfbc:	d904      	bls.n	1000bfc8 <__copybits+0x48>
1000bfbe:	2300      	movs	r3, #0
1000bfc0:	f840 3b04 	str.w	r3, [r0], #4
1000bfc4:	4584      	cmp	ip, r0
1000bfc6:	d8fb      	bhi.n	1000bfc0 <__copybits+0x40>
1000bfc8:	bd10      	pop	{r4, pc}
1000bfca:	4584      	cmp	ip, r0
1000bfcc:	d905      	bls.n	1000bfda <__copybits+0x5a>
1000bfce:	2300      	movs	r3, #0
1000bfd0:	f840 3b04 	str.w	r3, [r0], #4
1000bfd4:	4584      	cmp	ip, r0
1000bfd6:	d8fb      	bhi.n	1000bfd0 <__copybits+0x50>
1000bfd8:	4770      	bx	lr
1000bfda:	4770      	bx	lr

1000bfdc <__any_on>:
1000bfdc:	6903      	ldr	r3, [r0, #16]
1000bfde:	114a      	asrs	r2, r1, #5
1000bfe0:	3014      	adds	r0, #20
1000bfe2:	4293      	cmp	r3, r2
1000bfe4:	da09      	bge.n	1000bffa <__any_on+0x1e>
1000bfe6:	eb00 0383 	add.w	r3, r0, r3, lsl #2
1000bfea:	e002      	b.n	1000bff2 <__any_on+0x16>
1000bfec:	f853 2d04 	ldr.w	r2, [r3, #-4]!
1000bff0:	b9aa      	cbnz	r2, 1000c01e <__any_on+0x42>
1000bff2:	4283      	cmp	r3, r0
1000bff4:	d8fa      	bhi.n	1000bfec <__any_on+0x10>
1000bff6:	2000      	movs	r0, #0
1000bff8:	4770      	bx	lr
1000bffa:	eb00 0382 	add.w	r3, r0, r2, lsl #2
1000bffe:	ddf8      	ble.n	1000bff2 <__any_on+0x16>
1000c000:	f011 011f 	ands.w	r1, r1, #31
1000c004:	d0f5      	beq.n	1000bff2 <__any_on+0x16>
1000c006:	b410      	push	{r4}
1000c008:	f850 4022 	ldr.w	r4, [r0, r2, lsl #2]
1000c00c:	fa24 f201 	lsr.w	r2, r4, r1
1000c010:	408a      	lsls	r2, r1
1000c012:	4294      	cmp	r4, r2
1000c014:	d009      	beq.n	1000c02a <__any_on+0x4e>
1000c016:	2001      	movs	r0, #1
1000c018:	f85d 4b04 	ldr.w	r4, [sp], #4
1000c01c:	4770      	bx	lr
1000c01e:	2001      	movs	r0, #1
1000c020:	4770      	bx	lr
1000c022:	f853 2d04 	ldr.w	r2, [r3, #-4]!
1000c026:	2a00      	cmp	r2, #0
1000c028:	d1f5      	bne.n	1000c016 <__any_on+0x3a>
1000c02a:	4283      	cmp	r3, r0
1000c02c:	d8f9      	bhi.n	1000c022 <__any_on+0x46>
1000c02e:	2000      	movs	r0, #0
1000c030:	f85d 4b04 	ldr.w	r4, [sp], #4
1000c034:	4770      	bx	lr
1000c036:	bf00      	nop

1000c038 <category>:
1000c038:	4b15      	ldr	r3, [pc, #84]	@ (1000c090 <category+0x58>)
1000c03a:	4298      	cmp	r0, r3
1000c03c:	d826      	bhi.n	1000c08c <category+0x54>
1000c03e:	f640 0cf9 	movw	ip, #2297	@ 0x8f9
1000c042:	b570      	push	{r4, r5, r6, lr}
1000c044:	f04f 0e00 	mov.w	lr, #0
1000c048:	4d12      	ldr	r5, [pc, #72]	@ (1000c094 <category+0x5c>)
1000c04a:	e003      	b.n	1000c054 <category+0x1c>
1000c04c:	f104 0e01 	add.w	lr, r4, #1
1000c050:	45f4      	cmp	ip, lr
1000c052:	db19      	blt.n	1000c088 <category+0x50>
1000c054:	eb1c 020e 	adds.w	r2, ip, lr
1000c058:	bf48      	it	mi
1000c05a:	3201      	addmi	r2, #1
1000c05c:	f022 0301 	bic.w	r3, r2, #1
1000c060:	1054      	asrs	r4, r2, #1
1000c062:	eb03 0362 	add.w	r3, r3, r2, asr #1
1000c066:	eb05 0143 	add.w	r1, r5, r3, lsl #1
1000c06a:	005b      	lsls	r3, r3, #1
1000c06c:	784a      	ldrb	r2, [r1, #1]
1000c06e:	884e      	ldrh	r6, [r1, #2]
1000c070:	8889      	ldrh	r1, [r1, #4]
1000c072:	ea42 2206 	orr.w	r2, r2, r6, lsl #8
1000c076:	4411      	add	r1, r2
1000c078:	4288      	cmp	r0, r1
1000c07a:	d8e7      	bhi.n	1000c04c <category+0x14>
1000c07c:	4290      	cmp	r0, r2
1000c07e:	f104 3cff 	add.w	ip, r4, #4294967295
1000c082:	d3e5      	bcc.n	1000c050 <category+0x18>
1000c084:	5ce8      	ldrb	r0, [r5, r3]
1000c086:	bd70      	pop	{r4, r5, r6, pc}
1000c088:	20ff      	movs	r0, #255	@ 0xff
1000c08a:	bd70      	pop	{r4, r5, r6, pc}
1000c08c:	20ff      	movs	r0, #255	@ 0xff
1000c08e:	4770      	bx	lr
1000c090:	000e01ef 	.word	0x000e01ef
1000c094:	100100c8 	.word	0x100100c8

1000c098 <_fini>:
1000c098:	b5f8      	push	{r3, r4, r5, r6, r7, lr}
1000c09a:	bf00      	nop
1000c09c:	0000      	movs	r0, r0
	...

1000c0a0 <____aeabi_uldivmod_veneer>:
1000c0a0:	f85f f000 	ldr.w	pc, [pc]	@ 1000c0a4 <____aeabi_uldivmod_veneer+0x4>
1000c0a4:	20000321 	.word	0x20000321

1000c0a8 <__mutex_exit_veneer>:
1000c0a8:	f85f f000 	ldr.w	pc, [pc]	@ 1000c0ac <__mutex_exit_veneer+0x4>
1000c0ac:	200001ed 	.word	0x200001ed

1000c0b0 <__mutex_try_enter_block_until_veneer>:
1000c0b0:	f85f f000 	ldr.w	pc, [pc]	@ 1000c0b4 <__mutex_try_enter_block_until_veneer+0x4>
1000c0b4:	20000181 	.word	0x20000181

1000c0b8 <__spi_read_blocking_veneer>:
1000c0b8:	f85f f000 	ldr.w	pc, [pc]	@ 1000c0bc <__spi_read_blocking_veneer+0x4>
1000c0bc:	200002b9 	.word	0x200002b9

1000c0c0 <__spi_write_blocking_veneer>:
1000c0c0:	f85f f000 	ldr.w	pc, [pc]	@ 1000c0c4 <__spi_write_blocking_veneer+0x4>
1000c0c4:	20000229 	.word	0x20000229

1000c0c8 <__pre_init_runtime_init_bootrom_reset>:
1000c0c8:	1000357d                                }5..

1000c0cc <__pre_init_runtime_init_early_resets>:
1000c0cc:	100034f1                                .4..

1000c0d0 <__pre_init_runtime_init_usb_power_down>:
1000c0d0:	10003525                                %5..

1000c0d4 <__pre_init_runtime_init_clocks>:
1000c0d4:	100035c9                                .5..

1000c0d8 <__pre_init_runtime_init_post_clock_resets>:
1000c0d8:	1000355d                                ]5..

1000c0dc <__pre_init_runtime_init_boot_locks_reset>:
1000c0dc:	10003479                                y4..

1000c0e0 <__pre_init_runtime_init_spin_locks_reset>:
1000c0e0:	100035a5                                .5..

1000c0e4 <__pre_init_runtime_init_bootrom_locking_enable>:
1000c0e4:	10003465                                e4..

1000c0e8 <__pre_init_runtime_init_mutex>:
1000c0e8:	100028bd                                .(..

1000c0ec <__pre_init_runtime_init_install_ram_vector_table>:
1000c0ec:	100035a9                                .5..

1000c0f0 <__pre_init_runtime_init_default_alarm_pool>:
1000c0f0:	10002c29                                ),..

1000c0f4 <__pre_init_first_per_core_initializer>:
1000c0f4:	100034c1                                .4..

1000c0f8 <__pre_init_runtime_init_per_core_bootrom_reset>:
1000c0f8:	10003591                                .5..

1000c0fc <__pre_init_runtime_init_per_core_enable_coprocessors>:
1000c0fc:	10003541                                A5..

1000c100 <__pre_init_spinlock_set_extexclall>:
1000c100:	10002505                                .%..

1000c104 <__pre_init_runtime_init_per_core_irq_priorities>:
1000c104:	1000252d                                -%..

1000c108 <__frame_dummy_init_array_entry>:
1000c108:	10000219 10005dfd                       .....]..

Disassembly of section .data:

20000110 <mutex_enter_block_until>:
20000110:	f04f 4150 	mov.w	r1, #3489660928	@ 0xd0000000
20000114:	e92d 41f0 	stmdb	sp!, {r4, r5, r6, r7, r8, lr}
20000118:	2700      	movs	r7, #0
2000011a:	4604      	mov	r4, r0
2000011c:	4616      	mov	r6, r2
2000011e:	461d      	mov	r5, r3
20000120:	f8d1 8000 	ldr.w	r8, [r1]
20000124:	e009      	b.n	2000013a <mutex_enter_block_until+0x2a>
20000126:	6823      	ldr	r3, [r4, #0]
20000128:	e8c3 7f8f 	stlb	r7, [r3]
2000012c:	f38c 8810 	msr	PRIMASK, ip
20000130:	4630      	mov	r0, r6
20000132:	4629      	mov	r1, r5
20000134:	f000 fa90 	bl	20000658 <__best_effort_wfe_or_timeout_veneer>
20000138:	b9f0      	cbnz	r0, 20000178 <mutex_enter_block_until+0x68>
2000013a:	6821      	ldr	r1, [r4, #0]
2000013c:	f3ef 8c10 	mrs	ip, PRIMASK
20000140:	b672      	cpsid	i
20000142:	e8d1 2fcf 	ldaexb	r2, [r1]
20000146:	2301      	movs	r3, #1
20000148:	2a00      	cmp	r2, #0
2000014a:	d1fa      	bne.n	20000142 <mutex_enter_block_until+0x32>
2000014c:	e8c1 3f42 	strexb	r2, r3, [r1]
20000150:	2a00      	cmp	r2, #0
20000152:	d1f6      	bne.n	20000142 <mutex_enter_block_until+0x32>
20000154:	f3bf 8f5f 	dmb	sy
20000158:	f994 e004 	ldrsb.w	lr, [r4, #4]
2000015c:	f1be 0f00 	cmp.w	lr, #0
20000160:	dae1      	bge.n	20000126 <mutex_enter_block_until+0x16>
20000162:	2300      	movs	r3, #0
20000164:	6822      	ldr	r2, [r4, #0]
20000166:	f884 8004 	strb.w	r8, [r4, #4]
2000016a:	e8c2 3f8f 	stlb	r3, [r2]
2000016e:	f38c 8810 	msr	PRIMASK, ip
20000172:	2001      	movs	r0, #1
20000174:	e8bd 81f0 	ldmia.w	sp!, {r4, r5, r6, r7, r8, pc}
20000178:	2000      	movs	r0, #0
2000017a:	e8bd 81f0 	ldmia.w	sp!, {r4, r5, r6, r7, r8, pc}
2000017e:	bf00      	nop

20000180 <mutex_try_enter_block_until>:
20000180:	b530      	push	{r4, r5, lr}
20000182:	4601      	mov	r1, r0
20000184:	6804      	ldr	r4, [r0, #0]
20000186:	f3ef 8c10 	mrs	ip, PRIMASK
2000018a:	b672      	cpsid	i
2000018c:	e8d4 efcf 	ldaexb	lr, [r4]
20000190:	2501      	movs	r5, #1
20000192:	f1be 0f00 	cmp.w	lr, #0
20000196:	d1f9      	bne.n	2000018c <mutex_try_enter_block_until+0xc>
20000198:	e8c4 5f4e 	strexb	lr, r5, [r4]
2000019c:	f1be 0f00 	cmp.w	lr, #0
200001a0:	d1f4      	bne.n	2000018c <mutex_try_enter_block_until+0xc>
200001a2:	f3bf 8f5f 	dmb	sy
200001a6:	f990 4004 	ldrsb.w	r4, [r0, #4]
200001aa:	2c00      	cmp	r4, #0
200001ac:	db11      	blt.n	200001d2 <mutex_try_enter_block_until+0x52>
200001ae:	2100      	movs	r1, #0
200001b0:	6805      	ldr	r5, [r0, #0]
200001b2:	e8c5 1f8f 	stlb	r1, [r5]
200001b6:	f38c 8810 	msr	PRIMASK, ip
200001ba:	f04f 4c50 	mov.w	ip, #3489660928	@ 0xd0000000
200001be:	f99c c000 	ldrsb.w	ip, [ip]
200001c2:	45a4      	cmp	ip, r4
200001c4:	d101      	bne.n	200001ca <mutex_try_enter_block_until+0x4a>
200001c6:	4608      	mov	r0, r1
200001c8:	bd30      	pop	{r4, r5, pc}
200001ca:	e8bd 4030 	ldmia.w	sp!, {r4, r5, lr}
200001ce:	f7ff bf9f 	b.w	20000110 <mutex_enter_block_until>
200001d2:	f04f 4050 	mov.w	r0, #3489660928	@ 0xd0000000
200001d6:	6800      	ldr	r0, [r0, #0]
200001d8:	2300      	movs	r3, #0
200001da:	680a      	ldr	r2, [r1, #0]
200001dc:	7108      	strb	r0, [r1, #4]
200001de:	e8c2 3f8f 	stlb	r3, [r2]
200001e2:	f38c 8810 	msr	PRIMASK, ip
200001e6:	2001      	movs	r0, #1
200001e8:	bd30      	pop	{r4, r5, pc}
200001ea:	bf00      	nop

200001ec <mutex_exit>:
200001ec:	6803      	ldr	r3, [r0, #0]
200001ee:	f3ef 8210 	mrs	r2, PRIMASK
200001f2:	b672      	cpsid	i
200001f4:	e8d3 cfcf 	ldaexb	ip, [r3]
200001f8:	2101      	movs	r1, #1
200001fa:	f1bc 0f00 	cmp.w	ip, #0
200001fe:	d1f9      	bne.n	200001f4 <mutex_exit+0x8>
20000200:	e8c3 1f4c 	strexb	ip, r1, [r3]
20000204:	f1bc 0f00 	cmp.w	ip, #0
20000208:	d1f4      	bne.n	200001f4 <mutex_exit+0x8>
2000020a:	f3bf 8f5f 	dmb	sy
2000020e:	f04f 0cff 	mov.w	ip, #255	@ 0xff
20000212:	2300      	movs	r3, #0
20000214:	6801      	ldr	r1, [r0, #0]
20000216:	f880 c004 	strb.w	ip, [r0, #4]
2000021a:	e8c1 3f8f 	stlb	r3, [r1]
2000021e:	f382 8810 	msr	PRIMASK, r2
20000222:	bf40      	sev
20000224:	4770      	bx	lr
20000226:	bf00      	nop

20000228 <spi_write_blocking>:
20000228:	4684      	mov	ip, r0
2000022a:	4610      	mov	r0, r2
2000022c:	b36a      	cbz	r2, 2000028a <spi_write_blocking+0x62>
2000022e:	3901      	subs	r1, #1
20000230:	b500      	push	{lr}
20000232:	eb01 0e02 	add.w	lr, r1, r2
20000236:	f8dc 300c 	ldr.w	r3, [ip, #12]
2000023a:	079b      	lsls	r3, r3, #30
2000023c:	d5fb      	bpl.n	20000236 <spi_write_blocking+0xe>
2000023e:	f811 3f01 	ldrb.w	r3, [r1, #1]!
20000242:	458e      	cmp	lr, r1
20000244:	f8cc 3008 	str.w	r3, [ip, #8]
20000248:	d1f5      	bne.n	20000236 <spi_write_blocking+0xe>
2000024a:	f8dc 300c 	ldr.w	r3, [ip, #12]
2000024e:	0759      	lsls	r1, r3, #29
20000250:	d505      	bpl.n	2000025e <spi_write_blocking+0x36>
20000252:	f8dc 3008 	ldr.w	r3, [ip, #8]
20000256:	f8dc 300c 	ldr.w	r3, [ip, #12]
2000025a:	0759      	lsls	r1, r3, #29
2000025c:	d4f9      	bmi.n	20000252 <spi_write_blocking+0x2a>
2000025e:	f8dc 300c 	ldr.w	r3, [ip, #12]
20000262:	06da      	lsls	r2, r3, #27
20000264:	d506      	bpl.n	20000274 <spi_write_blocking+0x4c>
20000266:	f8dc 300c 	ldr.w	r3, [ip, #12]
2000026a:	06da      	lsls	r2, r3, #27
2000026c:	d4f7      	bmi.n	2000025e <spi_write_blocking+0x36>
2000026e:	e001      	b.n	20000274 <spi_write_blocking+0x4c>
20000270:	f8dc 3008 	ldr.w	r3, [ip, #8]
20000274:	f8dc 300c 	ldr.w	r3, [ip, #12]
20000278:	075b      	lsls	r3, r3, #29
2000027a:	d4f9      	bmi.n	20000270 <spi_write_blocking+0x48>
2000027c:	2301      	movs	r3, #1
2000027e:	f8cc 3020 	str.w	r3, [ip, #32]
20000282:	f85d fb04 	ldr.w	pc, [sp], #4
20000286:	f8dc 3008 	ldr.w	r3, [ip, #8]
2000028a:	f8dc 300c 	ldr.w	r3, [ip, #12]
2000028e:	0759      	lsls	r1, r3, #29
20000290:	d4f9      	bmi.n	20000286 <spi_write_blocking+0x5e>
20000292:	f8dc 300c 	ldr.w	r3, [ip, #12]
20000296:	06da      	lsls	r2, r3, #27
20000298:	d506      	bpl.n	200002a8 <spi_write_blocking+0x80>
2000029a:	f8dc 300c 	ldr.w	r3, [ip, #12]
2000029e:	06da      	lsls	r2, r3, #27
200002a0:	d4f7      	bmi.n	20000292 <spi_write_blocking+0x6a>
200002a2:	e001      	b.n	200002a8 <spi_write_blocking+0x80>
200002a4:	f8dc 3008 	ldr.w	r3, [ip, #8]
200002a8:	f8dc 300c 	ldr.w	r3, [ip, #12]
200002ac:	075b      	lsls	r3, r3, #29
200002ae:	d4f9      	bmi.n	200002a4 <spi_write_blocking+0x7c>
200002b0:	2301      	movs	r3, #1
200002b2:	f8cc 3020 	str.w	r3, [ip, #32]
200002b6:	4770      	bx	lr

200002b8 <spi_read_blocking>:
200002b8:	b5f0      	push	{r4, r5, r6, r7, lr}
200002ba:	461d      	mov	r5, r3
200002bc:	4684      	mov	ip, r0
200002be:	461c      	mov	r4, r3
200002c0:	b975      	cbnz	r5, 200002e0 <spi_read_blocking+0x28>
200002c2:	b15c      	cbz	r4, 200002dc <spi_read_blocking+0x24>
200002c4:	f8dc 200c 	ldr.w	r2, [ip, #12]
200002c8:	0795      	lsls	r5, r2, #30
200002ca:	d5fb      	bpl.n	200002c4 <spi_read_blocking+0xc>
200002cc:	f114 0f08 	cmn.w	r4, #8
200002d0:	d0f8      	beq.n	200002c4 <spi_read_blocking+0xc>
200002d2:	3c01      	subs	r4, #1
200002d4:	f8cc 1008 	str.w	r1, [ip, #8]
200002d8:	2c00      	cmp	r4, #0
200002da:	d1f3      	bne.n	200002c4 <spi_read_blocking+0xc>
200002dc:	4618      	mov	r0, r3
200002de:	bdf0      	pop	{r4, r5, r6, r7, pc}
200002e0:	4696      	mov	lr, r2
200002e2:	b964      	cbnz	r4, 200002fe <spi_read_blocking+0x46>
200002e4:	f8dc 600c 	ldr.w	r6, [ip, #12]
200002e8:	0776      	lsls	r6, r6, #29
200002ea:	d5fa      	bpl.n	200002e2 <spi_read_blocking+0x2a>
200002ec:	f8dc 6008 	ldr.w	r6, [ip, #8]
200002f0:	3d01      	subs	r5, #1
200002f2:	3201      	adds	r2, #1
200002f4:	f88e 6000 	strb.w	r6, [lr]
200002f8:	2d00      	cmp	r5, #0
200002fa:	d0e2      	beq.n	200002c2 <spi_read_blocking+0xa>
200002fc:	e7f0      	b.n	200002e0 <spi_read_blocking+0x28>
200002fe:	f8dc 600c 	ldr.w	r6, [ip, #12]
20000302:	f104 0708 	add.w	r7, r4, #8
20000306:	07b0      	lsls	r0, r6, #30
20000308:	d5ec      	bpl.n	200002e4 <spi_read_blocking+0x2c>
2000030a:	42af      	cmp	r7, r5
2000030c:	d9ea      	bls.n	200002e4 <spi_read_blocking+0x2c>
2000030e:	f8cc 1008 	str.w	r1, [ip, #8]
20000312:	f8dc 000c 	ldr.w	r0, [ip, #12]
20000316:	3c01      	subs	r4, #1
20000318:	0740      	lsls	r0, r0, #29
2000031a:	d4e7      	bmi.n	200002ec <spi_read_blocking+0x34>
2000031c:	e7e1      	b.n	200002e2 <spi_read_blocking+0x2a>
2000031e:	bf00      	nop

20000320 <__aeabi_uldivmod>:
20000320:	b953      	cbnz	r3, 20000338 <__aeabi_uldivmod+0x18>
20000322:	b94a      	cbnz	r2, 20000338 <__aeabi_uldivmod+0x18>
20000324:	2900      	cmp	r1, #0
20000326:	bf08      	it	eq
20000328:	2800      	cmpeq	r0, #0
2000032a:	bf1c      	itt	ne
2000032c:	f04f 31ff 	movne.w	r1, #4294967295
20000330:	f04f 30ff 	movne.w	r0, #4294967295
20000334:	f000 b98c 	b.w	20000650 <__aeabi_idiv0>
20000338:	f1ad 0c08 	sub.w	ip, sp, #8
2000033c:	e96d ce04 	strd	ip, lr, [sp, #-16]!
20000340:	f000 f806 	bl	20000350 <__udivmoddi4>
20000344:	f8dd e004 	ldr.w	lr, [sp, #4]
20000348:	e9dd 2302 	ldrd	r2, r3, [sp, #8]
2000034c:	b004      	add	sp, #16
2000034e:	4770      	bx	lr

20000350 <__udivmoddi4>:
20000350:	e92d 4ff0 	stmdb	sp!, {r4, r5, r6, r7, r8, r9, sl, fp, lr}
20000354:	9d09      	ldr	r5, [sp, #36]	@ 0x24
20000356:	460e      	mov	r6, r1
20000358:	4604      	mov	r4, r0
2000035a:	460f      	mov	r7, r1
2000035c:	2b00      	cmp	r3, #0
2000035e:	d147      	bne.n	200003f0 <__udivmoddi4+0xa0>
20000360:	428a      	cmp	r2, r1
20000362:	4694      	mov	ip, r2
20000364:	fab2 f382 	clz	r3, r2
20000368:	d95a      	bls.n	20000420 <__udivmoddi4+0xd0>
2000036a:	b143      	cbz	r3, 2000037e <__udivmoddi4+0x2e>
2000036c:	fa02 fc03 	lsl.w	ip, r2, r3
20000370:	f1c3 0220 	rsb	r2, r3, #32
20000374:	409f      	lsls	r7, r3
20000376:	409c      	lsls	r4, r3
20000378:	fa20 f202 	lsr.w	r2, r0, r2
2000037c:	4317      	orrs	r7, r2
2000037e:	ea4f 461c 	mov.w	r6, ip, lsr #16
20000382:	fa1f fe8c 	uxth.w	lr, ip
20000386:	0c22      	lsrs	r2, r4, #16
20000388:	fbb7 f1f6 	udiv	r1, r7, r6
2000038c:	fb06 7711 	mls	r7, r6, r1, r7
20000390:	fb01 f00e 	mul.w	r0, r1, lr
20000394:	ea42 4207 	orr.w	r2, r2, r7, lsl #16
20000398:	4290      	cmp	r0, r2
2000039a:	d908      	bls.n	200003ae <__udivmoddi4+0x5e>
2000039c:	eb1c 0202 	adds.w	r2, ip, r2
200003a0:	f101 37ff 	add.w	r7, r1, #4294967295
200003a4:	d202      	bcs.n	200003ac <__udivmoddi4+0x5c>
200003a6:	4290      	cmp	r0, r2
200003a8:	f200 813c 	bhi.w	20000624 <__udivmoddi4+0x2d4>
200003ac:	4639      	mov	r1, r7
200003ae:	1a12      	subs	r2, r2, r0
200003b0:	b2a4      	uxth	r4, r4
200003b2:	fbb2 f0f6 	udiv	r0, r2, r6
200003b6:	fb06 2210 	mls	r2, r6, r0, r2
200003ba:	fb00 fe0e 	mul.w	lr, r0, lr
200003be:	ea44 4402 	orr.w	r4, r4, r2, lsl #16
200003c2:	45a6      	cmp	lr, r4
200003c4:	d908      	bls.n	200003d8 <__udivmoddi4+0x88>
200003c6:	eb1c 0404 	adds.w	r4, ip, r4
200003ca:	f100 32ff 	add.w	r2, r0, #4294967295
200003ce:	d202      	bcs.n	200003d6 <__udivmoddi4+0x86>
200003d0:	45a6      	cmp	lr, r4
200003d2:	f200 812a 	bhi.w	2000062a <__udivmoddi4+0x2da>
200003d6:	4610      	mov	r0, r2
200003d8:	ea40 4001 	orr.w	r0, r0, r1, lsl #16
200003dc:	eba4 040e 	sub.w	r4, r4, lr
200003e0:	2100      	movs	r1, #0
200003e2:	b11d      	cbz	r5, 200003ec <__udivmoddi4+0x9c>
200003e4:	40dc      	lsrs	r4, r3
200003e6:	2300      	movs	r3, #0
200003e8:	e9c5 4300 	strd	r4, r3, [r5]
200003ec:	e8bd 8ff0 	ldmia.w	sp!, {r4, r5, r6, r7, r8, r9, sl, fp, pc}
200003f0:	428b      	cmp	r3, r1
200003f2:	d905      	bls.n	20000400 <__udivmoddi4+0xb0>
200003f4:	b10d      	cbz	r5, 200003fa <__udivmoddi4+0xaa>
200003f6:	e9c5 0100 	strd	r0, r1, [r5]
200003fa:	2100      	movs	r1, #0
200003fc:	4608      	mov	r0, r1
200003fe:	e7f5      	b.n	200003ec <__udivmoddi4+0x9c>
20000400:	fab3 f183 	clz	r1, r3
20000404:	2900      	cmp	r1, #0
20000406:	d14f      	bne.n	200004a8 <__udivmoddi4+0x158>
20000408:	42b3      	cmp	r3, r6
2000040a:	f0c0 8102 	bcc.w	20000612 <__udivmoddi4+0x2c2>
2000040e:	4282      	cmp	r2, r0
20000410:	f240 80ff 	bls.w	20000612 <__udivmoddi4+0x2c2>
20000414:	4608      	mov	r0, r1
20000416:	2d00      	cmp	r5, #0
20000418:	d0e8      	beq.n	200003ec <__udivmoddi4+0x9c>
2000041a:	e9c5 4700 	strd	r4, r7, [r5]
2000041e:	e7e5      	b.n	200003ec <__udivmoddi4+0x9c>
20000420:	2b00      	cmp	r3, #0
20000422:	f040 80af 	bne.w	20000584 <__udivmoddi4+0x234>
20000426:	1a8a      	subs	r2, r1, r2
20000428:	ea4f 4e1c 	mov.w	lr, ip, lsr #16
2000042c:	fa1f f78c 	uxth.w	r7, ip
20000430:	2101      	movs	r1, #1
20000432:	fbb2 f6fe 	udiv	r6, r2, lr
20000436:	fb0e 2016 	mls	r0, lr, r6, r2
2000043a:	0c22      	lsrs	r2, r4, #16
2000043c:	ea42 4200 	orr.w	r2, r2, r0, lsl #16
20000440:	fb07 f006 	mul.w	r0, r7, r6
20000444:	4290      	cmp	r0, r2
20000446:	d90f      	bls.n	20000468 <__udivmoddi4+0x118>
20000448:	eb1c 0202 	adds.w	r2, ip, r2
2000044c:	f106 38ff 	add.w	r8, r6, #4294967295
20000450:	bf2c      	ite	cs
20000452:	f04f 0901 	movcs.w	r9, #1
20000456:	f04f 0900 	movcc.w	r9, #0
2000045a:	4290      	cmp	r0, r2
2000045c:	d903      	bls.n	20000466 <__udivmoddi4+0x116>
2000045e:	f1b9 0f00 	cmp.w	r9, #0
20000462:	f000 80dc 	beq.w	2000061e <__udivmoddi4+0x2ce>
20000466:	4646      	mov	r6, r8
20000468:	1a12      	subs	r2, r2, r0
2000046a:	b2a4      	uxth	r4, r4
2000046c:	fbb2 f0fe 	udiv	r0, r2, lr
20000470:	fb0e 2210 	mls	r2, lr, r0, r2
20000474:	fb00 f707 	mul.w	r7, r0, r7
20000478:	ea44 4402 	orr.w	r4, r4, r2, lsl #16
2000047c:	42a7      	cmp	r7, r4
2000047e:	d90f      	bls.n	200004a0 <__udivmoddi4+0x150>
20000480:	eb1c 0404 	adds.w	r4, ip, r4
20000484:	f100 32ff 	add.w	r2, r0, #4294967295
20000488:	bf2c      	ite	cs
2000048a:	f04f 0e01 	movcs.w	lr, #1
2000048e:	f04f 0e00 	movcc.w	lr, #0
20000492:	42a7      	cmp	r7, r4
20000494:	d903      	bls.n	2000049e <__udivmoddi4+0x14e>
20000496:	f1be 0f00 	cmp.w	lr, #0
2000049a:	f000 80c9 	beq.w	20000630 <__udivmoddi4+0x2e0>
2000049e:	4610      	mov	r0, r2
200004a0:	1be4      	subs	r4, r4, r7
200004a2:	ea40 4006 	orr.w	r0, r0, r6, lsl #16
200004a6:	e79c      	b.n	200003e2 <__udivmoddi4+0x92>
200004a8:	f1c1 0420 	rsb	r4, r1, #32
200004ac:	408b      	lsls	r3, r1
200004ae:	fa06 fc01 	lsl.w	ip, r6, r1
200004b2:	fa00 fe01 	lsl.w	lr, r0, r1
200004b6:	fa22 f704 	lsr.w	r7, r2, r4
200004ba:	40e6      	lsrs	r6, r4
200004bc:	408a      	lsls	r2, r1
200004be:	431f      	orrs	r7, r3
200004c0:	fa20 f304 	lsr.w	r3, r0, r4
200004c4:	ea4f 4817 	mov.w	r8, r7, lsr #16
200004c8:	ea43 030c 	orr.w	r3, r3, ip
200004cc:	fa1f fc87 	uxth.w	ip, r7
200004d0:	ea4f 4913 	mov.w	r9, r3, lsr #16
200004d4:	fbb6 f0f8 	udiv	r0, r6, r8
200004d8:	fb08 6610 	mls	r6, r8, r0, r6
200004dc:	ea49 4606 	orr.w	r6, r9, r6, lsl #16
200004e0:	fb00 f90c 	mul.w	r9, r0, ip
200004e4:	45b1      	cmp	r9, r6
200004e6:	d90e      	bls.n	20000506 <__udivmoddi4+0x1b6>
200004e8:	19be      	adds	r6, r7, r6
200004ea:	f100 3aff 	add.w	sl, r0, #4294967295
200004ee:	bf2c      	ite	cs
200004f0:	f04f 0b01 	movcs.w	fp, #1
200004f4:	f04f 0b00 	movcc.w	fp, #0
200004f8:	45b1      	cmp	r9, r6
200004fa:	d903      	bls.n	20000504 <__udivmoddi4+0x1b4>
200004fc:	f1bb 0f00 	cmp.w	fp, #0
20000500:	f000 80a2 	beq.w	20000648 <__udivmoddi4+0x2f8>
20000504:	4650      	mov	r0, sl
20000506:	eba6 0609 	sub.w	r6, r6, r9
2000050a:	fa1f f983 	uxth.w	r9, r3
2000050e:	fbb6 f3f8 	udiv	r3, r6, r8
20000512:	fb08 6613 	mls	r6, r8, r3, r6
20000516:	fb03 fc0c 	mul.w	ip, r3, ip
2000051a:	ea49 4606 	orr.w	r6, r9, r6, lsl #16
2000051e:	45b4      	cmp	ip, r6
20000520:	d90e      	bls.n	20000540 <__udivmoddi4+0x1f0>
20000522:	19be      	adds	r6, r7, r6
20000524:	f103 38ff 	add.w	r8, r3, #4294967295
20000528:	bf2c      	ite	cs
2000052a:	f04f 0901 	movcs.w	r9, #1
2000052e:	f04f 0900 	movcc.w	r9, #0
20000532:	45b4      	cmp	ip, r6
20000534:	d903      	bls.n	2000053e <__udivmoddi4+0x1ee>
20000536:	f1b9 0f00 	cmp.w	r9, #0
2000053a:	f000 8082 	beq.w	20000642 <__udivmoddi4+0x2f2>
2000053e:	4643      	mov	r3, r8
20000540:	ea43 4000 	orr.w	r0, r3, r0, lsl #16
20000544:	eba6 060c 	sub.w	r6, r6, ip
20000548:	fba0 8c02 	umull	r8, ip, r0, r2
2000054c:	4566      	cmp	r6, ip
2000054e:	4643      	mov	r3, r8
20000550:	46e1      	mov	r9, ip
20000552:	d302      	bcc.n	2000055a <__udivmoddi4+0x20a>
20000554:	d107      	bne.n	20000566 <__udivmoddi4+0x216>
20000556:	45c6      	cmp	lr, r8
20000558:	d205      	bcs.n	20000566 <__udivmoddi4+0x216>
2000055a:	ebb8 0302 	subs.w	r3, r8, r2
2000055e:	eb6c 0c07 	sbc.w	ip, ip, r7
20000562:	3801      	subs	r0, #1
20000564:	46e1      	mov	r9, ip
20000566:	b15d      	cbz	r5, 20000580 <__udivmoddi4+0x230>
20000568:	ebbe 0203 	subs.w	r2, lr, r3
2000056c:	eb66 0609 	sbc.w	r6, r6, r9
20000570:	fa06 f404 	lsl.w	r4, r6, r4
20000574:	fa22 f301 	lsr.w	r3, r2, r1
20000578:	40ce      	lsrs	r6, r1
2000057a:	431c      	orrs	r4, r3
2000057c:	e9c5 4600 	strd	r4, r6, [r5]
20000580:	2100      	movs	r1, #0
20000582:	e733      	b.n	200003ec <__udivmoddi4+0x9c>
20000584:	fa02 fc03 	lsl.w	ip, r2, r3
20000588:	f1c3 0220 	rsb	r2, r3, #32
2000058c:	4099      	lsls	r1, r3
2000058e:	409c      	lsls	r4, r3
20000590:	40d6      	lsrs	r6, r2
20000592:	ea4f 4e1c 	mov.w	lr, ip, lsr #16
20000596:	fa20 f202 	lsr.w	r2, r0, r2
2000059a:	fa1f f78c 	uxth.w	r7, ip
2000059e:	fbb6 f0fe 	udiv	r0, r6, lr
200005a2:	430a      	orrs	r2, r1
200005a4:	fb0e 6610 	mls	r6, lr, r0, r6
200005a8:	0c11      	lsrs	r1, r2, #16
200005aa:	ea41 4106 	orr.w	r1, r1, r6, lsl #16
200005ae:	fb00 f607 	mul.w	r6, r0, r7
200005b2:	428e      	cmp	r6, r1
200005b4:	d90e      	bls.n	200005d4 <__udivmoddi4+0x284>
200005b6:	eb1c 0101 	adds.w	r1, ip, r1
200005ba:	f100 38ff 	add.w	r8, r0, #4294967295
200005be:	bf2c      	ite	cs
200005c0:	f04f 0901 	movcs.w	r9, #1
200005c4:	f04f 0900 	movcc.w	r9, #0
200005c8:	428e      	cmp	r6, r1
200005ca:	d902      	bls.n	200005d2 <__udivmoddi4+0x282>
200005cc:	f1b9 0f00 	cmp.w	r9, #0
200005d0:	d034      	beq.n	2000063c <__udivmoddi4+0x2ec>
200005d2:	4640      	mov	r0, r8
200005d4:	1b89      	subs	r1, r1, r6
200005d6:	b292      	uxth	r2, r2
200005d8:	fbb1 f6fe 	udiv	r6, r1, lr
200005dc:	fb0e 1116 	mls	r1, lr, r6, r1
200005e0:	ea42 4201 	orr.w	r2, r2, r1, lsl #16
200005e4:	fb06 f107 	mul.w	r1, r6, r7
200005e8:	4291      	cmp	r1, r2
200005ea:	d90e      	bls.n	2000060a <__udivmoddi4+0x2ba>
200005ec:	eb1c 0202 	adds.w	r2, ip, r2
200005f0:	f106 38ff 	add.w	r8, r6, #4294967295
200005f4:	bf2c      	ite	cs
200005f6:	f04f 0901 	movcs.w	r9, #1
200005fa:	f04f 0900 	movcc.w	r9, #0
200005fe:	4291      	cmp	r1, r2
20000600:	d902      	bls.n	20000608 <__udivmoddi4+0x2b8>
20000602:	f1b9 0f00 	cmp.w	r9, #0
20000606:	d016      	beq.n	20000636 <__udivmoddi4+0x2e6>
20000608:	4646      	mov	r6, r8
2000060a:	1a52      	subs	r2, r2, r1
2000060c:	ea46 4100 	orr.w	r1, r6, r0, lsl #16
20000610:	e70f      	b.n	20000432 <__udivmoddi4+0xe2>
20000612:	1a84      	subs	r4, r0, r2
20000614:	eb66 0203 	sbc.w	r2, r6, r3
20000618:	2001      	movs	r0, #1
2000061a:	4617      	mov	r7, r2
2000061c:	e6fb      	b.n	20000416 <__udivmoddi4+0xc6>
2000061e:	3e02      	subs	r6, #2
20000620:	4462      	add	r2, ip
20000622:	e721      	b.n	20000468 <__udivmoddi4+0x118>
20000624:	3902      	subs	r1, #2
20000626:	4462      	add	r2, ip
20000628:	e6c1      	b.n	200003ae <__udivmoddi4+0x5e>
2000062a:	4464      	add	r4, ip
2000062c:	3802      	subs	r0, #2
2000062e:	e6d3      	b.n	200003d8 <__udivmoddi4+0x88>
20000630:	4464      	add	r4, ip
20000632:	3802      	subs	r0, #2
20000634:	e734      	b.n	200004a0 <__udivmoddi4+0x150>
20000636:	3e02      	subs	r6, #2
20000638:	4462      	add	r2, ip
2000063a:	e7e6      	b.n	2000060a <__udivmoddi4+0x2ba>
2000063c:	3802      	subs	r0, #2
2000063e:	4461      	add	r1, ip
20000640:	e7c8      	b.n	200005d4 <__udivmoddi4+0x284>
20000642:	3b02      	subs	r3, #2
20000644:	443e      	add	r6, r7
20000646:	e77b      	b.n	20000540 <__udivmoddi4+0x1f0>
20000648:	3802      	subs	r0, #2
2000064a:	443e      	add	r6, r7
2000064c:	e75b      	b.n	20000506 <__udivmoddi4+0x1b6>
2000064e:	bf00      	nop

20000650 <__aeabi_idiv0>:
20000650:	4770      	bx	lr
20000652:	bf00      	nop
20000654:	0000      	movs	r0, r0
	...

20000658 <__best_effort_wfe_or_timeout_veneer>:
20000658:	f85f f000 	ldr.w	pc, [pc]	@ 2000065c <__best_effort_wfe_or_timeout_veneer+0x4>
2000065c:	10002f89 	.word	0x10002f89

20000660 <spi_pins>:
20000660:	0d0e0f0c 0000140b 00000000              ............

2000066c <global_spi>:
2000066c:	40088000                                ...@

20000670 <striped_spin_lock_num>:
20000670:	00000010                                ....

20000674 <irq_handler_chain_slots>:
20000674:	00000000 	.word	0x00000000
20000678:	00010000 	.word	0x00010000
	...
20000684:	00020000 	.word	0x00020000
	...
20000690:	00030000 	.word	0x00030000
	...
2000069c:	00ff0000 	.word	0x00ff0000
200006a0:	00000000 	.word	0x00000000

200006a4 <irq_handler_chain_first_slot>:
200006a4:	b501      	push	{r0, lr}
200006a6:	6848      	ldr	r0, [r1, #4]
200006a8:	3101      	adds	r1, #1
200006aa:	468e      	mov	lr, r1
200006ac:	4700      	bx	r0

200006ae <irq_handler_chain_remove_tail>:
200006ae:	4670      	mov	r0, lr
200006b0:	3809      	subs	r0, #9
200006b2:	4901      	ldr	r1, [pc, #4]	@ (200006b8 <irq_handler_chain_remove_tail+0xa>)
200006b4:	4788      	blx	r1
200006b6:	bd01      	pop	{r0, pc}
200006b8:	100027f5 	.word	0x100027f5

200006bc <default_alarm_pool>:
	...
200006d0:	20000f18                                ... 

200006d4 <stdio_uart>:
200006d4:	100058ed 100059f5 1000593d 10005a05     .X...Y..=Y...Z..
200006e4:	00000000 00000100                       ........

200006ec <i2c0_inst>:
200006ec:	40090000 00000000                       ...@....

200006f4 <__malloc_sbrk_base>:
200006f4:	ffffffff                                ....

200006f8 <__malloc_trim_threshold>:
200006f8:	00020000 00000000                       ........

20000700 <__malloc_av_>:
	...
20000708:	20000700 20000700 20000708 20000708     ... ... ... ... 
20000718:	20000710 20000710 20000718 20000718     ... ... ... ... 
20000728:	20000720 20000720 20000728 20000728      ..  .. (.. (.. 
20000738:	20000730 20000730 20000738 20000738     0.. 0.. 8.. 8.. 
20000748:	20000740 20000740 20000748 20000748     @.. @.. H.. H.. 
20000758:	20000750 20000750 20000758 20000758     P.. P.. X.. X.. 
20000768:	20000760 20000760 20000768 20000768     `.. `.. h.. h.. 
20000778:	20000770 20000770 20000778 20000778     p.. p.. x.. x.. 
20000788:	20000780 20000780 20000788 20000788     ... ... ... ... 
20000798:	20000790 20000790 20000798 20000798     ... ... ... ... 
200007a8:	200007a0 200007a0 200007a8 200007a8     ... ... ... ... 
200007b8:	200007b0 200007b0 200007b8 200007b8     ... ... ... ... 
200007c8:	200007c0 200007c0 200007c8 200007c8     ... ... ... ... 
200007d8:	200007d0 200007d0 200007d8 200007d8     ... ... ... ... 
200007e8:	200007e0 200007e0 200007e8 200007e8     ... ... ... ... 
200007f8:	200007f0 200007f0 200007f8 200007f8     ... ... ... ... 
20000808:	20000800 20000800 20000808 20000808     ... ... ... ... 
20000818:	20000810 20000810 20000818 20000818     ... ... ... ... 
20000828:	20000820 20000820 20000828 20000828      ..  .. (.. (.. 
20000838:	20000830 20000830 20000838 20000838     0.. 0.. 8.. 8.. 
20000848:	20000840 20000840 20000848 20000848     @.. @.. H.. H.. 
20000858:	20000850 20000850 20000858 20000858     P.. P.. X.. X.. 
20000868:	20000860 20000860 20000868 20000868     `.. `.. h.. h.. 
20000878:	20000870 20000870 20000878 20000878     p.. p.. x.. x.. 
20000888:	20000880 20000880 20000888 20000888     ... ... ... ... 
20000898:	20000890 20000890 20000898 20000898     ... ... ... ... 
200008a8:	200008a0 200008a0 200008a8 200008a8     ... ... ... ... 
200008b8:	200008b0 200008b0 200008b8 200008b8     ... ... ... ... 
200008c8:	200008c0 200008c0 200008c8 200008c8     ... ... ... ... 
200008d8:	200008d0 200008d0 200008d8 200008d8     ... ... ... ... 
200008e8:	200008e0 200008e0 200008e8 200008e8     ... ... ... ... 
200008f8:	200008f0 200008f0 200008f8 200008f8     ... ... ... ... 
20000908:	20000900 20000900 20000908 20000908     ... ... ... ... 
20000918:	20000910 20000910 20000918 20000918     ... ... ... ... 
20000928:	20000920 20000920 20000928 20000928      ..  .. (.. (.. 
20000938:	20000930 20000930 20000938 20000938     0.. 0.. 8.. 8.. 
20000948:	20000940 20000940 20000948 20000948     @.. @.. H.. H.. 
20000958:	20000950 20000950 20000958 20000958     P.. P.. X.. X.. 
20000968:	20000960 20000960 20000968 20000968     `.. `.. h.. h.. 
20000978:	20000970 20000970 20000978 20000978     p.. p.. x.. x.. 
20000988:	20000980 20000980 20000988 20000988     ... ... ... ... 
20000998:	20000990 20000990 20000998 20000998     ... ... ... ... 
200009a8:	200009a0 200009a0 200009a8 200009a8     ... ... ... ... 
200009b8:	200009b0 200009b0 200009b8 200009b8     ... ... ... ... 
200009c8:	200009c0 200009c0 200009c8 200009c8     ... ... ... ... 
200009d8:	200009d0 200009d0 200009d8 200009d8     ... ... ... ... 
200009e8:	200009e0 200009e0 200009e8 200009e8     ... ... ... ... 
200009f8:	200009f0 200009f0 200009f8 200009f8     ... ... ... ... 
20000a08:	20000a00 20000a00 20000a08 20000a08     ... ... ... ... 
20000a18:	20000a10 20000a10 20000a18 20000a18     ... ... ... ... 
20000a28:	20000a20 20000a20 20000a28 20000a28      ..  .. (.. (.. 
20000a38:	20000a30 20000a30 20000a38 20000a38     0.. 0.. 8.. 8.. 
20000a48:	20000a40 20000a40 20000a48 20000a48     @.. @.. H.. H.. 
20000a58:	20000a50 20000a50 20000a58 20000a58     P.. P.. X.. X.. 
20000a68:	20000a60 20000a60 20000a68 20000a68     `.. `.. h.. h.. 
20000a78:	20000a70 20000a70 20000a78 20000a78     p.. p.. x.. x.. 
20000a88:	20000a80 20000a80 20000a88 20000a88     ... ... ... ... 
20000a98:	20000a90 20000a90 20000a98 20000a98     ... ... ... ... 
20000aa8:	20000aa0 20000aa0 20000aa8 20000aa8     ... ... ... ... 
20000ab8:	20000ab0 20000ab0 20000ab8 20000ab8     ... ... ... ... 
20000ac8:	20000ac0 20000ac0 20000ac8 20000ac8     ... ... ... ... 
20000ad8:	20000ad0 20000ad0 20000ad8 20000ad8     ... ... ... ... 
20000ae8:	20000ae0 20000ae0 20000ae8 20000ae8     ... ... ... ... 
20000af8:	20000af0 20000af0 20000af8 20000af8     ... ... ... ... 

20000b08 <_impure_ptr>:
20000b08:	20000b10 00000000                       ... ....

20000b10 <_impure_data>:
20000b10:	00000000 200010d4 2000113c 200011a4     ....... <.. ... 
	...
20000ba8:	00000001 00000000 abcd330e e66d1234     .........3..4.m.
20000bb8:	0005deec 0000000b 00000000 00000000     ................
	...

20000c50 <__sglue>:
20000c50:	00000000 00000003 200010d4              ........... 

20000c5c <__global_locale>:
20000c5c:	00000043 00000000 00000000 00000000     C...............
	...
20000c7c:	00000043 00000000 00000000 00000000     C...............
	...
20000c9c:	00000043 00000000 00000000 00000000     C...............
	...
20000cbc:	00000043 00000000 00000000 00000000     C...............
	...
20000cdc:	00000043 00000000 00000000 00000000     C...............
	...
20000cfc:	00000043 00000000 00000000 00000000     C...............
	...
20000d1c:	00000043 00000000 00000000 00000000     C...............
	...
20000d3c:	1000a4d5 100093d9 00000000 1000c87c     ............|...
20000d4c:	1000c110 1000c214 1000c214 1000c214     ................
20000d5c:	1000c214 1000c214 1000c214 1000c214     ................
20000d6c:	1000c214 1000c214 ffffffff ffffffff     ................
20000d7c:	ffffffff 0000ffff 53410001 00494943     ..........ASCII.
	...
20000da4:	53410000 00494943 00000000 00000000     ..ASCII.........
	...

20000dc8 <print_mutex>:
	...
