
C:/Users/pete/Documents/pico/PiTest/build/blink.elf:     file format elf32-littlearm

Sections:
Idx Name          Size      VMA       LMA       File off  Algn
  0 .text         000040c0  10000000  10000000  00001000  2**3
                  CONTENTS, ALLOC, LOAD, READONLY, CODE
  1 .rodata       000002cc  100040c0  100040c0  000050c0  2**3
                  CONTENTS, ALLOC, LOAD, READONLY, DATA
  2 .ARM.exidx    00000008  1000438c  1000438c  0000538c  2**2
                  CONTENTS, ALLOC, LOAD, READONLY, DATA
  3 .binary_info  00000030  10004394  10004394  00005394  2**2
                  CONTENTS, ALLOC, LOAD, READONLY, DATA
  4 .ram_vector_table 00000110  20000000  20000000  00007000  2**2
                  ALLOC
  5 .uninitialized_data 00000000  20000110  20000110  000068bc  2**0
                  CONTENTS
  6 .data         000004e4  20000110  100043c4  00006110  2**3
                  CONTENTS, ALLOC, LOAD, READONLY, CODE
  7 .tdata        00000000  200005f4  200005f4  000068bc  2**0
                  CONTENTS, ALLOC, LOAD, DATA, THREAD_LOCAL
  8 .tbss         00000000  200005f4  200005f4  00000000  2**0
                  ALLOC, THREAD_LOCAL
  9 .bss          0000044c  200005f8  100048a8  000075f8  2**3
                  ALLOC
 10 .heap         00000800  20000a44  20000a44  000068bc  2**2
                  CONTENTS, READONLY
 11 .scratch_x    00000000  20080000  20080000  000070bc  2**0
                  CONTENTS
 12 .scratch_y    00000000  20081000  20081000  000070bc  2**0
                  CONTENTS
 13 .stack_dummy  00000800  20081000  20081000  000070c0  2**5
                  CONTENTS, READONLY
 14 .flash_end    00000014  100048a8  100048a8  000068a8  2**2
                  CONTENTS, ALLOC, LOAD, READONLY, DATA
 15 .ARM.attributes 00000034  00000000  00000000  000078c0  2**0
                  CONTENTS, READONLY
 16 .comment      00000045  00000000  00000000  000078f4  2**0
                  CONTENTS, READONLY
 17 .debug_info   0002be7c  00000000  00000000  00007939  2**0
                  CONTENTS, READONLY, DEBUGGING, OCTETS
 18 .debug_abbrev 00007327  00000000  00000000  000337b5  2**0
                  CONTENTS, READONLY, DEBUGGING, OCTETS
 19 .debug_loclists 0001496c  00000000  00000000  0003aadc  2**0
                  CONTENTS, READONLY, DEBUGGING, OCTETS
 20 .debug_aranges 00000f70  00000000  00000000  0004f448  2**3
                  CONTENTS, READONLY, DEBUGGING, OCTETS
 21 .debug_rnglists 00003cc7  00000000  00000000  000503b8  2**0
                  CONTENTS, READONLY, DEBUGGING, OCTETS
 22 .debug_line   0001b951  00000000  00000000  0005407f  2**0
                  CONTENTS, READONLY, DEBUGGING, OCTETS
 23 .debug_str    0000834c  00000000  00000000  0006f9d0  2**0
                  CONTENTS, READONLY, DEBUGGING, OCTETS
 24 .debug_frame  000029e0  00000000  00000000  00077d1c  2**2
                  CONTENTS, READONLY, DEBUGGING, OCTETS
 25 .debug_line_str 00000290  00000000  00000000  0007a6fc  2**0
                  CONTENTS, READONLY, DEBUGGING, OCTETS

C:/Users/pete/Documents/pico/PiTest/build/blink.elf:     file format elf32-littlearm


Disassembly of section .text:

10000000 <__VECTOR_TABLE>:
10000000:	20082000 	.word	0x20082000
10000004:	1000015d 	.word	0x1000015d
10000008:	10000113 	.word	0x10000113
1000000c:	10000115 	.word	0x10000115
10000010:	10000111 	.word	0x10000111
10000014:	10000111 	.word	0x10000111
10000018:	10000111 	.word	0x10000111
1000001c:	10000111 	.word	0x10000111
10000020:	10000111 	.word	0x10000111
10000024:	10000111 	.word	0x10000111
10000028:	10000111 	.word	0x10000111
1000002c:	10000117 	.word	0x10000117
10000030:	10000111 	.word	0x10000111
10000034:	10000111 	.word	0x10000111
10000038:	10000119 	.word	0x10000119
1000003c:	1000011b 	.word	0x1000011b
10000040:	1000011d 	.word	0x1000011d
10000044:	1000011d 	.word	0x1000011d
10000048:	1000011d 	.word	0x1000011d
1000004c:	1000011d 	.word	0x1000011d
10000050:	1000011d 	.word	0x1000011d
10000054:	1000011d 	.word	0x1000011d
10000058:	1000011d 	.word	0x1000011d
1000005c:	1000011d 	.word	0x1000011d
10000060:	1000011d 	.word	0x1000011d
10000064:	1000011d 	.word	0x1000011d
10000068:	1000011d 	.word	0x1000011d
1000006c:	1000011d 	.word	0x1000011d
10000070:	1000011d 	.word	0x1000011d
10000074:	1000011d 	.word	0x1000011d
10000078:	1000011d 	.word	0x1000011d
1000007c:	1000011d 	.word	0x1000011d
10000080:	1000011d 	.word	0x1000011d
10000084:	1000011d 	.word	0x1000011d
10000088:	1000011d 	.word	0x1000011d
1000008c:	1000011d 	.word	0x1000011d
10000090:	1000011d 	.word	0x1000011d
10000094:	1000011d 	.word	0x1000011d
10000098:	1000011d 	.word	0x1000011d
1000009c:	1000011d 	.word	0x1000011d
100000a0:	1000011d 	.word	0x1000011d
100000a4:	1000011d 	.word	0x1000011d
100000a8:	1000011d 	.word	0x1000011d
100000ac:	1000011d 	.word	0x1000011d
100000b0:	1000011d 	.word	0x1000011d
100000b4:	1000011d 	.word	0x1000011d
100000b8:	1000011d 	.word	0x1000011d
100000bc:	1000011d 	.word	0x1000011d
100000c0:	1000011d 	.word	0x1000011d
100000c4:	1000011d 	.word	0x1000011d
100000c8:	1000011d 	.word	0x1000011d
100000cc:	1000011d 	.word	0x1000011d
100000d0:	1000011d 	.word	0x1000011d
100000d4:	1000011d 	.word	0x1000011d
100000d8:	1000011d 	.word	0x1000011d
100000dc:	1000011d 	.word	0x1000011d
100000e0:	1000011d 	.word	0x1000011d
100000e4:	1000011d 	.word	0x1000011d
100000e8:	1000011d 	.word	0x1000011d
100000ec:	1000011d 	.word	0x1000011d
100000f0:	1000011d 	.word	0x1000011d
100000f4:	1000011d 	.word	0x1000011d
100000f8:	1000011d 	.word	0x1000011d
100000fc:	1000011d 	.word	0x1000011d
10000100:	1000011d 	.word	0x1000011d
10000104:	1000011d 	.word	0x1000011d
10000108:	1000011d 	.word	0x1000011d
1000010c:	1000011d 	.word	0x1000011d

10000110 <isr_invalid>:
10000110:	be00      	bkpt	0x0000

10000112 <isr_nmi>:
10000112:	be00      	bkpt	0x0000

10000114 <isr_hardfault>:
10000114:	be00      	bkpt	0x0000

10000116 <isr_svcall>:
10000116:	be00      	bkpt	0x0000

10000118 <isr_pendsv>:
10000118:	be00      	bkpt	0x0000

1000011a <isr_systick>:
1000011a:	be00      	bkpt	0x0000

1000011c <__unhandled_user_irq>:
1000011c:	f3ef 8005 	mrs	r0, IPSR
10000120:	3810      	subs	r0, #16

10000122 <unhandled_user_irq_num_in_r0>:
10000122:	be00      	bkpt	0x0000

10000124 <binary_info_header>:
10000124:	7188ebf2 	.word	0x7188ebf2
10000128:	10004394 	.word	0x10004394
1000012c:	100043c4 	.word	0x100043c4
10000130:	100001a8 	.word	0x100001a8
10000134:	e71aa390 	.word	0xe71aa390

10000138 <__binary_info_header_end>:
10000138:	ffffded3 	.word	0xffffded3
1000013c:	10210142 	.word	0x10210142
10000140:	000001ff 	.word	0x000001ff
10000144:	00004770 	.word	0x00004770
10000148:	ab123579 	.word	0xab123579

1000014c <_entry_point>:
1000014c:	f04f 0000 	mov.w	r0, #0

10000150 <_enter_vtable_in_r0>:
10000150:	4920      	ldr	r1, [pc, #128]	@ (100001d4 <data_cpy_table+0x2c>)
10000152:	6008      	str	r0, [r1, #0]
10000154:	c806      	ldmia	r0!, {r1, r2}
10000156:	f381 8808 	msr	MSP, r1
1000015a:	4710      	bx	r2

1000015c <_reset_handler>:
1000015c:	f04f 4050 	mov.w	r0, #3489660928	@ 0xd0000000
10000160:	6800      	ldr	r0, [r0, #0]
10000162:	b110      	cbz	r0, 1000016a <hold_non_core0_in_bootrom+0x6>

10000164 <hold_non_core0_in_bootrom>:
10000164:	f04f 0000 	mov.w	r0, #0
10000168:	e7f2      	b.n	10000150 <_enter_vtable_in_r0>
1000016a:	a40f      	add	r4, pc, #60	@ (adr r4, 100001a8 <data_cpy_table>)
1000016c:	cc0e      	ldmia	r4!, {r1, r2, r3}
1000016e:	2900      	cmp	r1, #0
10000170:	d002      	beq.n	10000178 <hold_non_core0_in_bootrom+0x14>
10000172:	f000 f815 	bl	100001a0 <data_cpy>
10000176:	e7f9      	b.n	1000016c <hold_non_core0_in_bootrom+0x8>
10000178:	4917      	ldr	r1, [pc, #92]	@ (100001d8 <data_cpy_table+0x30>)
1000017a:	4a18      	ldr	r2, [pc, #96]	@ (100001dc <data_cpy_table+0x34>)
1000017c:	2000      	movs	r0, #0
1000017e:	e000      	b.n	10000182 <bss_fill_test>

10000180 <bss_fill_loop>:
10000180:	c101      	stmia	r1!, {r0}

10000182 <bss_fill_test>:
10000182:	4291      	cmp	r1, r2
10000184:	d1fc      	bne.n	10000180 <bss_fill_loop>

10000186 <platform_entry>:
10000186:	2000      	movs	r0, #0
10000188:	f380 880a 	msr	MSPLIM, r0
1000018c:	4914      	ldr	r1, [pc, #80]	@ (100001e0 <data_cpy_table+0x38>)
1000018e:	4788      	blx	r1
10000190:	4914      	ldr	r1, [pc, #80]	@ (100001e4 <data_cpy_table+0x3c>)
10000192:	4788      	blx	r1
10000194:	4914      	ldr	r1, [pc, #80]	@ (100001e8 <data_cpy_table+0x40>)
10000196:	4788      	blx	r1
10000198:	be00      	bkpt	0x0000
1000019a:	e7fd      	b.n	10000198 <platform_entry+0x12>

1000019c <data_cpy_loop>:
1000019c:	c901      	ldmia	r1!, {r0}
1000019e:	c201      	stmia	r2!, {r0}

100001a0 <data_cpy>:
100001a0:	429a      	cmp	r2, r3
100001a2:	d3fb      	bcc.n	1000019c <data_cpy_loop>
100001a4:	4770      	bx	lr
100001a6:	bf00      	nop

100001a8 <data_cpy_table>:
100001a8:	100043c4 	.word	0x100043c4
100001ac:	20000110 	.word	0x20000110
100001b0:	200005f4 	.word	0x200005f4
100001b4:	100048a8 	.word	0x100048a8
100001b8:	20080000 	.word	0x20080000
100001bc:	20080000 	.word	0x20080000
100001c0:	100048a8 	.word	0x100048a8
100001c4:	20081000 	.word	0x20081000
100001c8:	20081000 	.word	0x20081000
100001cc:	00000000 	.word	0x00000000
100001d0:	4770      	bx	lr
100001d2:	0000      	.short	0x0000
100001d4:	e000ed08 	.word	0xe000ed08
100001d8:	200005f4 	.word	0x200005f4
100001dc:	20000a44 	.word	0x20000a44
100001e0:	100033d5 	.word	0x100033d5
100001e4:	10000279 	.word	0x10000279
100001e8:	100033cd 	.word	0x100033cd

100001ec <_init>:
100001ec:	b5f8      	push	{r3, r4, r5, r6, r7, lr}
100001ee:	bf00      	nop

100001f0 <register_tm_clones>:
100001f0:	4b06      	ldr	r3, [pc, #24]	@ (1000020c <register_tm_clones+0x1c>)
100001f2:	4907      	ldr	r1, [pc, #28]	@ (10000210 <register_tm_clones+0x20>)
100001f4:	1ac9      	subs	r1, r1, r3
100001f6:	1089      	asrs	r1, r1, #2
100001f8:	bf48      	it	mi
100001fa:	3101      	addmi	r1, #1
100001fc:	1049      	asrs	r1, r1, #1
100001fe:	d003      	beq.n	10000208 <register_tm_clones+0x18>
10000200:	4b04      	ldr	r3, [pc, #16]	@ (10000214 <register_tm_clones+0x24>)
10000202:	b10b      	cbz	r3, 10000208 <register_tm_clones+0x18>
10000204:	4801      	ldr	r0, [pc, #4]	@ (1000020c <register_tm_clones+0x1c>)
10000206:	4718      	bx	r3
10000208:	4770      	bx	lr
1000020a:	bf00      	nop
1000020c:	200005f4 	.word	0x200005f4
10000210:	200005f4 	.word	0x200005f4
10000214:	00000000 	.word	0x00000000

10000218 <frame_dummy>:
10000218:	b508      	push	{r3, lr}
1000021a:	4b05      	ldr	r3, [pc, #20]	@ (10000230 <frame_dummy+0x18>)
1000021c:	b11b      	cbz	r3, 10000226 <frame_dummy+0xe>
1000021e:	4905      	ldr	r1, [pc, #20]	@ (10000234 <frame_dummy+0x1c>)
10000220:	4805      	ldr	r0, [pc, #20]	@ (10000238 <frame_dummy+0x20>)
10000222:	f3af 8000 	nop.w
10000226:	e8bd 4008 	ldmia.w	sp!, {r3, lr}
1000022a:	f7ff bfe1 	b.w	100001f0 <register_tm_clones>
1000022e:	bf00      	nop
10000230:	00000000 	.word	0x00000000
10000234:	200009b4 	.word	0x200009b4
10000238:	100040c0 	.word	0x100040c0

1000023c <pico_I2C_init>:
1000023c:	b508      	push	{r3, lr}
1000023e:	490c      	ldr	r1, [pc, #48]	@ (10000270 <pico_I2C_init+0x34>)
10000240:	480c      	ldr	r0, [pc, #48]	@ (10000274 <pico_I2C_init+0x38>)
10000242:	f003 fcb5 	bl	10003bb0 <i2c_init>
10000246:	2103      	movs	r1, #3
10000248:	2004      	movs	r0, #4
1000024a:	f000 fb43 	bl	100008d4 <gpio_set_function>
1000024e:	2103      	movs	r1, #3
10000250:	2005      	movs	r0, #5
10000252:	f000 fb3f 	bl	100008d4 <gpio_set_function>
10000256:	2200      	movs	r2, #0
10000258:	2101      	movs	r1, #1
1000025a:	2004      	movs	r0, #4
1000025c:	f000 fb58 	bl	10000910 <gpio_set_pulls>
10000260:	2200      	movs	r2, #0
10000262:	2101      	movs	r1, #1
10000264:	2005      	movs	r0, #5
10000266:	f000 fb53 	bl	10000910 <gpio_set_pulls>
1000026a:	2000      	movs	r0, #0
1000026c:	bd08      	pop	{r3, pc}
1000026e:	bf00      	nop
10000270:	05f5e100 	.word	0x05f5e100
10000274:	200005e4 	.word	0x200005e4

10000278 <main>:
10000278:	e92d 4ff0 	stmdb	sp!, {r4, r5, r6, r7, r8, r9, sl, fp, lr}
1000027c:	2019      	movs	r0, #25
1000027e:	f5ad 7d75 	sub.w	sp, sp, #980	@ 0x3d4
10000282:	f000 fb59 	bl	10000938 <gpio_init>
10000286:	2319      	movs	r3, #25
10000288:	f04f 0201 	mov.w	r2, #1
1000028c:	ec42 3044 	gpioc_bit_oe_put r3, r2
10000290:	f7ff ffd4 	bl	1000023c <pico_I2C_init>
10000294:	2800      	cmp	r0, #0
10000296:	f040 82e9 	bne.w	1000086c <main+0x5f4>
1000029a:	f003 f9c7 	bl	1000362c <stdio_init_all>
1000029e:	2465      	movs	r4, #101	@ 0x65
100002a0:	e004      	b.n	100002ac <main+0x34>
100002a2:	3c01      	subs	r4, #1
100002a4:	d007      	beq.n	100002b6 <main+0x3e>
100002a6:	2064      	movs	r0, #100	@ 0x64
100002a8:	f001 f8cc 	bl	10001444 <sleep_ms>
100002ac:	2000      	movs	r0, #0
100002ae:	f003 fcd3 	bl	10003c58 <tud_cdc_n_connected>
100002b2:	2800      	cmp	r0, #0
100002b4:	d0f5      	beq.n	100002a2 <main+0x2a>
100002b6:	48b8      	ldr	r0, [pc, #736]	@ (10000598 <main+0x320>)
100002b8:	f003 fa46 	bl	10003748 <__wrap_puts>
100002bc:	f001 f966 	bl	1000158c <time_us_64>
100002c0:	460b      	mov	r3, r1
100002c2:	223c      	movs	r2, #60	@ 0x3c
100002c4:	2100      	movs	r1, #0
100002c6:	9008      	str	r0, [sp, #32]
100002c8:	a822      	add	r0, sp, #136	@ 0x88
100002ca:	9309      	str	r3, [sp, #36]	@ 0x24
100002cc:	f003 fcf2 	bl	10003cb4 <memset>
100002d0:	f001 f95c 	bl	1000158c <time_us_64>
100002d4:	460b      	mov	r3, r1
100002d6:	223c      	movs	r2, #60	@ 0x3c
100002d8:	2100      	movs	r1, #0
100002da:	9006      	str	r0, [sp, #24]
100002dc:	a831      	add	r0, sp, #196	@ 0xc4
100002de:	9307      	str	r3, [sp, #28]
100002e0:	f003 fce8 	bl	10003cb4 <memset>
100002e4:	f001 f952 	bl	1000158c <time_us_64>
100002e8:	460b      	mov	r3, r1
100002ea:	223c      	movs	r2, #60	@ 0x3c
100002ec:	2100      	movs	r1, #0
100002ee:	901c      	str	r0, [sp, #112]	@ 0x70
100002f0:	a840      	add	r0, sp, #256	@ 0x100
100002f2:	931d      	str	r3, [sp, #116]	@ 0x74
100002f4:	f003 fcde 	bl	10003cb4 <memset>
100002f8:	f001 f948 	bl	1000158c <time_us_64>
100002fc:	460b      	mov	r3, r1
100002fe:	223c      	movs	r2, #60	@ 0x3c
10000300:	2100      	movs	r1, #0
10000302:	900a      	str	r0, [sp, #40]	@ 0x28
10000304:	a84f      	add	r0, sp, #316	@ 0x13c
10000306:	930b      	str	r3, [sp, #44]	@ 0x2c
10000308:	f003 fcd4 	bl	10003cb4 <memset>
1000030c:	f001 f93e 	bl	1000158c <time_us_64>
10000310:	460b      	mov	r3, r1
10000312:	223c      	movs	r2, #60	@ 0x3c
10000314:	2100      	movs	r1, #0
10000316:	900c      	str	r0, [sp, #48]	@ 0x30
10000318:	a85e      	add	r0, sp, #376	@ 0x178
1000031a:	930d      	str	r3, [sp, #52]	@ 0x34
1000031c:	f003 fcca 	bl	10003cb4 <memset>
10000320:	f001 f934 	bl	1000158c <time_us_64>
10000324:	460b      	mov	r3, r1
10000326:	223c      	movs	r2, #60	@ 0x3c
10000328:	2100      	movs	r1, #0
1000032a:	900e      	str	r0, [sp, #56]	@ 0x38
1000032c:	a86d      	add	r0, sp, #436	@ 0x1b4
1000032e:	930f      	str	r3, [sp, #60]	@ 0x3c
10000330:	f003 fcc0 	bl	10003cb4 <memset>
10000334:	f001 f92a 	bl	1000158c <time_us_64>
10000338:	460b      	mov	r3, r1
1000033a:	223c      	movs	r2, #60	@ 0x3c
1000033c:	2100      	movs	r1, #0
1000033e:	9010      	str	r0, [sp, #64]	@ 0x40
10000340:	a87c      	add	r0, sp, #496	@ 0x1f0
10000342:	9311      	str	r3, [sp, #68]	@ 0x44
10000344:	f003 fcb6 	bl	10003cb4 <memset>
10000348:	f001 f920 	bl	1000158c <time_us_64>
1000034c:	460b      	mov	r3, r1
1000034e:	223c      	movs	r2, #60	@ 0x3c
10000350:	2100      	movs	r1, #0
10000352:	9012      	str	r0, [sp, #72]	@ 0x48
10000354:	a88b      	add	r0, sp, #556	@ 0x22c
10000356:	9313      	str	r3, [sp, #76]	@ 0x4c
10000358:	f003 fcac 	bl	10003cb4 <memset>
1000035c:	f001 f916 	bl	1000158c <time_us_64>
10000360:	460b      	mov	r3, r1
10000362:	223c      	movs	r2, #60	@ 0x3c
10000364:	2100      	movs	r1, #0
10000366:	9014      	str	r0, [sp, #80]	@ 0x50
10000368:	a89a      	add	r0, sp, #616	@ 0x268
1000036a:	9315      	str	r3, [sp, #84]	@ 0x54
1000036c:	f003 fca2 	bl	10003cb4 <memset>
10000370:	f001 f90c 	bl	1000158c <time_us_64>
10000374:	460b      	mov	r3, r1
10000376:	223c      	movs	r2, #60	@ 0x3c
10000378:	2100      	movs	r1, #0
1000037a:	9016      	str	r0, [sp, #88]	@ 0x58
1000037c:	a8a9      	add	r0, sp, #676	@ 0x2a4
1000037e:	9317      	str	r3, [sp, #92]	@ 0x5c
10000380:	f003 fc98 	bl	10003cb4 <memset>
10000384:	f001 f902 	bl	1000158c <time_us_64>
10000388:	460b      	mov	r3, r1
1000038a:	223c      	movs	r2, #60	@ 0x3c
1000038c:	2100      	movs	r1, #0
1000038e:	9018      	str	r0, [sp, #96]	@ 0x60
10000390:	a8b8      	add	r0, sp, #736	@ 0x2e0
10000392:	9319      	str	r3, [sp, #100]	@ 0x64
10000394:	f003 fc8e 	bl	10003cb4 <memset>
10000398:	f001 f8f8 	bl	1000158c <time_us_64>
1000039c:	460b      	mov	r3, r1
1000039e:	223c      	movs	r2, #60	@ 0x3c
100003a0:	2100      	movs	r1, #0
100003a2:	901e      	str	r0, [sp, #120]	@ 0x78
100003a4:	a8c7      	add	r0, sp, #796	@ 0x31c
100003a6:	931f      	str	r3, [sp, #124]	@ 0x7c
100003a8:	f003 fc84 	bl	10003cb4 <memset>
100003ac:	f001 f8ee 	bl	1000158c <time_us_64>
100003b0:	460b      	mov	r3, r1
100003b2:	223c      	movs	r2, #60	@ 0x3c
100003b4:	2100      	movs	r1, #0
100003b6:	901a      	str	r0, [sp, #104]	@ 0x68
100003b8:	a8d6      	add	r0, sp, #856	@ 0x358
100003ba:	931b      	str	r3, [sp, #108]	@ 0x6c
100003bc:	f003 fc7a 	bl	10003cb4 <memset>
100003c0:	f001 f8e4 	bl	1000158c <time_us_64>
100003c4:	460b      	mov	r3, r1
100003c6:	9004      	str	r0, [sp, #16]
100003c8:	223c      	movs	r2, #60	@ 0x3c
100003ca:	2100      	movs	r1, #0
100003cc:	a8e5      	add	r0, sp, #916	@ 0x394
100003ce:	9305      	str	r3, [sp, #20]
100003d0:	2600      	movs	r6, #0
100003d2:	f003 fc6f 	bl	10003cb4 <memset>
100003d6:	4f71      	ldr	r7, [pc, #452]	@ (1000059c <main+0x324>)
100003d8:	f8df 91dc 	ldr.w	r9, [pc, #476]	@ 100005b8 <main+0x340>
100003dc:	e0b7      	b.n	1000054e <main+0x2d6>
100003de:	f001 f8d5 	bl	1000158c <time_us_64>
100003e2:	9a06      	ldr	r2, [sp, #24]
100003e4:	4b6e      	ldr	r3, [pc, #440]	@ (100005a0 <main+0x328>)
100003e6:	1a80      	subs	r0, r0, r2
100003e8:	9a07      	ldr	r2, [sp, #28]
100003ea:	eb61 0102 	sbc.w	r1, r1, r2
100003ee:	4283      	cmp	r3, r0
100003f0:	eb76 0101 	sbcs.w	r1, r6, r1
100003f4:	f2c0 8149 	blt.w	1000068a <main+0x412>
100003f8:	f001 f8c8 	bl	1000158c <time_us_64>
100003fc:	9b1c      	ldr	r3, [sp, #112]	@ 0x70
100003fe:	1ac0      	subs	r0, r0, r3
10000400:	9b1d      	ldr	r3, [sp, #116]	@ 0x74
10000402:	eb61 0103 	sbc.w	r1, r1, r3
10000406:	4287      	cmp	r7, r0
10000408:	eb76 0101 	sbcs.w	r1, r6, r1
1000040c:	f2c0 817f 	blt.w	1000070e <main+0x496>
10000410:	f001 f8bc 	bl	1000158c <time_us_64>
10000414:	9b0a      	ldr	r3, [sp, #40]	@ 0x28
10000416:	1ac0      	subs	r0, r0, r3
10000418:	9b0b      	ldr	r3, [sp, #44]	@ 0x2c
1000041a:	eb61 0103 	sbc.w	r1, r1, r3
1000041e:	4287      	cmp	r7, r0
10000420:	eb76 0101 	sbcs.w	r1, r6, r1
10000424:	f2c0 813b 	blt.w	1000069e <main+0x426>
10000428:	f001 f8b0 	bl	1000158c <time_us_64>
1000042c:	9b0c      	ldr	r3, [sp, #48]	@ 0x30
1000042e:	1ac0      	subs	r0, r0, r3
10000430:	9b0d      	ldr	r3, [sp, #52]	@ 0x34
10000432:	eb61 0103 	sbc.w	r1, r1, r3
10000436:	4287      	cmp	r7, r0
10000438:	eb76 0101 	sbcs.w	r1, r6, r1
1000043c:	f2c0 811b 	blt.w	10000676 <main+0x3fe>
10000440:	f001 f8a4 	bl	1000158c <time_us_64>
10000444:	9b0e      	ldr	r3, [sp, #56]	@ 0x38
10000446:	1ac0      	subs	r0, r0, r3
10000448:	9b0f      	ldr	r3, [sp, #60]	@ 0x3c
1000044a:	eb61 0103 	sbc.w	r1, r1, r3
1000044e:	4287      	cmp	r7, r0
10000450:	eb76 0101 	sbcs.w	r1, r6, r1
10000454:	f2c0 8105 	blt.w	10000662 <main+0x3ea>
10000458:	f001 f898 	bl	1000158c <time_us_64>
1000045c:	9b10      	ldr	r3, [sp, #64]	@ 0x40
1000045e:	1ac0      	subs	r0, r0, r3
10000460:	9b11      	ldr	r3, [sp, #68]	@ 0x44
10000462:	eb61 0103 	sbc.w	r1, r1, r3
10000466:	4287      	cmp	r7, r0
10000468:	eb76 0101 	sbcs.w	r1, r6, r1
1000046c:	f2c0 80ee 	blt.w	1000064c <main+0x3d4>
10000470:	f001 f88c 	bl	1000158c <time_us_64>
10000474:	9b12      	ldr	r3, [sp, #72]	@ 0x48
10000476:	1ac0      	subs	r0, r0, r3
10000478:	9b13      	ldr	r3, [sp, #76]	@ 0x4c
1000047a:	eb61 0103 	sbc.w	r1, r1, r3
1000047e:	4287      	cmp	r7, r0
10000480:	eb76 0101 	sbcs.w	r1, r6, r1
10000484:	f2c0 80d4 	blt.w	10000630 <main+0x3b8>
10000488:	f001 f880 	bl	1000158c <time_us_64>
1000048c:	9b14      	ldr	r3, [sp, #80]	@ 0x50
1000048e:	1ac0      	subs	r0, r0, r3
10000490:	9b15      	ldr	r3, [sp, #84]	@ 0x54
10000492:	eb61 0103 	sbc.w	r1, r1, r3
10000496:	4287      	cmp	r7, r0
10000498:	eb76 0101 	sbcs.w	r1, r6, r1
1000049c:	f2c0 80ba 	blt.w	10000614 <main+0x39c>
100004a0:	f001 f874 	bl	1000158c <time_us_64>
100004a4:	9b16      	ldr	r3, [sp, #88]	@ 0x58
100004a6:	1ac0      	subs	r0, r0, r3
100004a8:	9b17      	ldr	r3, [sp, #92]	@ 0x5c
100004aa:	eb61 0103 	sbc.w	r1, r1, r3
100004ae:	4287      	cmp	r7, r0
100004b0:	eb76 0101 	sbcs.w	r1, r6, r1
100004b4:	f2c0 80a0 	blt.w	100005f8 <main+0x380>
100004b8:	f001 f868 	bl	1000158c <time_us_64>
100004bc:	9b18      	ldr	r3, [sp, #96]	@ 0x60
100004be:	1ac0      	subs	r0, r0, r3
100004c0:	9b19      	ldr	r3, [sp, #100]	@ 0x64
100004c2:	eb61 0103 	sbc.w	r1, r1, r3
100004c6:	4287      	cmp	r7, r0
100004c8:	eb76 0101 	sbcs.w	r1, r6, r1
100004cc:	f2c0 8086 	blt.w	100005dc <main+0x364>
100004d0:	f001 f85c 	bl	1000158c <time_us_64>
100004d4:	9b1e      	ldr	r3, [sp, #120]	@ 0x78
100004d6:	1ac0      	subs	r0, r0, r3
100004d8:	9b1f      	ldr	r3, [sp, #124]	@ 0x7c
100004da:	eb61 0103 	sbc.w	r1, r1, r3
100004de:	4287      	cmp	r7, r0
100004e0:	eb76 0101 	sbcs.w	r1, r6, r1
100004e4:	db6a      	blt.n	100005bc <main+0x344>
100004e6:	f001 f851 	bl	1000158c <time_us_64>
100004ea:	9b1a      	ldr	r3, [sp, #104]	@ 0x68
100004ec:	1ac0      	subs	r0, r0, r3
100004ee:	9b1b      	ldr	r3, [sp, #108]	@ 0x6c
100004f0:	eb61 0103 	sbc.w	r1, r1, r3
100004f4:	4287      	cmp	r7, r0
100004f6:	eb76 0101 	sbcs.w	r1, r6, r1
100004fa:	db42      	blt.n	10000582 <main+0x30a>
100004fc:	f001 f846 	bl	1000158c <time_us_64>
10000500:	9b04      	ldr	r3, [sp, #16]
10000502:	1ac0      	subs	r0, r0, r3
10000504:	9b05      	ldr	r3, [sp, #20]
10000506:	eb61 0103 	sbc.w	r1, r1, r3
1000050a:	4287      	cmp	r7, r0
1000050c:	eb76 0101 	sbcs.w	r1, r6, r1
10000510:	da1a      	bge.n	10000548 <main+0x2d0>
10000512:	f001 f83b 	bl	1000158c <time_us_64>
10000516:	4603      	mov	r3, r0
10000518:	2000      	movs	r0, #0
1000051a:	e9cd 3104 	strd	r3, r1, [sp, #16]
1000051e:	f003 f88b 	bl	10003638 <stdio_getchar_timeout_us>
10000522:	4b20      	ldr	r3, [pc, #128]	@ (100005a4 <main+0x32c>)
10000524:	681b      	ldr	r3, [r3, #0]
10000526:	2b00      	cmp	r3, #0
10000528:	f340 80ed 	ble.w	10000706 <main+0x48e>
1000052c:	1c81      	adds	r1, r0, #2
1000052e:	f000 8170 	beq.w	10000812 <main+0x59a>
10000532:	4a1d      	ldr	r2, [pc, #116]	@ (100005a8 <main+0x330>)
10000534:	54d0      	strb	r0, [r2, r3]
10000536:	4a1b      	ldr	r2, [pc, #108]	@ (100005a4 <main+0x32c>)
10000538:	3301      	adds	r3, #1
1000053a:	6013      	str	r3, [r2, #0]
1000053c:	4b1b      	ldr	r3, [pc, #108]	@ (100005ac <main+0x334>)
1000053e:	4a1a      	ldr	r2, [pc, #104]	@ (100005a8 <main+0x330>)
10000540:	491b      	ldr	r1, [pc, #108]	@ (100005b0 <main+0x338>)
10000542:	a8e5      	add	r0, sp, #916	@ 0x394
10000544:	f002 fefe 	bl	10003344 <__wrap_sprintf>
10000548:	2064      	movs	r0, #100	@ 0x64
1000054a:	f000 ff7b 	bl	10001444 <sleep_ms>
1000054e:	f001 f81d 	bl	1000158c <time_us_64>
10000552:	9b08      	ldr	r3, [sp, #32]
10000554:	1ac0      	subs	r0, r0, r3
10000556:	9b09      	ldr	r3, [sp, #36]	@ 0x24
10000558:	eb61 0103 	sbc.w	r1, r1, r3
1000055c:	4287      	cmp	r7, r0
1000055e:	eb76 0101 	sbcs.w	r1, r6, r1
10000562:	f6bf af3c 	bge.w	100003de <main+0x166>
10000566:	f001 f811 	bl	1000158c <time_us_64>
1000056a:	2319      	movs	r3, #25
1000056c:	f04f 0201 	mov.w	r2, #1
10000570:	e9cd 0108 	strd	r0, r1, [sp, #32]
10000574:	ec42 3040 	gpioc_bit_out_put r3, r2
10000578:	f001 f808 	bl	1000158c <time_us_64>
1000057c:	e9cd 0106 	strd	r0, r1, [sp, #24]
10000580:	e72d      	b.n	100003de <main+0x166>
10000582:	f001 f803 	bl	1000158c <time_us_64>
10000586:	4b0b      	ldr	r3, [pc, #44]	@ (100005b4 <main+0x33c>)
10000588:	e9cd 011a 	strd	r0, r1, [sp, #104]	@ 0x68
1000058c:	e893 0003 	ldmia.w	r3, {r0, r1}
10000590:	90d6      	str	r0, [sp, #856]	@ 0x358
10000592:	f88d 135c 	strb.w	r1, [sp, #860]	@ 0x35c
10000596:	e7b1      	b.n	100004fc <main+0x284>
10000598:	100040d0 	.word	0x100040d0
1000059c:	000f423f 	.word	0x000f423f
100005a0:	0007a11f 	.word	0x0007a11f
100005a4:	200009cc 	.word	0x200009cc
100005a8:	20000944 	.word	0x20000944
100005ac:	200009f0 	.word	0x200009f0
100005b0:	100041c8 	.word	0x100041c8
100005b4:	10004188 	.word	0x10004188
100005b8:	100040c8 	.word	0x100040c8
100005bc:	4bad      	ldr	r3, [pc, #692]	@ (10000874 <main+0x5fc>)
100005be:	f04f 0200 	mov.w	r2, #0
100005c2:	601e      	str	r6, [r3, #0]
100005c4:	2306      	movs	r3, #6
100005c6:	ec42 3040 	gpioc_bit_out_put r3, r2
100005ca:	4bab      	ldr	r3, [pc, #684]	@ (10000878 <main+0x600>)
100005cc:	acc7      	add	r4, sp, #796	@ 0x31c
100005ce:	cb0f      	ldmia	r3, {r0, r1, r2, r3}
100005d0:	c407      	stmia	r4!, {r0, r1, r2}
100005d2:	f824 3b02 	strh.w	r3, [r4], #2
100005d6:	0c1b      	lsrs	r3, r3, #16
100005d8:	7023      	strb	r3, [r4, #0]
100005da:	e784      	b.n	100004e6 <main+0x26e>
100005dc:	f000 ffd6 	bl	1000158c <time_us_64>
100005e0:	4ba6      	ldr	r3, [pc, #664]	@ (1000087c <main+0x604>)
100005e2:	e9cd 0118 	strd	r0, r1, [sp, #96]	@ 0x60
100005e6:	e893 0003 	ldmia.w	r3, {r0, r1}
100005ea:	f8ad 12e4 	strh.w	r1, [sp, #740]	@ 0x2e4
100005ee:	0c09      	lsrs	r1, r1, #16
100005f0:	90b8      	str	r0, [sp, #736]	@ 0x2e0
100005f2:	f88d 12e6 	strb.w	r1, [sp, #742]	@ 0x2e6
100005f6:	e76b      	b.n	100004d0 <main+0x258>
100005f8:	f000 ffc8 	bl	1000158c <time_us_64>
100005fc:	4ba0      	ldr	r3, [pc, #640]	@ (10000880 <main+0x608>)
100005fe:	e9cd 0116 	strd	r0, r1, [sp, #88]	@ 0x58
10000602:	e893 0003 	ldmia.w	r3, {r0, r1}
10000606:	f8ad 12a8 	strh.w	r1, [sp, #680]	@ 0x2a8
1000060a:	0c09      	lsrs	r1, r1, #16
1000060c:	90a9      	str	r0, [sp, #676]	@ 0x2a4
1000060e:	f88d 12aa 	strb.w	r1, [sp, #682]	@ 0x2aa
10000612:	e751      	b.n	100004b8 <main+0x240>
10000614:	f000 ffba 	bl	1000158c <time_us_64>
10000618:	4b9a      	ldr	r3, [pc, #616]	@ (10000884 <main+0x60c>)
1000061a:	e9cd 0114 	strd	r0, r1, [sp, #80]	@ 0x50
1000061e:	e893 0003 	ldmia.w	r3, {r0, r1}
10000622:	f8ad 126c 	strh.w	r1, [sp, #620]	@ 0x26c
10000626:	0c09      	lsrs	r1, r1, #16
10000628:	909a      	str	r0, [sp, #616]	@ 0x268
1000062a:	f88d 126e 	strb.w	r1, [sp, #622]	@ 0x26e
1000062e:	e737      	b.n	100004a0 <main+0x228>
10000630:	f000 ffac 	bl	1000158c <time_us_64>
10000634:	4b94      	ldr	r3, [pc, #592]	@ (10000888 <main+0x610>)
10000636:	e9cd 0112 	strd	r0, r1, [sp, #72]	@ 0x48
1000063a:	e893 0003 	ldmia.w	r3, {r0, r1}
1000063e:	f8ad 1230 	strh.w	r1, [sp, #560]	@ 0x230
10000642:	0c09      	lsrs	r1, r1, #16
10000644:	908b      	str	r0, [sp, #556]	@ 0x22c
10000646:	f88d 1232 	strb.w	r1, [sp, #562]	@ 0x232
1000064a:	e71d      	b.n	10000488 <main+0x210>
1000064c:	f000 ff9e 	bl	1000158c <time_us_64>
10000650:	4b8e      	ldr	r3, [pc, #568]	@ (1000088c <main+0x614>)
10000652:	e9cd 0110 	strd	r0, r1, [sp, #64]	@ 0x40
10000656:	e893 0003 	ldmia.w	r3, {r0, r1}
1000065a:	907c      	str	r0, [sp, #496]	@ 0x1f0
1000065c:	f8ad 11f4 	strh.w	r1, [sp, #500]	@ 0x1f4
10000660:	e706      	b.n	10000470 <main+0x1f8>
10000662:	f000 ff93 	bl	1000158c <time_us_64>
10000666:	4a8a      	ldr	r2, [pc, #552]	@ (10000890 <main+0x618>)
10000668:	ab6d      	add	r3, sp, #436	@ 0x1b4
1000066a:	900e      	str	r0, [sp, #56]	@ 0x38
1000066c:	910f      	str	r1, [sp, #60]	@ 0x3c
1000066e:	ca07      	ldmia	r2, {r0, r1, r2}
10000670:	c303      	stmia	r3!, {r0, r1}
10000672:	801a      	strh	r2, [r3, #0]
10000674:	e6f0      	b.n	10000458 <main+0x1e0>
10000676:	f000 ff89 	bl	1000158c <time_us_64>
1000067a:	4a86      	ldr	r2, [pc, #536]	@ (10000894 <main+0x61c>)
1000067c:	ab5e      	add	r3, sp, #376	@ 0x178
1000067e:	900c      	str	r0, [sp, #48]	@ 0x30
10000680:	910d      	str	r1, [sp, #52]	@ 0x34
10000682:	ca07      	ldmia	r2, {r0, r1, r2}
10000684:	c303      	stmia	r3!, {r0, r1}
10000686:	801a      	strh	r2, [r3, #0]
10000688:	e6da      	b.n	10000440 <main+0x1c8>
1000068a:	f000 ff7f 	bl	1000158c <time_us_64>
1000068e:	2319      	movs	r3, #25
10000690:	f04f 0200 	mov.w	r2, #0
10000694:	e9cd 0106 	strd	r0, r1, [sp, #24]
10000698:	ec42 3040 	gpioc_bit_out_put r3, r2
1000069c:	e6ac      	b.n	100003f8 <main+0x180>
1000069e:	f000 ff75 	bl	1000158c <time_us_64>
100006a2:	4a7d      	ldr	r2, [pc, #500]	@ (10000898 <main+0x620>)
100006a4:	ab4f      	add	r3, sp, #316	@ 0x13c
100006a6:	900a      	str	r0, [sp, #40]	@ 0x28
100006a8:	910b      	str	r1, [sp, #44]	@ 0x2c
100006aa:	ca07      	ldmia	r2, {r0, r1, r2}
100006ac:	c303      	stmia	r3!, {r0, r1}
100006ae:	a8c7      	add	r0, sp, #796	@ 0x31c
100006b0:	701a      	strb	r2, [r3, #0]
100006b2:	f003 f8cb 	bl	1000384c <__wrap_printf>
100006b6:	a8e5      	add	r0, sp, #916	@ 0x394
100006b8:	f003 f8c8 	bl	1000384c <__wrap_printf>
100006bc:	a84f      	add	r0, sp, #316	@ 0x13c
100006be:	f003 f8c5 	bl	1000384c <__wrap_printf>
100006c2:	a840      	add	r0, sp, #256	@ 0x100
100006c4:	f003 f8c2 	bl	1000384c <__wrap_printf>
100006c8:	a831      	add	r0, sp, #196	@ 0xc4
100006ca:	f003 f8bf 	bl	1000384c <__wrap_printf>
100006ce:	a822      	add	r0, sp, #136	@ 0x88
100006d0:	f003 f8bc 	bl	1000384c <__wrap_printf>
100006d4:	a89a      	add	r0, sp, #616	@ 0x268
100006d6:	f003 f8b9 	bl	1000384c <__wrap_printf>
100006da:	a8a9      	add	r0, sp, #676	@ 0x2a4
100006dc:	f003 f8b6 	bl	1000384c <__wrap_printf>
100006e0:	a8b8      	add	r0, sp, #736	@ 0x2e0
100006e2:	f003 f8b3 	bl	1000384c <__wrap_printf>
100006e6:	a86d      	add	r0, sp, #436	@ 0x1b4
100006e8:	f003 f8b0 	bl	1000384c <__wrap_printf>
100006ec:	a85e      	add	r0, sp, #376	@ 0x178
100006ee:	f003 f8ad 	bl	1000384c <__wrap_printf>
100006f2:	a87c      	add	r0, sp, #496	@ 0x1f0
100006f4:	f003 f8aa 	bl	1000384c <__wrap_printf>
100006f8:	a88b      	add	r0, sp, #556	@ 0x22c
100006fa:	f003 f8a7 	bl	1000384c <__wrap_printf>
100006fe:	a8d6      	add	r0, sp, #856	@ 0x358
10000700:	f003 f8a4 	bl	1000384c <__wrap_printf>
10000704:	e690      	b.n	10000428 <main+0x1b0>
10000706:	1c82      	adds	r2, r0, #2
10000708:	f47f af13 	bne.w	10000532 <main+0x2ba>
1000070c:	e716      	b.n	1000053c <main+0x2c4>
1000070e:	f000 ff3d 	bl	1000158c <time_us_64>
10000712:	4603      	mov	r3, r0
10000714:	2401      	movs	r4, #1
10000716:	4861      	ldr	r0, [pc, #388]	@ (1000089c <main+0x624>)
10000718:	e9cd 311c 	strd	r3, r1, [sp, #112]	@ 0x70
1000071c:	f003 f814 	bl	10003748 <__wrap_puts>
10000720:	485f      	ldr	r0, [pc, #380]	@ (100008a0 <main+0x628>)
10000722:	f003 f811 	bl	10003748 <__wrap_puts>
10000726:	2100      	movs	r1, #0
10000728:	485e      	ldr	r0, [pc, #376]	@ (100008a4 <main+0x62c>)
1000072a:	f003 f88f 	bl	1000384c <__wrap_printf>
1000072e:	202e      	movs	r0, #46	@ 0x2e
10000730:	f002 ffc8 	bl	100036c4 <__wrap_putchar>
10000734:	485c      	ldr	r0, [pc, #368]	@ (100008a8 <main+0x630>)
10000736:	f003 f889 	bl	1000384c <__wrap_printf>
1000073a:	46a2      	mov	sl, r4
1000073c:	4625      	mov	r5, r4
1000073e:	f8df 8190 	ldr.w	r8, [pc, #400]	@ 100008d0 <main+0x658>
10000742:	f8df b164 	ldr.w	fp, [pc, #356]	@ 100008a8 <main+0x630>
10000746:	e02f      	b.n	100007a8 <main+0x530>
10000748:	2b78      	cmp	r3, #120	@ 0x78
1000074a:	d030      	beq.n	100007ae <main+0x536>
1000074c:	f000 ff1e 	bl	1000158c <time_us_64>
10000750:	f242 7310 	movw	r3, #10000	@ 0x2710
10000754:	18c0      	adds	r0, r0, r3
10000756:	f141 0300 	adc.w	r3, r1, #0
1000075a:	f04f 31ff 	mov.w	r1, #4294967295
1000075e:	f06f 4200 	mvn.w	r2, #2147483648	@ 0x80000000
10000762:	4281      	cmp	r1, r0
10000764:	eb72 0c03 	sbcs.w	ip, r2, r3
10000768:	bf3c      	itt	cc
1000076a:	4608      	movcc	r0, r1
1000076c:	4613      	movcc	r3, r2
1000076e:	4651      	mov	r1, sl
10000770:	e9cd 0302 	strd	r0, r3, [sp, #8]
10000774:	9600      	str	r6, [sp, #0]
10000776:	2301      	movs	r3, #1
10000778:	484c      	ldr	r0, [pc, #304]	@ (100008ac <main+0x634>)
1000077a:	f10d 0287 	add.w	r2, sp, #135	@ 0x87
1000077e:	f003 fa3d 	bl	10003bfc <i2c_read_blocking_until>
10000782:	2800      	cmp	r0, #0
10000784:	db13      	blt.n	100007ae <main+0x536>
10000786:	484a      	ldr	r0, [pc, #296]	@ (100008b0 <main+0x638>)
10000788:	f003 f860 	bl	1000384c <__wrap_printf>
1000078c:	2d0f      	cmp	r5, #15
1000078e:	d113      	bne.n	100007b8 <main+0x540>
10000790:	4648      	mov	r0, r9
10000792:	3401      	adds	r4, #1
10000794:	f003 f85a 	bl	1000384c <__wrap_printf>
10000798:	2c80      	cmp	r4, #128	@ 0x80
1000079a:	f43f ae39 	beq.w	10000410 <main+0x198>
1000079e:	f014 050f 	ands.w	r5, r4, #15
100007a2:	fa5f fa84 	uxtb.w	sl, r4
100007a6:	d009      	beq.n	100007bc <main+0x544>
100007a8:	f01a 0378 	ands.w	r3, sl, #120	@ 0x78
100007ac:	d1cc      	bne.n	10000748 <main+0x4d0>
100007ae:	4640      	mov	r0, r8
100007b0:	f003 f84c 	bl	1000384c <__wrap_printf>
100007b4:	2d0f      	cmp	r5, #15
100007b6:	d0eb      	beq.n	10000790 <main+0x518>
100007b8:	4658      	mov	r0, fp
100007ba:	e7ea      	b.n	10000792 <main+0x51a>
100007bc:	4621      	mov	r1, r4
100007be:	4839      	ldr	r0, [pc, #228]	@ (100008a4 <main+0x62c>)
100007c0:	f003 f844 	bl	1000384c <__wrap_printf>
100007c4:	f000 fee2 	bl	1000158c <time_us_64>
100007c8:	f242 7310 	movw	r3, #10000	@ 0x2710
100007cc:	f04f 32ff 	mov.w	r2, #4294967295
100007d0:	18c0      	adds	r0, r0, r3
100007d2:	f06f 4300 	mvn.w	r3, #2147483648	@ 0x80000000
100007d6:	f141 0100 	adc.w	r1, r1, #0
100007da:	4282      	cmp	r2, r0
100007dc:	eb73 0501 	sbcs.w	r5, r3, r1
100007e0:	bf3c      	itt	cc
100007e2:	4610      	movcc	r0, r2
100007e4:	4619      	movcc	r1, r3
100007e6:	9600      	str	r6, [sp, #0]
100007e8:	e9cd 0102 	strd	r0, r1, [sp, #8]
100007ec:	2301      	movs	r3, #1
100007ee:	4651      	mov	r1, sl
100007f0:	482e      	ldr	r0, [pc, #184]	@ (100008ac <main+0x634>)
100007f2:	f10d 0287 	add.w	r2, sp, #135	@ 0x87
100007f6:	f003 fa01 	bl	10003bfc <i2c_read_blocking_until>
100007fa:	2800      	cmp	r0, #0
100007fc:	db04      	blt.n	10000808 <main+0x590>
100007fe:	2040      	movs	r0, #64	@ 0x40
10000800:	f002 ff60 	bl	100036c4 <__wrap_putchar>
10000804:	4658      	mov	r0, fp
10000806:	e7c4      	b.n	10000792 <main+0x51a>
10000808:	202e      	movs	r0, #46	@ 0x2e
1000080a:	f002 ff5b 	bl	100036c4 <__wrap_putchar>
1000080e:	4658      	mov	r0, fp
10000810:	e7bf      	b.n	10000792 <main+0x51a>
10000812:	4a28      	ldr	r2, [pc, #160]	@ (100008b4 <main+0x63c>)
10000814:	54d6      	strb	r6, [r2, r3]
10000816:	4b28      	ldr	r3, [pc, #160]	@ (100008b8 <main+0x640>)
10000818:	601e      	str	r6, [r3, #0]
1000081a:	6813      	ldr	r3, [r2, #0]
1000081c:	4a27      	ldr	r2, [pc, #156]	@ (100008bc <main+0x644>)
1000081e:	4293      	cmp	r3, r2
10000820:	d009      	beq.n	10000836 <main+0x5be>
10000822:	4927      	ldr	r1, [pc, #156]	@ (100008c0 <main+0x648>)
10000824:	4823      	ldr	r0, [pc, #140]	@ (100008b4 <main+0x63c>)
10000826:	f003 fa97 	bl	10003d58 <strcmp>
1000082a:	2800      	cmp	r0, #0
1000082c:	f47f ae86 	bne.w	1000053c <main+0x2c4>
10000830:	4b10      	ldr	r3, [pc, #64]	@ (10000874 <main+0x5fc>)
10000832:	6018      	str	r0, [r3, #0]
10000834:	e682      	b.n	1000053c <main+0x2c4>
10000836:	4b1f      	ldr	r3, [pc, #124]	@ (100008b4 <main+0x63c>)
10000838:	4a22      	ldr	r2, [pc, #136]	@ (100008c4 <main+0x64c>)
1000083a:	685b      	ldr	r3, [r3, #4]
1000083c:	4293      	cmp	r3, r2
1000083e:	d1f0      	bne.n	10000822 <main+0x5aa>
10000840:	f04f 0c01 	mov.w	ip, #1
10000844:	4b0b      	ldr	r3, [pc, #44]	@ (10000874 <main+0x5fc>)
10000846:	4c20      	ldr	r4, [pc, #128]	@ (100008c8 <main+0x650>)
10000848:	4d20      	ldr	r5, [pc, #128]	@ (100008cc <main+0x654>)
1000084a:	f8c3 c000 	str.w	ip, [r3]
1000084e:	cd0f      	ldmia	r5!, {r0, r1, r2, r3}
10000850:	c40f      	stmia	r4!, {r0, r1, r2, r3}
10000852:	e895 0007 	ldmia.w	r5, {r0, r1, r2}
10000856:	c403      	stmia	r4!, {r0, r1}
10000858:	f04f 0e06 	mov.w	lr, #6
1000085c:	7022      	strb	r2, [r4, #0]
1000085e:	ec4c e040 	gpioc_bit_out_put lr, ip
10000862:	f000 fe93 	bl	1000158c <time_us_64>
10000866:	e9cd 011e 	strd	r0, r1, [sp, #120]	@ 0x78
1000086a:	e7da      	b.n	10000822 <main+0x5aa>
1000086c:	f001 f85a 	bl	10001924 <hard_assertion_failure>
10000870:	e513      	b.n	1000029a <main+0x22>
10000872:	bf00      	nop
10000874:	20000934 	.word	0x20000934
10000878:	10004178 	.word	0x10004178
1000087c:	10004170 	.word	0x10004170
10000880:	10004168 	.word	0x10004168
10000884:	10004160 	.word	0x10004160
10000888:	10004158 	.word	0x10004158
1000088c:	10004150 	.word	0x10004150
10000890:	10004144 	.word	0x10004144
10000894:	10004138 	.word	0x10004138
10000898:	1000412c 	.word	0x1000412c
1000089c:	100040ec 	.word	0x100040ec
100008a0:	100040fc 	.word	0x100040fc
100008a4:	10004124 	.word	0x10004124
100008a8:	100040cc 	.word	0x100040cc
100008ac:	200005e4 	.word	0x200005e4
100008b0:	100040c4 	.word	0x100040c4
100008b4:	20000944 	.word	0x20000944
100008b8:	200009cc 	.word	0x200009cc
100008bc:	4e525542 	.word	0x4e525542
100008c0:	100041b4 	.word	0x100041b4
100008c4:	004e4f5f 	.word	0x004e4f5f
100008c8:	200009f0 	.word	0x200009f0
100008cc:	10004198 	.word	0x10004198
100008d0:	100040c0 	.word	0x100040c0

100008d4 <gpio_set_function>:
100008d4:	b410      	push	{r4}
100008d6:	f44f 7480 	mov.w	r4, #256	@ 0x100
100008da:	4b0c      	ldr	r3, [pc, #48]	@ (1000090c <gpio_set_function+0x38>)
100008dc:	f853 2020 	ldr.w	r2, [r3, r0, lsl #2]
100008e0:	eb03 0380 	add.w	r3, r3, r0, lsl #2
100008e4:	00c0      	lsls	r0, r0, #3
100008e6:	f082 0240 	eor.w	r2, r2, #64	@ 0x40
100008ea:	f100 4080 	add.w	r0, r0, #1073741824	@ 0x40000000
100008ee:	f503 5c80 	add.w	ip, r3, #4096	@ 0x1000
100008f2:	f002 02c0 	and.w	r2, r2, #192	@ 0xc0
100008f6:	f500 3020 	add.w	r0, r0, #163840	@ 0x28000
100008fa:	f503 5340 	add.w	r3, r3, #12288	@ 0x3000
100008fe:	f8cc 2000 	str.w	r2, [ip]
10000902:	6041      	str	r1, [r0, #4]
10000904:	601c      	str	r4, [r3, #0]
10000906:	f85d 4b04 	ldr.w	r4, [sp], #4
1000090a:	4770      	bx	lr
1000090c:	40038004 	.word	0x40038004

10000910 <gpio_set_pulls>:
10000910:	b410      	push	{r4}
10000912:	4c08      	ldr	r4, [pc, #32]	@ (10000934 <gpio_set_pulls+0x24>)
10000914:	00c9      	lsls	r1, r1, #3
10000916:	ea41 0182 	orr.w	r1, r1, r2, lsl #2
1000091a:	f854 2020 	ldr.w	r2, [r4, r0, lsl #2]
1000091e:	eb04 0380 	add.w	r3, r4, r0, lsl #2
10000922:	4051      	eors	r1, r2
10000924:	f503 5380 	add.w	r3, r3, #4096	@ 0x1000
10000928:	f001 010c 	and.w	r1, r1, #12
1000092c:	f85d 4b04 	ldr.w	r4, [sp], #4
10000930:	6019      	str	r1, [r3, #0]
10000932:	4770      	bx	lr
10000934:	40038004 	.word	0x40038004

10000938 <gpio_init>:
10000938:	b430      	push	{r4, r5}
1000093a:	f04f 0300 	mov.w	r3, #0
1000093e:	ec43 0044 	gpioc_bit_oe_put r0, r3
10000942:	ec43 0040 	gpioc_bit_out_put r0, r3
10000946:	2505      	movs	r5, #5
10000948:	f44f 7480 	mov.w	r4, #256	@ 0x100
1000094c:	4b0b      	ldr	r3, [pc, #44]	@ (1000097c <gpio_init+0x44>)
1000094e:	00c2      	lsls	r2, r0, #3
10000950:	f853 1020 	ldr.w	r1, [r3, r0, lsl #2]
10000954:	eb03 0080 	add.w	r0, r3, r0, lsl #2
10000958:	f081 0140 	eor.w	r1, r1, #64	@ 0x40
1000095c:	f102 4380 	add.w	r3, r2, #1073741824	@ 0x40000000
10000960:	f503 3320 	add.w	r3, r3, #163840	@ 0x28000
10000964:	f001 02c0 	and.w	r2, r1, #192	@ 0xc0
10000968:	f500 5180 	add.w	r1, r0, #4096	@ 0x1000
1000096c:	f500 5040 	add.w	r0, r0, #12288	@ 0x3000
10000970:	600a      	str	r2, [r1, #0]
10000972:	605d      	str	r5, [r3, #4]
10000974:	6004      	str	r4, [r0, #0]
10000976:	bc30      	pop	{r4, r5}
10000978:	4770      	bx	lr
1000097a:	bf00      	nop
1000097c:	40038004 	.word	0x40038004

10000980 <panic>:
10000980:	b40f      	push	{r0, r1, r2, r3}
10000982:	b500      	push	{lr}
10000984:	b083      	sub	sp, #12
10000986:	9c04      	ldr	r4, [sp, #16]
10000988:	4807      	ldr	r0, [pc, #28]	@ (100009a8 <panic+0x28>)
1000098a:	f002 fedd 	bl	10003748 <__wrap_puts>
1000098e:	b13c      	cbz	r4, 100009a0 <panic+0x20>
10000990:	a905      	add	r1, sp, #20
10000992:	4620      	mov	r0, r4
10000994:	9101      	str	r1, [sp, #4]
10000996:	f002 fcff 	bl	10003398 <weak_raw_vprintf>
1000099a:	4804      	ldr	r0, [pc, #16]	@ (100009ac <panic+0x2c>)
1000099c:	f002 fed4 	bl	10003748 <__wrap_puts>
100009a0:	2001      	movs	r0, #1
100009a2:	f002 fd11 	bl	100033c8 <_exit>
100009a6:	bf00      	nop
100009a8:	100041f0 	.word	0x100041f0
100009ac:	100040c8 	.word	0x100040c8

100009b0 <hw_claim_or_assert>:
100009b0:	b570      	push	{r4, r5, r6, lr}
100009b2:	4686      	mov	lr, r0
100009b4:	f3ef 8510 	mrs	r5, PRIMASK
100009b8:	b672      	cpsid	i
100009ba:	4c12      	ldr	r4, [pc, #72]	@ (10000a04 <hw_claim_or_assert+0x54>)
100009bc:	e8d4 6fcf 	ldaexb	r6, [r4]
100009c0:	2001      	movs	r0, #1
100009c2:	2e00      	cmp	r6, #0
100009c4:	d1fa      	bne.n	100009bc <hw_claim_or_assert+0xc>
100009c6:	e8c4 0f46 	strexb	r6, r0, [r4]
100009ca:	2e00      	cmp	r6, #0
100009cc:	d1f6      	bne.n	100009bc <hw_claim_or_assert+0xc>
100009ce:	f3bf 8f5f 	dmb	sy
100009d2:	f04f 0c01 	mov.w	ip, #1
100009d6:	08c8      	lsrs	r0, r1, #3
100009d8:	f001 0307 	and.w	r3, r1, #7
100009dc:	fa0c f303 	lsl.w	r3, ip, r3
100009e0:	f81e c000 	ldrb.w	ip, [lr, r0]
100009e4:	ea1c 0603 	ands.w	r6, ip, r3
100009e8:	d108      	bne.n	100009fc <hw_claim_or_assert+0x4c>
100009ea:	ea4c 0c03 	orr.w	ip, ip, r3
100009ee:	f80e c000 	strb.w	ip, [lr, r0]
100009f2:	e8c4 6f8f 	stlb	r6, [r4]
100009f6:	f385 8810 	msr	PRIMASK, r5
100009fa:	bd70      	pop	{r4, r5, r6, pc}
100009fc:	4610      	mov	r0, r2
100009fe:	f7ff ffbf 	bl	10000980 <panic>
10000a02:	bf00      	nop
10000a04:	200008cb 	.word	0x200008cb

10000a08 <next_striped_spin_lock_num>:
10000a08:	4a04      	ldr	r2, [pc, #16]	@ (10000a1c <next_striped_spin_lock_num+0x14>)
10000a0a:	7810      	ldrb	r0, [r2, #0]
10000a0c:	1c43      	adds	r3, r0, #1
10000a0e:	b2db      	uxtb	r3, r3
10000a10:	2b18      	cmp	r3, #24
10000a12:	bf28      	it	cs
10000a14:	2310      	movcs	r3, #16
10000a16:	7013      	strb	r3, [r2, #0]
10000a18:	4770      	bx	lr
10000a1a:	bf00      	nop
10000a1c:	20000568 	.word	0x20000568

10000a20 <spinlock_set_extexclall>:
10000a20:	f04f 22e0 	mov.w	r2, #3758153728	@ 0xe000e000
10000a24:	6893      	ldr	r3, [r2, #8]
10000a26:	f043 5300 	orr.w	r3, r3, #536870912	@ 0x20000000
10000a2a:	6093      	str	r3, [r2, #8]
10000a2c:	4770      	bx	lr
10000a2e:	bf00      	nop

10000a30 <spin_locks_reset>:
10000a30:	2100      	movs	r1, #0
10000a32:	4b04      	ldr	r3, [pc, #16]	@ (10000a44 <spin_locks_reset+0x14>)
10000a34:	f103 0220 	add.w	r2, r3, #32
10000a38:	e8c3 1f8f 	stlb	r1, [r3]
10000a3c:	3301      	adds	r3, #1
10000a3e:	4293      	cmp	r3, r2
10000a40:	d1fa      	bne.n	10000a38 <spin_locks_reset+0x8>
10000a42:	4770      	bx	lr
10000a44:	200008c0 	.word	0x200008c0

10000a48 <runtime_init_per_core_irq_priorities>:
10000a48:	f04f 23e0 	mov.w	r3, #3758153728	@ 0xe000e000
10000a4c:	f04f 3280 	mov.w	r2, #2155905152	@ 0x80808080
10000a50:	f8c3 2400 	str.w	r2, [r3, #1024]	@ 0x400
10000a54:	f8c3 2404 	str.w	r2, [r3, #1028]	@ 0x404
10000a58:	f8c3 2408 	str.w	r2, [r3, #1032]	@ 0x408
10000a5c:	f8c3 240c 	str.w	r2, [r3, #1036]	@ 0x40c
10000a60:	f8c3 2410 	str.w	r2, [r3, #1040]	@ 0x410
10000a64:	f8c3 2414 	str.w	r2, [r3, #1044]	@ 0x414
10000a68:	f8c3 2418 	str.w	r2, [r3, #1048]	@ 0x418
10000a6c:	f8c3 241c 	str.w	r2, [r3, #1052]	@ 0x41c
10000a70:	f8c3 2420 	str.w	r2, [r3, #1056]	@ 0x420
10000a74:	f8c3 2424 	str.w	r2, [r3, #1060]	@ 0x424
10000a78:	f8c3 2428 	str.w	r2, [r3, #1064]	@ 0x428
10000a7c:	f8c3 242c 	str.w	r2, [r3, #1068]	@ 0x42c
10000a80:	f8c3 2430 	str.w	r2, [r3, #1072]	@ 0x430
10000a84:	4770      	bx	lr
10000a86:	bf00      	nop

10000a88 <irq_set_enabled>:
10000a88:	2301      	movs	r3, #1
10000a8a:	f000 021f 	and.w	r2, r0, #31
10000a8e:	4093      	lsls	r3, r2
10000a90:	0940      	lsrs	r0, r0, #5
10000a92:	b141      	cbz	r1, 10000aa6 <irq_set_enabled+0x1e>
10000a94:	0080      	lsls	r0, r0, #2
10000a96:	f100 4060 	add.w	r0, r0, #3758096384	@ 0xe0000000
10000a9a:	f500 4061 	add.w	r0, r0, #57600	@ 0xe100
10000a9e:	f8c0 3180 	str.w	r3, [r0, #384]	@ 0x180
10000aa2:	6003      	str	r3, [r0, #0]
10000aa4:	4770      	bx	lr
10000aa6:	4a02      	ldr	r2, [pc, #8]	@ (10000ab0 <irq_set_enabled+0x28>)
10000aa8:	3020      	adds	r0, #32
10000aaa:	f842 3020 	str.w	r3, [r2, r0, lsl #2]
10000aae:	4770      	bx	lr
10000ab0:	e000e100 	.word	0xe000e100

10000ab4 <irq_set_exclusive_handler>:
10000ab4:	b5f8      	push	{r3, r4, r5, r6, r7, lr}
10000ab6:	460d      	mov	r5, r1
10000ab8:	f3ef 8710 	mrs	r7, PRIMASK
10000abc:	b672      	cpsid	i
10000abe:	4e12      	ldr	r6, [pc, #72]	@ (10000b08 <irq_set_exclusive_handler+0x54>)
10000ac0:	e8d6 2fcf 	ldaexb	r2, [r6]
10000ac4:	2301      	movs	r3, #1
10000ac6:	2a00      	cmp	r2, #0
10000ac8:	d1fa      	bne.n	10000ac0 <irq_set_exclusive_handler+0xc>
10000aca:	e8c6 3f42 	strexb	r2, r3, [r6]
10000ace:	2a00      	cmp	r2, #0
10000ad0:	d1f6      	bne.n	10000ac0 <irq_set_exclusive_handler+0xc>
10000ad2:	f3bf 8f5f 	dmb	sy
10000ad6:	4b0d      	ldr	r3, [pc, #52]	@ (10000b0c <irq_set_exclusive_handler+0x58>)
10000ad8:	f100 0410 	add.w	r4, r0, #16
10000adc:	689b      	ldr	r3, [r3, #8]
10000ade:	4a0c      	ldr	r2, [pc, #48]	@ (10000b10 <irq_set_exclusive_handler+0x5c>)
10000ae0:	f853 3024 	ldr.w	r3, [r3, r4, lsl #2]
10000ae4:	4293      	cmp	r3, r2
10000ae6:	d003      	beq.n	10000af0 <irq_set_exclusive_handler+0x3c>
10000ae8:	4299      	cmp	r1, r3
10000aea:	d001      	beq.n	10000af0 <irq_set_exclusive_handler+0x3c>
10000aec:	f000 ff1a 	bl	10001924 <hard_assertion_failure>
10000af0:	4b06      	ldr	r3, [pc, #24]	@ (10000b0c <irq_set_exclusive_handler+0x58>)
10000af2:	689b      	ldr	r3, [r3, #8]
10000af4:	f843 5024 	str.w	r5, [r3, r4, lsl #2]
10000af8:	f3bf 8f5f 	dmb	sy
10000afc:	2300      	movs	r3, #0
10000afe:	e8c6 3f8f 	stlb	r3, [r6]
10000b02:	f387 8810 	msr	PRIMASK, r7
10000b06:	bdf8      	pop	{r3, r4, r5, r6, r7, pc}
10000b08:	200008c9 	.word	0x200008c9
10000b0c:	e000ed00 	.word	0xe000ed00
10000b10:	1000011d 	.word	0x1000011d

10000b14 <irq_remove_handler>:
10000b14:	e92d 4ff0 	stmdb	sp!, {r4, r5, r6, r7, r8, r9, sl, fp, lr}
10000b18:	b083      	sub	sp, #12
10000b1a:	f3ef 8a10 	mrs	sl, PRIMASK
10000b1e:	b672      	cpsid	i
10000b20:	4e74      	ldr	r6, [pc, #464]	@ (10000cf4 <irq_remove_handler+0x1e0>)
10000b22:	e8d6 2fcf 	ldaexb	r2, [r6]
10000b26:	2301      	movs	r3, #1
10000b28:	2a00      	cmp	r2, #0
10000b2a:	d1fa      	bne.n	10000b22 <irq_remove_handler+0xe>
10000b2c:	e8c6 3f42 	strexb	r2, r3, [r6]
10000b30:	2a00      	cmp	r2, #0
10000b32:	d1f6      	bne.n	10000b22 <irq_remove_handler+0xe>
10000b34:	f3bf 8f5f 	dmb	sy
10000b38:	4b6f      	ldr	r3, [pc, #444]	@ (10000cf8 <irq_remove_handler+0x1e4>)
10000b3a:	f100 0810 	add.w	r8, r0, #16
10000b3e:	689b      	ldr	r3, [r3, #8]
10000b40:	4a6e      	ldr	r2, [pc, #440]	@ (10000cfc <irq_remove_handler+0x1e8>)
10000b42:	f853 5028 	ldr.w	r5, [r3, r8, lsl #2]
10000b46:	4295      	cmp	r5, r2
10000b48:	d03f      	beq.n	10000bca <irq_remove_handler+0xb6>
10000b4a:	428d      	cmp	r5, r1
10000b4c:	460c      	mov	r4, r1
10000b4e:	d04a      	beq.n	10000be6 <irq_remove_handler+0xd2>
10000b50:	4f6b      	ldr	r7, [pc, #428]	@ (10000d00 <irq_remove_handler+0x1ec>)
10000b52:	1beb      	subs	r3, r5, r7
10000b54:	2b2f      	cmp	r3, #47	@ 0x2f
10000b56:	d838      	bhi.n	10000bca <irq_remove_handler+0xb6>
10000b58:	2101      	movs	r1, #1
10000b5a:	ea4f 1950 	mov.w	r9, r0, lsr #5
10000b5e:	ea4f 0989 	mov.w	r9, r9, lsl #2
10000b62:	f109 4960 	add.w	r9, r9, #3758096384	@ 0xe0000000
10000b66:	f509 4961 	add.w	r9, r9, #57600	@ 0xe100
10000b6a:	f000 031f 	and.w	r3, r0, #31
10000b6e:	fa01 f003 	lsl.w	r0, r1, r3
10000b72:	f8d9 3000 	ldr.w	r3, [r9]
10000b76:	f8c9 0080 	str.w	r0, [r9, #128]	@ 0x80
10000b7a:	ea00 0b03 	and.w	fp, r0, r3
10000b7e:	f3bf 8f5f 	dmb	sy
10000b82:	f3ef 8105 	mrs	r1, IPSR
10000b86:	b2c9      	uxtb	r1, r1
10000b88:	b379      	cbz	r1, 10000bea <irq_remove_handler+0xd6>
10000b8a:	4588      	cmp	r8, r1
10000b8c:	d177      	bne.n	10000c7e <irq_remove_handler+0x16a>
10000b8e:	f025 0e01 	bic.w	lr, r5, #1
10000b92:	f8de c008 	ldr.w	ip, [lr, #8]
10000b96:	4564      	cmp	r4, ip
10000b98:	d105      	bne.n	10000ba6 <irq_remove_handler+0x92>
10000b9a:	e07c      	b.n	10000c96 <irq_remove_handler+0x182>
10000b9c:	f8d3 c008 	ldr.w	ip, [r3, #8]
10000ba0:	4564      	cmp	r4, ip
10000ba2:	d032      	beq.n	10000c0a <irq_remove_handler+0xf6>
10000ba4:	469e      	mov	lr, r3
10000ba6:	f99e 2006 	ldrsb.w	r2, [lr, #6]
10000baa:	eb02 0342 	add.w	r3, r2, r2, lsl #1
10000bae:	2a00      	cmp	r2, #0
10000bb0:	eb07 0383 	add.w	r3, r7, r3, lsl #2
10000bb4:	daf2      	bge.n	10000b9c <irq_remove_handler+0x88>
10000bb6:	4564      	cmp	r4, ip
10000bb8:	f000 8081 	beq.w	10000cbe <irq_remove_handler+0x1aa>
10000bbc:	f1bb 0f00 	cmp.w	fp, #0
10000bc0:	d020      	beq.n	10000c04 <irq_remove_handler+0xf0>
10000bc2:	f8c9 0180 	str.w	r0, [r9, #384]	@ 0x180
10000bc6:	f8c9 0000 	str.w	r0, [r9]
10000bca:	4b4b      	ldr	r3, [pc, #300]	@ (10000cf8 <irq_remove_handler+0x1e4>)
10000bcc:	689b      	ldr	r3, [r3, #8]
10000bce:	f843 5028 	str.w	r5, [r3, r8, lsl #2]
10000bd2:	f3bf 8f5f 	dmb	sy
10000bd6:	2300      	movs	r3, #0
10000bd8:	e8c6 3f8f 	stlb	r3, [r6]
10000bdc:	f38a 8810 	msr	PRIMASK, sl
10000be0:	b003      	add	sp, #12
10000be2:	e8bd 8ff0 	ldmia.w	sp!, {r4, r5, r6, r7, r8, r9, sl, fp, pc}
10000be6:	4615      	mov	r5, r2
10000be8:	e7ef      	b.n	10000bca <irq_remove_handler+0xb6>
10000bea:	f025 0e01 	bic.w	lr, r5, #1
10000bee:	f8de c008 	ldr.w	ip, [lr, #8]
10000bf2:	4564      	cmp	r4, ip
10000bf4:	d1d7      	bne.n	10000ba6 <irq_remove_handler+0x92>
10000bf6:	f99e 4006 	ldrsb.w	r4, [lr, #6]
10000bfa:	4673      	mov	r3, lr
10000bfc:	2c00      	cmp	r4, #0
10000bfe:	da08      	bge.n	10000c12 <irq_remove_handler+0xfe>
10000c00:	4615      	mov	r5, r2
10000c02:	e066      	b.n	10000cd2 <irq_remove_handler+0x1be>
10000c04:	f8c9 0080 	str.w	r0, [r9, #128]	@ 0x80
10000c08:	e7df      	b.n	10000bca <irq_remove_handler+0xb6>
10000c0a:	f993 4006 	ldrsb.w	r4, [r3, #6]
10000c0e:	2c00      	cmp	r4, #0
10000c10:	db56      	blt.n	10000cc0 <irq_remove_handler+0x1ac>
10000c12:	eb04 0c44 	add.w	ip, r4, r4, lsl #1
10000c16:	eb07 0c8c 	add.w	ip, r7, ip, lsl #2
10000c1a:	f8dc 2008 	ldr.w	r2, [ip, #8]
10000c1e:	0061      	lsls	r1, r4, #1
10000c20:	609a      	str	r2, [r3, #8]
10000c22:	f89c 2007 	ldrb.w	r2, [ip, #7]
10000c26:	71da      	strb	r2, [r3, #7]
10000c28:	f99c 2006 	ldrsb.w	r2, [ip, #6]
10000c2c:	2a00      	cmp	r2, #0
10000c2e:	719a      	strb	r2, [r3, #6]
10000c30:	db5d      	blt.n	10000cee <irq_remove_handler+0x1da>
10000c32:	f8bc 2004 	ldrh.w	r2, [ip, #4]
10000c36:	0552      	lsls	r2, r2, #21
10000c38:	d504      	bpl.n	10000c44 <irq_remove_handler+0x130>
10000c3a:	f502 12ff 	add.w	r2, r2, #2088960	@ 0x1fe000
10000c3e:	f502 52ff 	add.w	r2, r2, #8160	@ 0x1fe0
10000c42:	321f      	adds	r2, #31
10000c44:	1552      	asrs	r2, r2, #21
10000c46:	f102 0c02 	add.w	ip, r2, #2
10000c4a:	f04f 0e04 	mov.w	lr, #4
10000c4e:	220c      	movs	r2, #12
10000c50:	fb12 e204 	smlabb	r2, r2, r4, lr
10000c54:	eb02 024c 	add.w	r2, r2, ip, lsl #1
10000c58:	f06f 0c07 	mvn.w	ip, #7
10000c5c:	443a      	add	r2, r7
10000c5e:	ebac 0c03 	sub.w	ip, ip, r3
10000c62:	4462      	add	r2, ip
10000c64:	f3c2 024a 	ubfx	r2, r2, #1, #11
10000c68:	f442 4260 	orr.w	r2, r2, #57344	@ 0xe000
10000c6c:	809a      	strh	r2, [r3, #4]
10000c6e:	4b25      	ldr	r3, [pc, #148]	@ (10000d04 <irq_remove_handler+0x1f0>)
10000c70:	4421      	add	r1, r4
10000c72:	781a      	ldrb	r2, [r3, #0]
10000c74:	eb07 0181 	add.w	r1, r7, r1, lsl #2
10000c78:	701c      	strb	r4, [r3, #0]
10000c7a:	718a      	strb	r2, [r1, #6]
10000c7c:	e79e      	b.n	10000bbc <irq_remove_handler+0xa8>
10000c7e:	e9cd 0100 	strd	r0, r1, [sp]
10000c82:	f000 fe4f 	bl	10001924 <hard_assertion_failure>
10000c86:	e9dd 0100 	ldrd	r0, r1, [sp]
10000c8a:	f025 0e01 	bic.w	lr, r5, #1
10000c8e:	f8de c008 	ldr.w	ip, [lr, #8]
10000c92:	4564      	cmp	r4, ip
10000c94:	d187      	bne.n	10000ba6 <irq_remove_handler+0x92>
10000c96:	f99e 4006 	ldrsb.w	r4, [lr, #6]
10000c9a:	4673      	mov	r3, lr
10000c9c:	2c00      	cmp	r4, #0
10000c9e:	dab8      	bge.n	10000c12 <irq_remove_handler+0xfe>
10000ca0:	4a19      	ldr	r2, [pc, #100]	@ (10000d08 <irq_remove_handler+0x1f4>)
10000ca2:	4c1a      	ldr	r4, [pc, #104]	@ (10000d0c <irq_remove_handler+0x1f8>)
10000ca4:	1ad2      	subs	r2, r2, r3
10000ca6:	3a08      	subs	r2, #8
10000ca8:	f3c2 310a 	ubfx	r1, r2, #12, #11
10000cac:	ea6f 5101 	mvn.w	r1, r1, lsl #20
10000cb0:	ea6f 5111 	mvn.w	r1, r1, lsr #20
10000cb4:	ea44 0252 	orr.w	r2, r4, r2, lsr #1
10000cb8:	80da      	strh	r2, [r3, #6]
10000cba:	8099      	strh	r1, [r3, #4]
10000cbc:	e77e      	b.n	10000bbc <irq_remove_handler+0xa8>
10000cbe:	4673      	mov	r3, lr
10000cc0:	2900      	cmp	r1, #0
10000cc2:	d1ed      	bne.n	10000ca0 <irq_remove_handler+0x18c>
10000cc4:	22ff      	movs	r2, #255	@ 0xff
10000cc6:	f88e 2006 	strb.w	r2, [lr, #6]
10000cca:	f64b 5201 	movw	r2, #48385	@ 0xbd01
10000cce:	f8ae 2004 	strh.w	r2, [lr, #4]
10000cd2:	4c0c      	ldr	r4, [pc, #48]	@ (10000d04 <irq_remove_handler+0x1f0>)
10000cd4:	f64a 22aa 	movw	r2, #43690	@ 0xaaaa
10000cd8:	f894 c000 	ldrb.w	ip, [r4]
10000cdc:	4619      	mov	r1, r3
10000cde:	1bc9      	subs	r1, r1, r7
10000ce0:	4149      	adcs	r1, r1
10000ce2:	434a      	muls	r2, r1
10000ce4:	0d12      	lsrs	r2, r2, #20
10000ce6:	f883 c006 	strb.w	ip, [r3, #6]
10000cea:	7022      	strb	r2, [r4, #0]
10000cec:	e766      	b.n	10000bbc <irq_remove_handler+0xa8>
10000cee:	f64b 5201 	movw	r2, #48385	@ 0xbd01
10000cf2:	e7bb      	b.n	10000c6c <irq_remove_handler+0x158>
10000cf4:	200008c9 	.word	0x200008c9
10000cf8:	e000ed00 	.word	0xe000ed00
10000cfc:	1000011d 	.word	0x1000011d
10000d00:	2000056c 	.word	0x2000056c
10000d04:	20000a40 	.word	0x20000a40
10000d08:	200005a6 	.word	0x200005a6
10000d0c:	fffff800 	.word	0xfffff800

10000d10 <irq_add_tail_to_free_list>:
10000d10:	b5f0      	push	{r4, r5, r6, r7, lr}
10000d12:	f3ef 8505 	mrs	r5, IPSR
10000d16:	b2ed      	uxtb	r5, r5
10000d18:	f3ef 8c10 	mrs	ip, PRIMASK
10000d1c:	b672      	cpsid	i
10000d1e:	4926      	ldr	r1, [pc, #152]	@ (10000db8 <irq_add_tail_to_free_list+0xa8>)
10000d20:	e8d1 2fcf 	ldaexb	r2, [r1]
10000d24:	2301      	movs	r3, #1
10000d26:	2a00      	cmp	r2, #0
10000d28:	d1fa      	bne.n	10000d20 <irq_add_tail_to_free_list+0x10>
10000d2a:	e8c1 3f42 	strexb	r2, r3, [r1]
10000d2e:	2a00      	cmp	r2, #0
10000d30:	d1f6      	bne.n	10000d20 <irq_add_tail_to_free_list+0x10>
10000d32:	f3bf 8f5f 	dmb	sy
10000d36:	4e21      	ldr	r6, [pc, #132]	@ (10000dbc <irq_add_tail_to_free_list+0xac>)
10000d38:	f040 0e01 	orr.w	lr, r0, #1
10000d3c:	68b4      	ldr	r4, [r6, #8]
10000d3e:	f64a 23aa 	movw	r3, #43690	@ 0xaaaa
10000d42:	f854 7025 	ldr.w	r7, [r4, r5, lsl #2]
10000d46:	4a1e      	ldr	r2, [pc, #120]	@ (10000dc0 <irq_add_tail_to_free_list+0xb0>)
10000d48:	4604      	mov	r4, r0
10000d4a:	1aa4      	subs	r4, r4, r2
10000d4c:	4164      	adcs	r4, r4
10000d4e:	4363      	muls	r3, r4
10000d50:	0d1b      	lsrs	r3, r3, #20
10000d52:	4577      	cmp	r7, lr
10000d54:	b25b      	sxtb	r3, r3
10000d56:	d01b      	beq.n	10000d90 <irq_add_tail_to_free_list+0x80>
10000d58:	f992 4006 	ldrsb.w	r4, [r2, #6]
10000d5c:	429c      	cmp	r4, r3
10000d5e:	d01c      	beq.n	10000d9a <irq_add_tail_to_free_list+0x8a>
10000d60:	f992 4012 	ldrsb.w	r4, [r2, #18]
10000d64:	429c      	cmp	r4, r3
10000d66:	d023      	beq.n	10000db0 <irq_add_tail_to_free_list+0xa0>
10000d68:	f992 401e 	ldrsb.w	r4, [r2, #30]
10000d6c:	429c      	cmp	r4, r3
10000d6e:	d021      	beq.n	10000db4 <irq_add_tail_to_free_list+0xa4>
10000d70:	f992 402a 	ldrsb.w	r4, [r2, #42]	@ 0x2a
10000d74:	429c      	cmp	r4, r3
10000d76:	bf08      	it	eq
10000d78:	2403      	moveq	r4, #3
10000d7a:	d00f      	beq.n	10000d9c <irq_add_tail_to_free_list+0x8c>
10000d7c:	4a11      	ldr	r2, [pc, #68]	@ (10000dc4 <irq_add_tail_to_free_list+0xb4>)
10000d7e:	2400      	movs	r4, #0
10000d80:	7815      	ldrb	r5, [r2, #0]
10000d82:	7013      	strb	r3, [r2, #0]
10000d84:	7185      	strb	r5, [r0, #6]
10000d86:	e8c1 4f8f 	stlb	r4, [r1]
10000d8a:	f38c 8810 	msr	PRIMASK, ip
10000d8e:	bdf0      	pop	{r4, r5, r6, r7, pc}
10000d90:	68b2      	ldr	r2, [r6, #8]
10000d92:	4c0d      	ldr	r4, [pc, #52]	@ (10000dc8 <irq_add_tail_to_free_list+0xb8>)
10000d94:	f842 4025 	str.w	r4, [r2, r5, lsl #2]
10000d98:	e7f0      	b.n	10000d7c <irq_add_tail_to_free_list+0x6c>
10000d9a:	2400      	movs	r4, #0
10000d9c:	eb04 0444 	add.w	r4, r4, r4, lsl #1
10000da0:	eb02 0284 	add.w	r2, r2, r4, lsl #2
10000da4:	24ff      	movs	r4, #255	@ 0xff
10000da6:	7194      	strb	r4, [r2, #6]
10000da8:	f64b 5401 	movw	r4, #48385	@ 0xbd01
10000dac:	8094      	strh	r4, [r2, #4]
10000dae:	e7e5      	b.n	10000d7c <irq_add_tail_to_free_list+0x6c>
10000db0:	2401      	movs	r4, #1
10000db2:	e7f3      	b.n	10000d9c <irq_add_tail_to_free_list+0x8c>
10000db4:	2402      	movs	r4, #2
10000db6:	e7f1      	b.n	10000d9c <irq_add_tail_to_free_list+0x8c>
10000db8:	200008c9 	.word	0x200008c9
10000dbc:	e000ed00 	.word	0xe000ed00
10000dc0:	2000056c 	.word	0x2000056c
10000dc4:	20000a40 	.word	0x20000a40
10000dc8:	1000011d 	.word	0x1000011d

10000dcc <lock_init>:
10000dcc:	4b01      	ldr	r3, [pc, #4]	@ (10000dd4 <lock_init+0x8>)
10000dce:	440b      	add	r3, r1
10000dd0:	6003      	str	r3, [r0, #0]
10000dd2:	4770      	bx	lr
10000dd4:	200008c0 	.word	0x200008c0

10000dd8 <runtime_init_mutex>:
10000dd8:	b570      	push	{r4, r5, r6, lr}
10000dda:	4c10      	ldr	r4, [pc, #64]	@ (10000e1c <runtime_init_mutex+0x44>)
10000ddc:	4d10      	ldr	r5, [pc, #64]	@ (10000e20 <runtime_init_mutex+0x48>)
10000dde:	42ac      	cmp	r4, r5
10000de0:	d20e      	bcs.n	10000e00 <runtime_init_mutex+0x28>
10000de2:	26ff      	movs	r6, #255	@ 0xff
10000de4:	6823      	ldr	r3, [r4, #0]
10000de6:	b163      	cbz	r3, 10000e02 <runtime_init_mutex+0x2a>
10000de8:	f7ff fe0e 	bl	10000a08 <next_striped_spin_lock_num>
10000dec:	4601      	mov	r1, r0
10000dee:	4620      	mov	r0, r4
10000df0:	f7ff ffec 	bl	10000dcc <lock_init>
10000df4:	80a6      	strh	r6, [r4, #4]
10000df6:	f3bf 8f5f 	dmb	sy
10000dfa:	3408      	adds	r4, #8
10000dfc:	42ac      	cmp	r4, r5
10000dfe:	d3f1      	bcc.n	10000de4 <runtime_init_mutex+0xc>
10000e00:	bd70      	pop	{r4, r5, r6, pc}
10000e02:	f7ff fe01 	bl	10000a08 <next_striped_spin_lock_num>
10000e06:	4601      	mov	r1, r0
10000e08:	4620      	mov	r0, r4
10000e0a:	f7ff ffdf 	bl	10000dcc <lock_init>
10000e0e:	7126      	strb	r6, [r4, #4]
10000e10:	f3bf 8f5f 	dmb	sy
10000e14:	3408      	adds	r4, #8
10000e16:	42ac      	cmp	r4, r5
10000e18:	d3e4      	bcc.n	10000de4 <runtime_init_mutex+0xc>
10000e1a:	bd70      	pop	{r4, r5, r6, pc}
10000e1c:	200005ec 	.word	0x200005ec
10000e20:	200005f4 	.word	0x200005f4

10000e24 <sleep_until_callback>:
10000e24:	4b0d      	ldr	r3, [pc, #52]	@ (10000e5c <sleep_until_callback+0x38>)
10000e26:	681a      	ldr	r2, [r3, #0]
10000e28:	f3ef 8110 	mrs	r1, PRIMASK
10000e2c:	b672      	cpsid	i
10000e2e:	e8d2 cfcf 	ldaexb	ip, [r2]
10000e32:	2001      	movs	r0, #1
10000e34:	f1bc 0f00 	cmp.w	ip, #0
10000e38:	d1f9      	bne.n	10000e2e <sleep_until_callback+0xa>
10000e3a:	e8c2 0f4c 	strexb	ip, r0, [r2]
10000e3e:	f1bc 0f00 	cmp.w	ip, #0
10000e42:	d1f4      	bne.n	10000e2e <sleep_until_callback+0xa>
10000e44:	f3bf 8f5f 	dmb	sy
10000e48:	2200      	movs	r2, #0
10000e4a:	681b      	ldr	r3, [r3, #0]
10000e4c:	e8c3 2f8f 	stlb	r2, [r3]
10000e50:	f381 8810 	msr	PRIMASK, r1
10000e54:	bf40      	sev
10000e56:	2000      	movs	r0, #0
10000e58:	2100      	movs	r1, #0
10000e5a:	4770      	bx	lr
10000e5c:	20000a34 	.word	0x20000a34

10000e60 <alarm_pool_irq_handler>:
10000e60:	e92d 4ff0 	stmdb	sp!, {r4, r5, r6, r7, r8, r9, sl, fp, lr}
10000e64:	ed2d 8b02 	vpush	{d8}
10000e68:	b085      	sub	sp, #20
10000e6a:	f3ef 8305 	mrs	r3, IPSR
10000e6e:	b2db      	uxtb	r3, r3
10000e70:	3b10      	subs	r3, #16
10000e72:	089a      	lsrs	r2, r3, #2
10000e74:	bf18      	it	ne
10000e76:	2201      	movne	r2, #1
10000e78:	f04f 0101 	mov.w	r1, #1
10000e7c:	f003 0003 	and.w	r0, r3, #3
10000e80:	bf18      	it	ne
10000e82:	4dab      	ldrne	r5, [pc, #684]	@ (10001130 <alarm_pool_irq_handler+0x2d0>)
10000e84:	4bab      	ldr	r3, [pc, #684]	@ (10001134 <alarm_pool_irq_handler+0x2d4>)
10000e86:	bf08      	it	eq
10000e88:	4dab      	ldreq	r5, [pc, #684]	@ (10001138 <alarm_pool_irq_handler+0x2d8>)
10000e8a:	eb00 0282 	add.w	r2, r0, r2, lsl #2
10000e8e:	fa01 fb00 	lsl.w	fp, r1, r0
10000e92:	f853 6022 	ldr.w	r6, [r3, r2, lsl #2]
10000e96:	f505 5341 	add.w	r3, r5, #12352	@ 0x3040
10000e9a:	ed9f 8ba3 	vldr	d8, [pc, #652]	@ 10001128 <alarm_pool_irq_handler+0x2c8>
10000e9e:	9001      	str	r0, [sp, #4]
10000ea0:	f8c3 b004 	str.w	fp, [r3, #4]
10000ea4:	f8cd b000 	str.w	fp, [sp]
10000ea8:	e02a      	b.n	10000f00 <alarm_pool_irq_handler+0xa0>
10000eaa:	88b3      	ldrh	r3, [r6, #4]
10000eac:	0418      	lsls	r0, r3, #16
10000eae:	f140 808c 	bpl.w	10000fca <alarm_pool_irq_handler+0x16a>
10000eb2:	79b3      	ldrb	r3, [r6, #6]
10000eb4:	2b00      	cmp	r3, #0
10000eb6:	f040 80d5 	bne.w	10001064 <alarm_pool_irq_handler+0x204>
10000eba:	f9b6 1008 	ldrsh.w	r1, [r6, #8]
10000ebe:	2900      	cmp	r1, #0
10000ec0:	f2c0 8115 	blt.w	100010ee <alarm_pool_irq_handler+0x28e>
10000ec4:	6973      	ldr	r3, [r6, #20]
10000ec6:	eb01 0141 	add.w	r1, r1, r1, lsl #1
10000eca:	eb03 03c1 	add.w	r3, r3, r1, lsl #3
10000ece:	e9d3 4702 	ldrd	r4, r7, [r3, #8]
10000ed2:	f1b7 3fff 	cmp.w	r7, #4294967295
10000ed6:	bf08      	it	eq
10000ed8:	f1b4 3fff 	cmpeq.w	r4, #4294967295
10000edc:	d009      	beq.n	10000ef2 <alarm_pool_irq_handler+0x92>
10000ede:	9b01      	ldr	r3, [sp, #4]
10000ee0:	eb05 0183 	add.w	r1, r5, r3, lsl #2
10000ee4:	6aab      	ldr	r3, [r5, #40]	@ 0x28
10000ee6:	690a      	ldr	r2, [r1, #16]
10000ee8:	1ad2      	subs	r2, r2, r3
10000eea:	1ae3      	subs	r3, r4, r3
10000eec:	4293      	cmp	r3, r2
10000eee:	bf38      	it	cc
10000ef0:	610c      	strcc	r4, [r1, #16]
10000ef2:	4628      	mov	r0, r5
10000ef4:	f000 fb42 	bl	1000157c <timer_time_us_64>
10000ef8:	42a0      	cmp	r0, r4
10000efa:	41b9      	sbcs	r1, r7
10000efc:	f2c0 80f7 	blt.w	100010ee <alarm_pool_irq_handler+0x28e>
10000f00:	f9b6 4008 	ldrsh.w	r4, [r6, #8]
10000f04:	9b00      	ldr	r3, [sp, #0]
10000f06:	2c00      	cmp	r4, #0
10000f08:	63eb      	str	r3, [r5, #60]	@ 0x3c
10000f0a:	dbce      	blt.n	10000eaa <alarm_pool_irq_handler+0x4a>
10000f0c:	f8d6 9014 	ldr.w	r9, [r6, #20]
10000f10:	eb04 0a44 	add.w	sl, r4, r4, lsl #1
10000f14:	4628      	mov	r0, r5
10000f16:	eb09 07ca 	add.w	r7, r9, sl, lsl #3
10000f1a:	e9d7 b802 	ldrd	fp, r8, [r7, #8]
10000f1e:	f000 fb2d 	bl	1000157c <timer_time_us_64>
10000f22:	4558      	cmp	r0, fp
10000f24:	eb71 0108 	sbcs.w	r1, r1, r8
10000f28:	dbbf      	blt.n	10000eaa <alarm_pool_irq_handler+0x4a>
10000f2a:	f1b8 0f00 	cmp.w	r8, #0
10000f2e:	f2c0 80c1 	blt.w	100010b4 <alarm_pool_irq_handler+0x254>
10000f32:	e9d7 3104 	ldrd	r3, r1, [r7, #16]
10000f36:	4a81      	ldr	r2, [pc, #516]	@ (1000113c <alarm_pool_irq_handler+0x2dc>)
10000f38:	4293      	cmp	r3, r2
10000f3a:	f000 80ea 	beq.w	10001112 <alarm_pool_irq_handler+0x2b2>
10000f3e:	887a      	ldrh	r2, [r7, #2]
10000f40:	f9b6 0008 	ldrsh.w	r0, [r6, #8]
10000f44:	b292      	uxth	r2, r2
10000f46:	ea42 4000 	orr.w	r0, r2, r0, lsl #16
10000f4a:	4798      	blx	r3
10000f4c:	4602      	mov	r2, r0
10000f4e:	460b      	mov	r3, r1
10000f50:	ea52 0103 	orrs.w	r1, r2, r3
10000f54:	f000 80ae 	beq.w	100010b4 <alarm_pool_irq_handler+0x254>
10000f58:	2b00      	cmp	r3, #0
10000f5a:	f280 80ce 	bge.w	100010fa <alarm_pool_irq_handler+0x29a>
10000f5e:	ebbb 0b02 	subs.w	fp, fp, r2
10000f62:	eb68 0803 	sbc.w	r8, r8, r3
10000f66:	f939 303a 	ldrsh.w	r3, [r9, sl, lsl #3]
10000f6a:	e9c7 b802 	strd	fp, r8, [r7, #8]
10000f6e:	2b00      	cmp	r3, #0
10000f70:	db9b      	blt.n	10000eaa <alarm_pool_irq_handler+0x4a>
10000f72:	6971      	ldr	r1, [r6, #20]
10000f74:	eb03 0243 	add.w	r2, r3, r3, lsl #1
10000f78:	eb01 02c2 	add.w	r2, r1, r2, lsl #3
10000f7c:	e9d2 7002 	ldrd	r7, r0, [r2, #8]
10000f80:	45bb      	cmp	fp, r7
10000f82:	eb78 0c00 	sbcs.w	ip, r8, r0
10000f86:	ea4f 0243 	mov.w	r2, r3, lsl #1
10000f8a:	db8e      	blt.n	10000eaa <alarm_pool_irq_handler+0x4a>
10000f8c:	46b4      	mov	ip, r6
10000f8e:	f82c 3f08 	strh.w	r3, [ip, #8]!
10000f92:	e00b      	b.n	10000fac <alarm_pool_irq_handler+0x14c>
10000f94:	f931 3032 	ldrsh.w	r3, [r1, r2, lsl #3]
10000f98:	46f4      	mov	ip, lr
10000f9a:	2b00      	cmp	r3, #0
10000f9c:	db0d      	blt.n	10000fba <alarm_pool_irq_handler+0x15a>
10000f9e:	eb03 0043 	add.w	r0, r3, r3, lsl #1
10000fa2:	eb01 00c0 	add.w	r0, r1, r0, lsl #3
10000fa6:	005a      	lsls	r2, r3, #1
10000fa8:	e9d0 7002 	ldrd	r7, r0, [r0, #8]
10000fac:	45bb      	cmp	fp, r7
10000fae:	441a      	add	r2, r3
10000fb0:	eb78 0000 	sbcs.w	r0, r8, r0
10000fb4:	eb01 0ec2 	add.w	lr, r1, r2, lsl #3
10000fb8:	daec      	bge.n	10000f94 <alarm_pool_irq_handler+0x134>
10000fba:	f829 303a 	strh.w	r3, [r9, sl, lsl #3]
10000fbe:	f8ac 4000 	strh.w	r4, [ip]
10000fc2:	88b3      	ldrh	r3, [r6, #4]
10000fc4:	0418      	lsls	r0, r3, #16
10000fc6:	f53f af74 	bmi.w	10000eb2 <alarm_pool_irq_handler+0x52>
10000fca:	6933      	ldr	r3, [r6, #16]
10000fcc:	f3ef 8210 	mrs	r2, PRIMASK
10000fd0:	b672      	cpsid	i
10000fd2:	e8d3 0fcf 	ldaexb	r0, [r3]
10000fd6:	2101      	movs	r1, #1
10000fd8:	2800      	cmp	r0, #0
10000fda:	d1fa      	bne.n	10000fd2 <alarm_pool_irq_handler+0x172>
10000fdc:	e8c3 1f40 	strexb	r0, r1, [r3]
10000fe0:	2800      	cmp	r0, #0
10000fe2:	d1f6      	bne.n	10000fd2 <alarm_pool_irq_handler+0x172>
10000fe4:	f3bf 8f5f 	dmb	sy
10000fe8:	f64f 74ff 	movw	r4, #65535	@ 0xffff
10000fec:	88b0      	ldrh	r0, [r6, #4]
10000fee:	2300      	movs	r3, #0
10000ff0:	6931      	ldr	r1, [r6, #16]
10000ff2:	b200      	sxth	r0, r0
10000ff4:	80b4      	strh	r4, [r6, #4]
10000ff6:	e8c1 3f8f 	stlb	r3, [r1]
10000ffa:	f382 8810 	msr	PRIMASK, r2
10000ffe:	4298      	cmp	r0, r3
10001000:	f6ff af57 	blt.w	10000eb2 <alarm_pool_irq_handler+0x52>
10001004:	4607      	mov	r7, r0
10001006:	46a9      	mov	r9, r5
10001008:	6974      	ldr	r4, [r6, #20]
1000100a:	f106 0808 	add.w	r8, r6, #8
1000100e:	eb07 0e47 	add.w	lr, r7, r7, lsl #1
10001012:	eb04 03ce 	add.w	r3, r4, lr, lsl #3
10001016:	e9d3 5002 	ldrd	r5, r0, [r3, #8]
1000101a:	f9b6 3008 	ldrsh.w	r3, [r6, #8]
1000101e:	46c4      	mov	ip, r8
10001020:	2b00      	cmp	r3, #0
10001022:	bfa8      	it	ge
10001024:	46b3      	movge	fp, r6
10001026:	da05      	bge.n	10001034 <alarm_pool_irq_handler+0x1d4>
10001028:	e00f      	b.n	1000104a <alarm_pool_irq_handler+0x1ea>
1000102a:	f934 303a 	ldrsh.w	r3, [r4, sl, lsl #3]
1000102e:	4694      	mov	ip, r2
10001030:	2b00      	cmp	r3, #0
10001032:	db09      	blt.n	10001048 <alarm_pool_irq_handler+0x1e8>
10001034:	eb03 0a43 	add.w	sl, r3, r3, lsl #1
10001038:	eb04 02ca 	add.w	r2, r4, sl, lsl #3
1000103c:	e9d2 6102 	ldrd	r6, r1, [r2, #8]
10001040:	42b5      	cmp	r5, r6
10001042:	eb70 0101 	sbcs.w	r1, r0, r1
10001046:	daf0      	bge.n	1000102a <alarm_pool_irq_handler+0x1ca>
10001048:	465e      	mov	r6, fp
1000104a:	f8ac 7000 	strh.w	r7, [ip]
1000104e:	f934 703e 	ldrsh.w	r7, [r4, lr, lsl #3]
10001052:	f824 303e 	strh.w	r3, [r4, lr, lsl #3]
10001056:	2f00      	cmp	r7, #0
10001058:	dad9      	bge.n	1000100e <alarm_pool_irq_handler+0x1ae>
1000105a:	79b3      	ldrb	r3, [r6, #6]
1000105c:	464d      	mov	r5, r9
1000105e:	2b00      	cmp	r3, #0
10001060:	f43f af2b 	beq.w	10000eba <alarm_pool_irq_handler+0x5a>
10001064:	2300      	movs	r3, #0
10001066:	71b3      	strb	r3, [r6, #6]
10001068:	f9b6 3008 	ldrsh.w	r3, [r6, #8]
1000106c:	f106 0808 	add.w	r8, r6, #8
10001070:	1c59      	adds	r1, r3, #1
10001072:	d03c      	beq.n	100010ee <alarm_pool_irq_handler+0x28e>
10001074:	4619      	mov	r1, r3
10001076:	6977      	ldr	r7, [r6, #20]
10001078:	e003      	b.n	10001082 <alarm_pool_irq_handler+0x222>
1000107a:	4680      	mov	r8, r0
1000107c:	1c5a      	adds	r2, r3, #1
1000107e:	f43f af1e 	beq.w	10000ebe <alarm_pool_irq_handler+0x5e>
10001082:	eb03 0243 	add.w	r2, r3, r3, lsl #1
10001086:	eb07 00c2 	add.w	r0, r7, r2, lsl #3
1000108a:	f8b0 c002 	ldrh.w	ip, [r0, #2]
1000108e:	461c      	mov	r4, r3
10001090:	f41c 4f00 	tst.w	ip, #32768	@ 0x8000
10001094:	469e      	mov	lr, r3
10001096:	f937 3032 	ldrsh.w	r3, [r7, r2, lsl #3]
1000109a:	d0ee      	beq.n	1000107a <alarm_pool_irq_handler+0x21a>
1000109c:	428c      	cmp	r4, r1
1000109e:	ed80 8b02 	vstr	d8, [r0, #8]
100010a2:	d005      	beq.n	100010b0 <alarm_pool_irq_handler+0x250>
100010a4:	f8a8 3000 	strh.w	r3, [r8]
100010a8:	8931      	ldrh	r1, [r6, #8]
100010aa:	f827 1032 	strh.w	r1, [r7, r2, lsl #3]
100010ae:	8134      	strh	r4, [r6, #8]
100010b0:	4671      	mov	r1, lr
100010b2:	e7e3      	b.n	1000107c <alarm_pool_irq_handler+0x21c>
100010b4:	f839 303a 	ldrh.w	r3, [r9, sl, lsl #3]
100010b8:	8133      	strh	r3, [r6, #8]
100010ba:	6933      	ldr	r3, [r6, #16]
100010bc:	f3ef 8210 	mrs	r2, PRIMASK
100010c0:	b672      	cpsid	i
100010c2:	e8d3 0fcf 	ldaexb	r0, [r3]
100010c6:	2101      	movs	r1, #1
100010c8:	2800      	cmp	r0, #0
100010ca:	d1fa      	bne.n	100010c2 <alarm_pool_irq_handler+0x262>
100010cc:	e8c3 1f40 	strexb	r0, r1, [r3]
100010d0:	2800      	cmp	r0, #0
100010d2:	d1f6      	bne.n	100010c2 <alarm_pool_irq_handler+0x262>
100010d4:	f3bf 8f5f 	dmb	sy
100010d8:	8873      	ldrh	r3, [r6, #2]
100010da:	6931      	ldr	r1, [r6, #16]
100010dc:	f829 303a 	strh.w	r3, [r9, sl, lsl #3]
100010e0:	2300      	movs	r3, #0
100010e2:	8074      	strh	r4, [r6, #2]
100010e4:	e8c1 3f8f 	stlb	r3, [r1]
100010e8:	f382 8810 	msr	PRIMASK, r2
100010ec:	e6dd      	b.n	10000eaa <alarm_pool_irq_handler+0x4a>
100010ee:	bf40      	sev
100010f0:	b005      	add	sp, #20
100010f2:	ecbd 8b02 	vpop	{d8}
100010f6:	e8bd 8ff0 	ldmia.w	sp!, {r4, r5, r6, r7, r8, r9, sl, fp, pc}
100010fa:	4628      	mov	r0, r5
100010fc:	e9cd 2302 	strd	r2, r3, [sp, #8]
10001100:	f000 fa3c 	bl	1000157c <timer_time_us_64>
10001104:	9a02      	ldr	r2, [sp, #8]
10001106:	9b03      	ldr	r3, [sp, #12]
10001108:	eb10 0b02 	adds.w	fp, r0, r2
1000110c:	eb43 0801 	adc.w	r8, r3, r1
10001110:	e729      	b.n	10000f66 <alarm_pool_irq_handler+0x106>
10001112:	4608      	mov	r0, r1
10001114:	690b      	ldr	r3, [r1, #16]
10001116:	9102      	str	r1, [sp, #8]
10001118:	4798      	blx	r3
1000111a:	2800      	cmp	r0, #0
1000111c:	d0ca      	beq.n	100010b4 <alarm_pool_irq_handler+0x254>
1000111e:	9902      	ldr	r1, [sp, #8]
10001120:	e9d1 2300 	ldrd	r2, r3, [r1]
10001124:	e714      	b.n	10000f50 <alarm_pool_irq_handler+0xf0>
10001126:	bf00      	nop
10001128:	ffffffff 	.word	0xffffffff
1000112c:	ffffffff 	.word	0xffffffff
10001130:	400b8000 	.word	0x400b8000
10001134:	200009d0 	.word	0x200009d0
10001138:	400b0000 	.word	0x400b0000
1000113c:	10000e61 	.word	0x10000e61

10001140 <runtime_init_default_alarm_pool>:
10001140:	e92d 4ff8 	stmdb	sp!, {r3, r4, r5, r6, r7, r8, r9, sl, fp, lr}
10001144:	4c36      	ldr	r4, [pc, #216]	@ (10001220 <runtime_init_default_alarm_pool+0xe0>)
10001146:	6925      	ldr	r5, [r4, #16]
10001148:	b12d      	cbz	r5, 10001156 <runtime_init_default_alarm_pool+0x16>
1000114a:	e8bd 4ff8 	ldmia.w	sp!, {r3, r4, r5, r6, r7, r8, r9, sl, fp, lr}
1000114e:	210a      	movs	r1, #10
10001150:	4834      	ldr	r0, [pc, #208]	@ (10001224 <runtime_init_default_alarm_pool+0xe4>)
10001152:	f7ff be3b 	b.w	10000dcc <lock_init>
10001156:	f8df 80e4 	ldr.w	r8, [pc, #228]	@ 1000123c <runtime_init_default_alarm_pool+0xfc>
1000115a:	2103      	movs	r1, #3
1000115c:	4640      	mov	r0, r8
1000115e:	f000 f9fb 	bl	10001558 <timer_hardware_alarm_claim>
10001162:	2603      	movs	r6, #3
10001164:	f8c4 800c 	str.w	r8, [r4, #12]
10001168:	f7ff fc4e 	bl	10000a08 <next_striped_spin_lock_num>
1000116c:	f04f 4c50 	mov.w	ip, #3489660928	@ 0xd0000000
10001170:	4b2d      	ldr	r3, [pc, #180]	@ (10001228 <runtime_init_default_alarm_pool+0xe8>)
10001172:	7026      	strb	r6, [r4, #0]
10001174:	4403      	add	r3, r0
10001176:	6123      	str	r3, [r4, #16]
10001178:	f8dc 3000 	ldr.w	r3, [ip]
1000117c:	210f      	movs	r1, #15
1000117e:	7063      	strb	r3, [r4, #1]
10001180:	6963      	ldr	r3, [r4, #20]
10001182:	8061      	strh	r1, [r4, #2]
10001184:	831d      	strh	r5, [r3, #24]
10001186:	f04f 0504 	mov.w	r5, #4
1000118a:	f8a3 5078 	strh.w	r5, [r3, #120]	@ 0x78
1000118e:	f04f 0505 	mov.w	r5, #5
10001192:	f8a3 5090 	strh.w	r5, [r3, #144]	@ 0x90
10001196:	f04f 0506 	mov.w	r5, #6
1000119a:	f8a3 50a8 	strh.w	r5, [r3, #168]	@ 0xa8
1000119e:	f04f 0507 	mov.w	r5, #7
100011a2:	210e      	movs	r1, #14
100011a4:	f64f 72ff 	movw	r2, #65535	@ 0xffff
100011a8:	2708      	movs	r7, #8
100011aa:	f04f 0e0a 	mov.w	lr, #10
100011ae:	f8a3 50c0 	strh.w	r5, [r3, #192]	@ 0xc0
100011b2:	f04f 0901 	mov.w	r9, #1
100011b6:	f04f 0c0c 	mov.w	ip, #12
100011ba:	f04f 0b02 	mov.w	fp, #2
100011be:	f04f 0a09 	mov.w	sl, #9
100011c2:	200d      	movs	r0, #13
100011c4:	f04f 050b 	mov.w	r5, #11
100011c8:	f8a3 1168 	strh.w	r1, [r3, #360]	@ 0x168
100011cc:	4917      	ldr	r1, [pc, #92]	@ (1000122c <runtime_init_default_alarm_pool+0xec>)
100011ce:	80a2      	strh	r2, [r4, #4]
100011d0:	f8a3 e108 	strh.w	lr, [r3, #264]	@ 0x108
100011d4:	60a1      	str	r1, [r4, #8]
100011d6:	f8a3 b048 	strh.w	fp, [r3, #72]	@ 0x48
100011da:	f8a3 a0f0 	strh.w	sl, [r3, #240]	@ 0xf0
100011de:	f8a3 5120 	strh.w	r5, [r3, #288]	@ 0x120
100011e2:	f8a3 c138 	strh.w	ip, [r3, #312]	@ 0x138
100011e6:	f8a3 0150 	strh.w	r0, [r3, #336]	@ 0x150
100011ea:	f8a3 9030 	strh.w	r9, [r3, #48]	@ 0x30
100011ee:	f8a3 6060 	strh.w	r6, [r3, #96]	@ 0x60
100011f2:	f8a3 70d8 	strh.w	r7, [r3, #216]	@ 0xd8
100011f6:	801a      	strh	r2, [r3, #0]
100011f8:	4b0d      	ldr	r3, [pc, #52]	@ (10001230 <runtime_init_default_alarm_pool+0xf0>)
100011fa:	4630      	mov	r0, r6
100011fc:	f8c8 7020 	str.w	r7, [r8, #32]
10001200:	490c      	ldr	r1, [pc, #48]	@ (10001234 <runtime_init_default_alarm_pool+0xf4>)
10001202:	60dc      	str	r4, [r3, #12]
10001204:	f7ff fc56 	bl	10000ab4 <irq_set_exclusive_handler>
10001208:	4649      	mov	r1, r9
1000120a:	4630      	mov	r0, r6
1000120c:	f7ff fc3c 	bl	10000a88 <irq_set_enabled>
10001210:	4b09      	ldr	r3, [pc, #36]	@ (10001238 <runtime_init_default_alarm_pool+0xf8>)
10001212:	210a      	movs	r1, #10
10001214:	641f      	str	r7, [r3, #64]	@ 0x40
10001216:	4803      	ldr	r0, [pc, #12]	@ (10001224 <runtime_init_default_alarm_pool+0xe4>)
10001218:	e8bd 4ff8 	ldmia.w	sp!, {r3, r4, r5, r6, r7, r8, r9, sl, fp, lr}
1000121c:	f7ff bdd6 	b.w	10000dcc <lock_init>
10001220:	200005b4 	.word	0x200005b4
10001224:	20000a34 	.word	0x20000a34
10001228:	200008c0 	.word	0x200008c0
1000122c:	0010ffff 	.word	0x0010ffff
10001230:	200009d0 	.word	0x200009d0
10001234:	10000e61 	.word	0x10000e61
10001238:	400b2000 	.word	0x400b2000
1000123c:	400b0000 	.word	0x400b0000

10001240 <alarm_pool_add_alarm_at_force_in_context>:
10001240:	4601      	mov	r1, r0
10001242:	b5f0      	push	{r4, r5, r6, r7, lr}
10001244:	6900      	ldr	r0, [r0, #16]
10001246:	f3ef 8710 	mrs	r7, PRIMASK
1000124a:	b672      	cpsid	i
1000124c:	e8d0 5fcf 	ldaexb	r5, [r0]
10001250:	2401      	movs	r4, #1
10001252:	2d00      	cmp	r5, #0
10001254:	d1fa      	bne.n	1000124c <alarm_pool_add_alarm_at_force_in_context+0xc>
10001256:	e8c0 4f45 	strexb	r5, r4, [r0]
1000125a:	2d00      	cmp	r5, #0
1000125c:	d1f6      	bne.n	1000124c <alarm_pool_add_alarm_at_force_in_context+0xc>
1000125e:	f3bf 8f5f 	dmb	sy
10001262:	f9b1 e002 	ldrsh.w	lr, [r1, #2]
10001266:	694c      	ldr	r4, [r1, #20]
10001268:	eb0e 0c4e 	add.w	ip, lr, lr, lsl #1
1000126c:	f1be 0f00 	cmp.w	lr, #0
10001270:	ea4f 05cc 	mov.w	r5, ip, lsl #3
10001274:	eb04 0ccc 	add.w	ip, r4, ip, lsl #3
10001278:	db3d      	blt.n	100012f6 <alarm_pool_add_alarm_at_force_in_context+0xb6>
1000127a:	5b60      	ldrh	r0, [r4, r5]
1000127c:	2600      	movs	r6, #0
1000127e:	8048      	strh	r0, [r1, #2]
10001280:	6908      	ldr	r0, [r1, #16]
10001282:	e8c0 6f8f 	stlb	r6, [r0]
10001286:	f387 8810 	msr	PRIMASK, r7
1000128a:	f8bc 0002 	ldrh.w	r0, [ip, #2]
1000128e:	e9cc 2302 	strd	r2, r3, [ip, #8]
10001292:	3001      	adds	r0, #1
10001294:	f3c0 000e 	ubfx	r0, r0, #0, #15
10001298:	2801      	cmp	r0, #1
1000129a:	bf38      	it	cc
1000129c:	2001      	movcc	r0, #1
1000129e:	9b05      	ldr	r3, [sp, #20]
100012a0:	f8ac 0002 	strh.w	r0, [ip, #2]
100012a4:	f8cc 3010 	str.w	r3, [ip, #16]
100012a8:	9b06      	ldr	r3, [sp, #24]
100012aa:	ea40 400e 	orr.w	r0, r0, lr, lsl #16
100012ae:	f8cc 3014 	str.w	r3, [ip, #20]
100012b2:	690b      	ldr	r3, [r1, #16]
100012b4:	f3ef 8210 	mrs	r2, PRIMASK
100012b8:	b672      	cpsid	i
100012ba:	e8d3 cfcf 	ldaexb	ip, [r3]
100012be:	2701      	movs	r7, #1
100012c0:	f1bc 0f00 	cmp.w	ip, #0
100012c4:	d1f9      	bne.n	100012ba <alarm_pool_add_alarm_at_force_in_context+0x7a>
100012c6:	e8c3 7f4c 	strexb	ip, r7, [r3]
100012ca:	f1bc 0f00 	cmp.w	ip, #0
100012ce:	d1f4      	bne.n	100012ba <alarm_pool_add_alarm_at_force_in_context+0x7a>
100012d0:	f3bf 8f5f 	dmb	sy
100012d4:	888b      	ldrh	r3, [r1, #4]
100012d6:	5363      	strh	r3, [r4, r5]
100012d8:	f8a1 e004 	strh.w	lr, [r1, #4]
100012dc:	690b      	ldr	r3, [r1, #16]
100012de:	e8c3 6f8f 	stlb	r6, [r3]
100012e2:	f382 8810 	msr	PRIMASK, r2
100012e6:	2201      	movs	r2, #1
100012e8:	68cb      	ldr	r3, [r1, #12]
100012ea:	7809      	ldrb	r1, [r1, #0]
100012ec:	f503 5301 	add.w	r3, r3, #8256	@ 0x2040
100012f0:	408a      	lsls	r2, r1
100012f2:	605a      	str	r2, [r3, #4]
100012f4:	bdf0      	pop	{r4, r5, r6, r7, pc}
100012f6:	2300      	movs	r3, #0
100012f8:	690a      	ldr	r2, [r1, #16]
100012fa:	e8c2 3f8f 	stlb	r3, [r2]
100012fe:	f387 8810 	msr	PRIMASK, r7
10001302:	f04f 30ff 	mov.w	r0, #4294967295
10001306:	bdf0      	pop	{r4, r5, r6, r7, pc}

10001308 <alarm_pool_cancel_alarm>:
10001308:	4603      	mov	r3, r0
1000130a:	8940      	ldrh	r0, [r0, #10]
1000130c:	ebb0 4f21 	cmp.w	r0, r1, asr #16
10001310:	dd37      	ble.n	10001382 <alarm_pool_cancel_alarm+0x7a>
10001312:	6958      	ldr	r0, [r3, #20]
10001314:	140a      	asrs	r2, r1, #16
10001316:	eb02 0242 	add.w	r2, r2, r2, lsl #1
1000131a:	b510      	push	{r4, lr}
1000131c:	eb00 00c2 	add.w	r0, r0, r2, lsl #3
10001320:	691c      	ldr	r4, [r3, #16]
10001322:	f3ef 8c10 	mrs	ip, PRIMASK
10001326:	b672      	cpsid	i
10001328:	e8d4 efcf 	ldaexb	lr, [r4]
1000132c:	2201      	movs	r2, #1
1000132e:	f1be 0f00 	cmp.w	lr, #0
10001332:	d1f9      	bne.n	10001328 <alarm_pool_cancel_alarm+0x20>
10001334:	e8c4 2f4e 	strexb	lr, r2, [r4]
10001338:	f1be 0f00 	cmp.w	lr, #0
1000133c:	d1f4      	bne.n	10001328 <alarm_pool_cancel_alarm+0x20>
1000133e:	f3bf 8f5f 	dmb	sy
10001342:	8842      	ldrh	r2, [r0, #2]
10001344:	b289      	uxth	r1, r1
10001346:	b292      	uxth	r2, r2
10001348:	428a      	cmp	r2, r1
1000134a:	d007      	beq.n	1000135c <alarm_pool_cancel_alarm+0x54>
1000134c:	2200      	movs	r2, #0
1000134e:	691b      	ldr	r3, [r3, #16]
10001350:	e8c3 2f8f 	stlb	r2, [r3]
10001354:	f38c 8810 	msr	PRIMASK, ip
10001358:	2000      	movs	r0, #0
1000135a:	bd10      	pop	{r4, pc}
1000135c:	f442 4200 	orr.w	r2, r2, #32768	@ 0x8000
10001360:	8042      	strh	r2, [r0, #2]
10001362:	2101      	movs	r1, #1
10001364:	2200      	movs	r2, #0
10001366:	6918      	ldr	r0, [r3, #16]
10001368:	7199      	strb	r1, [r3, #6]
1000136a:	e8c0 2f8f 	stlb	r2, [r0]
1000136e:	f38c 8810 	msr	PRIMASK, ip
10001372:	781c      	ldrb	r4, [r3, #0]
10001374:	68da      	ldr	r2, [r3, #12]
10001376:	4608      	mov	r0, r1
10001378:	f502 5301 	add.w	r3, r2, #8256	@ 0x2040
1000137c:	40a1      	lsls	r1, r4
1000137e:	6059      	str	r1, [r3, #4]
10001380:	bd10      	pop	{r4, pc}
10001382:	2000      	movs	r0, #0
10001384:	4770      	bx	lr
10001386:	bf00      	nop

10001388 <sleep_until>:
10001388:	e92d 41f0 	stmdb	sp!, {r4, r5, r6, r7, r8, lr}
1000138c:	1f86      	subs	r6, r0, #6
1000138e:	f141 35ff 	adc.w	r5, r1, #4294967295
10001392:	42b0      	cmp	r0, r6
10001394:	eb71 0305 	sbcs.w	r3, r1, r5
10001398:	bf38      	it	cc
1000139a:	2600      	movcc	r6, #0
1000139c:	b082      	sub	sp, #8
1000139e:	bf38      	it	cc
100013a0:	4635      	movcc	r5, r6
100013a2:	4604      	mov	r4, r0
100013a4:	460f      	mov	r7, r1
100013a6:	f000 f8f1 	bl	1000158c <time_us_64>
100013aa:	1a30      	subs	r0, r6, r0
100013ac:	eb65 0301 	sbc.w	r3, r5, r1
100013b0:	2801      	cmp	r0, #1
100013b2:	f173 0300 	sbcs.w	r3, r3, #0
100013b6:	da06      	bge.n	100013c6 <sleep_until+0x3e>
100013b8:	4620      	mov	r0, r4
100013ba:	4639      	mov	r1, r7
100013bc:	b002      	add	sp, #8
100013be:	e8bd 41f0 	ldmia.w	sp!, {r4, r5, r6, r7, r8, lr}
100013c2:	f000 b91f 	b.w	10001604 <busy_wait_until>
100013c6:	f000 f8e1 	bl	1000158c <time_us_64>
100013ca:	4286      	cmp	r6, r0
100013cc:	eb65 0101 	sbc.w	r1, r5, r1
100013d0:	2900      	cmp	r1, #0
100013d2:	db0a      	blt.n	100013ea <sleep_until+0x62>
100013d4:	2100      	movs	r1, #0
100013d6:	4b17      	ldr	r3, [pc, #92]	@ (10001434 <sleep_until+0xac>)
100013d8:	4632      	mov	r2, r6
100013da:	9300      	str	r3, [sp, #0]
100013dc:	4816      	ldr	r0, [pc, #88]	@ (10001438 <sleep_until+0xb0>)
100013de:	462b      	mov	r3, r5
100013e0:	9101      	str	r1, [sp, #4]
100013e2:	f7ff ff2d 	bl	10001240 <alarm_pool_add_alarm_at_force_in_context>
100013e6:	2800      	cmp	r0, #0
100013e8:	dbe6      	blt.n	100013b8 <sleep_until+0x30>
100013ea:	f04f 0c00 	mov.w	ip, #0
100013ee:	4813      	ldr	r0, [pc, #76]	@ (1000143c <sleep_until+0xb4>)
100013f0:	4a13      	ldr	r2, [pc, #76]	@ (10001440 <sleep_until+0xb8>)
100013f2:	6a43      	ldr	r3, [r0, #36]	@ 0x24
100013f4:	429d      	cmp	r5, r3
100013f6:	d804      	bhi.n	10001402 <sleep_until+0x7a>
100013f8:	6a81      	ldr	r1, [r0, #40]	@ 0x28
100013fa:	42b1      	cmp	r1, r6
100013fc:	d2dc      	bcs.n	100013b8 <sleep_until+0x30>
100013fe:	429d      	cmp	r5, r3
10001400:	d1da      	bne.n	100013b8 <sleep_until+0x30>
10001402:	6813      	ldr	r3, [r2, #0]
10001404:	f3ef 8110 	mrs	r1, PRIMASK
10001408:	b672      	cpsid	i
1000140a:	e8d3 8fcf 	ldaexb	r8, [r3]
1000140e:	f05f 0e01 	movs.w	lr, #1
10001412:	f1b8 0f00 	cmp.w	r8, #0
10001416:	d1f8      	bne.n	1000140a <sleep_until+0x82>
10001418:	e8c3 ef48 	strexb	r8, lr, [r3]
1000141c:	f1b8 0f00 	cmp.w	r8, #0
10001420:	d1f3      	bne.n	1000140a <sleep_until+0x82>
10001422:	f3bf 8f5f 	dmb	sy
10001426:	6813      	ldr	r3, [r2, #0]
10001428:	e8c3 cf8f 	stlb	ip, [r3]
1000142c:	f381 8810 	msr	PRIMASK, r1
10001430:	bf20      	wfe
10001432:	e7de      	b.n	100013f2 <sleep_until+0x6a>
10001434:	10000e25 	.word	0x10000e25
10001438:	200005b4 	.word	0x200005b4
1000143c:	400b0000 	.word	0x400b0000
10001440:	20000a34 	.word	0x20000a34

10001444 <sleep_ms>:
10001444:	b510      	push	{r4, lr}
10001446:	4604      	mov	r4, r0
10001448:	f000 f8a0 	bl	1000158c <time_us_64>
1000144c:	f44f 737a 	mov.w	r3, #1000	@ 0x3e8
10001450:	f04f 3cff 	mov.w	ip, #4294967295
10001454:	f06f 4200 	mvn.w	r2, #2147483648	@ 0x80000000
10001458:	fbe4 0103 	umlal	r0, r1, r4, r3
1000145c:	e8bd 4010 	ldmia.w	sp!, {r4, lr}
10001460:	4584      	cmp	ip, r0
10001462:	eb72 0301 	sbcs.w	r3, r2, r1
10001466:	bf3c      	itt	cc
10001468:	4660      	movcc	r0, ip
1000146a:	4611      	movcc	r1, r2
1000146c:	f7ff bf8c 	b.w	10001388 <sleep_until>

10001470 <best_effort_wfe_or_timeout>:
10001470:	b5f0      	push	{r4, r5, r6, r7, lr}
10001472:	4606      	mov	r6, r0
10001474:	460d      	mov	r5, r1
10001476:	b083      	sub	sp, #12
10001478:	f3ef 8405 	mrs	r4, IPSR
1000147c:	b2e4      	uxtb	r4, r4
1000147e:	2c00      	cmp	r4, #0
10001480:	d135      	bne.n	100014ee <best_effort_wfe_or_timeout+0x7e>
10001482:	4f24      	ldr	r7, [pc, #144]	@ (10001514 <best_effort_wfe_or_timeout+0xa4>)
10001484:	783a      	ldrb	r2, [r7, #0]
10001486:	68f9      	ldr	r1, [r7, #12]
10001488:	3204      	adds	r2, #4
1000148a:	6a8b      	ldr	r3, [r1, #40]	@ 0x28
1000148c:	f851 2022 	ldr.w	r2, [r1, r2, lsl #2]
10001490:	1ad2      	subs	r2, r2, r3
10001492:	1ac3      	subs	r3, r0, r3
10001494:	4293      	cmp	r3, r2
10001496:	d307      	bcc.n	100014a8 <best_effort_wfe_or_timeout+0x38>
10001498:	bf20      	wfe
1000149a:	4b1f      	ldr	r3, [pc, #124]	@ (10001518 <best_effort_wfe_or_timeout+0xa8>)
1000149c:	6a58      	ldr	r0, [r3, #36]	@ 0x24
1000149e:	42a8      	cmp	r0, r5
100014a0:	d21f      	bcs.n	100014e2 <best_effort_wfe_or_timeout+0x72>
100014a2:	2000      	movs	r0, #0
100014a4:	b003      	add	sp, #12
100014a6:	bdf0      	pop	{r4, r5, r6, r7, pc}
100014a8:	f000 f870 	bl	1000158c <time_us_64>
100014ac:	4286      	cmp	r6, r0
100014ae:	eb65 0101 	sbc.w	r1, r5, r1
100014b2:	2900      	cmp	r1, #0
100014b4:	db11      	blt.n	100014da <best_effort_wfe_or_timeout+0x6a>
100014b6:	4b19      	ldr	r3, [pc, #100]	@ (1000151c <best_effort_wfe_or_timeout+0xac>)
100014b8:	4638      	mov	r0, r7
100014ba:	e9cd 3400 	strd	r3, r4, [sp]
100014be:	4632      	mov	r2, r6
100014c0:	462b      	mov	r3, r5
100014c2:	f7ff febd 	bl	10001240 <alarm_pool_add_alarm_at_force_in_context>
100014c6:	1e01      	subs	r1, r0, #0
100014c8:	dd07      	ble.n	100014da <best_effort_wfe_or_timeout+0x6a>
100014ca:	4b13      	ldr	r3, [pc, #76]	@ (10001518 <best_effort_wfe_or_timeout+0xa8>)
100014cc:	6a5a      	ldr	r2, [r3, #36]	@ 0x24
100014ce:	42aa      	cmp	r2, r5
100014d0:	d219      	bcs.n	10001506 <best_effort_wfe_or_timeout+0x96>
100014d2:	bf20      	wfe
100014d4:	480f      	ldr	r0, [pc, #60]	@ (10001514 <best_effort_wfe_or_timeout+0xa4>)
100014d6:	f7ff ff17 	bl	10001308 <alarm_pool_cancel_alarm>
100014da:	4b0f      	ldr	r3, [pc, #60]	@ (10001518 <best_effort_wfe_or_timeout+0xa8>)
100014dc:	6a58      	ldr	r0, [r3, #36]	@ 0x24
100014de:	42a8      	cmp	r0, r5
100014e0:	d3df      	bcc.n	100014a2 <best_effort_wfe_or_timeout+0x32>
100014e2:	6a9b      	ldr	r3, [r3, #40]	@ 0x28
100014e4:	429e      	cmp	r6, r3
100014e6:	d809      	bhi.n	100014fc <best_effort_wfe_or_timeout+0x8c>
100014e8:	2001      	movs	r0, #1
100014ea:	b003      	add	sp, #12
100014ec:	bdf0      	pop	{r4, r5, r6, r7, pc}
100014ee:	4b0a      	ldr	r3, [pc, #40]	@ (10001518 <best_effort_wfe_or_timeout+0xa8>)
100014f0:	6a58      	ldr	r0, [r3, #36]	@ 0x24
100014f2:	4288      	cmp	r0, r1
100014f4:	d3d5      	bcc.n	100014a2 <best_effort_wfe_or_timeout+0x32>
100014f6:	6a9b      	ldr	r3, [r3, #40]	@ 0x28
100014f8:	42b3      	cmp	r3, r6
100014fa:	d2f5      	bcs.n	100014e8 <best_effort_wfe_or_timeout+0x78>
100014fc:	1b40      	subs	r0, r0, r5
100014fe:	bf18      	it	ne
10001500:	2001      	movne	r0, #1
10001502:	b003      	add	sp, #12
10001504:	bdf0      	pop	{r4, r5, r6, r7, pc}
10001506:	6a9b      	ldr	r3, [r3, #40]	@ 0x28
10001508:	429e      	cmp	r6, r3
1000150a:	d9e3      	bls.n	100014d4 <best_effort_wfe_or_timeout+0x64>
1000150c:	42aa      	cmp	r2, r5
1000150e:	d1e1      	bne.n	100014d4 <best_effort_wfe_or_timeout+0x64>
10001510:	e7df      	b.n	100014d2 <best_effort_wfe_or_timeout+0x62>
10001512:	bf00      	nop
10001514:	200005b4 	.word	0x200005b4
10001518:	400b0000 	.word	0x400b0000
1000151c:	10000e25 	.word	0x10000e25

10001520 <check_single_timeout_us>:
10001520:	4a08      	ldr	r2, [pc, #32]	@ (10001544 <check_single_timeout_us+0x24>)
10001522:	e9d0 0300 	ldrd	r0, r3, [r0]
10001526:	6a51      	ldr	r1, [r2, #36]	@ 0x24
10001528:	428b      	cmp	r3, r1
1000152a:	d804      	bhi.n	10001536 <check_single_timeout_us+0x16>
1000152c:	6a92      	ldr	r2, [r2, #40]	@ 0x28
1000152e:	4282      	cmp	r2, r0
10001530:	d303      	bcc.n	1000153a <check_single_timeout_us+0x1a>
10001532:	2001      	movs	r0, #1
10001534:	4770      	bx	lr
10001536:	2000      	movs	r0, #0
10001538:	4770      	bx	lr
1000153a:	1a58      	subs	r0, r3, r1
1000153c:	bf18      	it	ne
1000153e:	2001      	movne	r0, #1
10001540:	4770      	bx	lr
10001542:	bf00      	nop
10001544:	400b0000 	.word	0x400b0000

10001548 <init_single_timeout_until>:
10001548:	4601      	mov	r1, r0
1000154a:	4802      	ldr	r0, [pc, #8]	@ (10001554 <init_single_timeout_until+0xc>)
1000154c:	e9c1 2300 	strd	r2, r3, [r1]
10001550:	4770      	bx	lr
10001552:	bf00      	nop
10001554:	10001521 	.word	0x10001521

10001558 <timer_hardware_alarm_claim>:
10001558:	b410      	push	{r4}
1000155a:	4b05      	ldr	r3, [pc, #20]	@ (10001570 <timer_hardware_alarm_claim+0x18>)
1000155c:	4c05      	ldr	r4, [pc, #20]	@ (10001574 <timer_hardware_alarm_claim+0x1c>)
1000155e:	4a06      	ldr	r2, [pc, #24]	@ (10001578 <timer_hardware_alarm_claim+0x20>)
10001560:	42a0      	cmp	r0, r4
10001562:	bf14      	ite	ne
10001564:	4618      	movne	r0, r3
10001566:	1c58      	addeq	r0, r3, #1
10001568:	f85d 4b04 	ldr.w	r4, [sp], #4
1000156c:	f7ff ba20 	b.w	100009b0 <hw_claim_or_assert>
10001570:	20000940 	.word	0x20000940
10001574:	400b8000 	.word	0x400b8000
10001578:	10004200 	.word	0x10004200

1000157c <timer_time_us_64>:
1000157c:	4603      	mov	r3, r0
1000157e:	6a41      	ldr	r1, [r0, #36]	@ 0x24
10001580:	460a      	mov	r2, r1
10001582:	6a98      	ldr	r0, [r3, #40]	@ 0x28
10001584:	6a59      	ldr	r1, [r3, #36]	@ 0x24
10001586:	428a      	cmp	r2, r1
10001588:	d1fa      	bne.n	10001580 <timer_time_us_64+0x4>
1000158a:	4770      	bx	lr

1000158c <time_us_64>:
1000158c:	4b03      	ldr	r3, [pc, #12]	@ (1000159c <time_us_64+0x10>)
1000158e:	6a59      	ldr	r1, [r3, #36]	@ 0x24
10001590:	460a      	mov	r2, r1
10001592:	6a98      	ldr	r0, [r3, #40]	@ 0x28
10001594:	6a59      	ldr	r1, [r3, #36]	@ 0x24
10001596:	4291      	cmp	r1, r2
10001598:	d1fa      	bne.n	10001590 <time_us_64+0x4>
1000159a:	4770      	bx	lr
1000159c:	400b0000 	.word	0x400b0000

100015a0 <busy_wait_us>:
100015a0:	b410      	push	{r4}
100015a2:	4a17      	ldr	r2, [pc, #92]	@ (10001600 <busy_wait_us+0x60>)
100015a4:	6a53      	ldr	r3, [r2, #36]	@ 0x24
100015a6:	469c      	mov	ip, r3
100015a8:	6a94      	ldr	r4, [r2, #40]	@ 0x28
100015aa:	6a53      	ldr	r3, [r2, #36]	@ 0x24
100015ac:	4563      	cmp	r3, ip
100015ae:	d1fa      	bne.n	100015a6 <busy_wait_us+0x6>
100015b0:	1900      	adds	r0, r0, r4
100015b2:	4159      	adcs	r1, r3
100015b4:	f04f 0200 	mov.w	r2, #0
100015b8:	bf28      	it	cs
100015ba:	2201      	movcs	r2, #1
100015bc:	4603      	mov	r3, r0
100015be:	b1ca      	cbz	r2, 100015f4 <busy_wait_us+0x54>
100015c0:	4b0f      	ldr	r3, [pc, #60]	@ (10001600 <busy_wait_us+0x60>)
100015c2:	6a59      	ldr	r1, [r3, #36]	@ 0x24
100015c4:	1c4b      	adds	r3, r1, #1
100015c6:	bf08      	it	eq
100015c8:	460b      	moveq	r3, r1
100015ca:	d008      	beq.n	100015de <busy_wait_us+0x3e>
100015cc:	f04f 31ff 	mov.w	r1, #4294967295
100015d0:	460b      	mov	r3, r1
100015d2:	480b      	ldr	r0, [pc, #44]	@ (10001600 <busy_wait_us+0x60>)
100015d4:	6a42      	ldr	r2, [r0, #36]	@ 0x24
100015d6:	428a      	cmp	r2, r1
100015d8:	d3fc      	bcc.n	100015d4 <busy_wait_us+0x34>
100015da:	428a      	cmp	r2, r1
100015dc:	d107      	bne.n	100015ee <busy_wait_us+0x4e>
100015de:	4a08      	ldr	r2, [pc, #32]	@ (10001600 <busy_wait_us+0x60>)
100015e0:	e002      	b.n	100015e8 <busy_wait_us+0x48>
100015e2:	6a50      	ldr	r0, [r2, #36]	@ 0x24
100015e4:	4288      	cmp	r0, r1
100015e6:	d102      	bne.n	100015ee <busy_wait_us+0x4e>
100015e8:	6a90      	ldr	r0, [r2, #40]	@ 0x28
100015ea:	4298      	cmp	r0, r3
100015ec:	d3f9      	bcc.n	100015e2 <busy_wait_us+0x42>
100015ee:	f85d 4b04 	ldr.w	r4, [sp], #4
100015f2:	4770      	bx	lr
100015f4:	4a02      	ldr	r2, [pc, #8]	@ (10001600 <busy_wait_us+0x60>)
100015f6:	6a52      	ldr	r2, [r2, #36]	@ 0x24
100015f8:	4291      	cmp	r1, r2
100015fa:	d8ea      	bhi.n	100015d2 <busy_wait_us+0x32>
100015fc:	e7ed      	b.n	100015da <busy_wait_us+0x3a>
100015fe:	bf00      	nop
10001600:	400b0000 	.word	0x400b0000

10001604 <busy_wait_until>:
10001604:	4a07      	ldr	r2, [pc, #28]	@ (10001624 <busy_wait_until+0x20>)
10001606:	6a53      	ldr	r3, [r2, #36]	@ 0x24
10001608:	4299      	cmp	r1, r3
1000160a:	d8fc      	bhi.n	10001606 <busy_wait_until+0x2>
1000160c:	4299      	cmp	r1, r3
1000160e:	d107      	bne.n	10001620 <busy_wait_until+0x1c>
10001610:	4b04      	ldr	r3, [pc, #16]	@ (10001624 <busy_wait_until+0x20>)
10001612:	e002      	b.n	1000161a <busy_wait_until+0x16>
10001614:	6a5a      	ldr	r2, [r3, #36]	@ 0x24
10001616:	4291      	cmp	r1, r2
10001618:	d102      	bne.n	10001620 <busy_wait_until+0x1c>
1000161a:	6a9a      	ldr	r2, [r3, #40]	@ 0x28
1000161c:	4282      	cmp	r2, r0
1000161e:	d3f9      	bcc.n	10001614 <busy_wait_until+0x10>
10001620:	4770      	bx	lr
10001622:	bf00      	nop
10001624:	400b0000 	.word	0x400b0000

10001628 <uart_init>:
10001628:	b5f8      	push	{r3, r4, r5, r6, r7, lr}
1000162a:	4605      	mov	r5, r0
1000162c:	2006      	movs	r0, #6
1000162e:	460e      	mov	r6, r1
10001630:	f000 f8e4 	bl	100017fc <clock_get_hz>
10001634:	2800      	cmp	r0, #0
10001636:	d042      	beq.n	100016be <uart_init+0x96>
10001638:	4a35      	ldr	r2, [pc, #212]	@ (10001710 <uart_init+0xe8>)
1000163a:	4836      	ldr	r0, [pc, #216]	@ (10001714 <uart_init+0xec>)
1000163c:	4295      	cmp	r5, r2
1000163e:	bf14      	ite	ne
10001640:	f04f 6280 	movne.w	r2, #67108864	@ 0x4000000
10001644:	f04f 6200 	moveq.w	r2, #134217728	@ 0x8000000
10001648:	4b33      	ldr	r3, [pc, #204]	@ (10001718 <uart_init+0xf0>)
1000164a:	4934      	ldr	r1, [pc, #208]	@ (1000171c <uart_init+0xf4>)
1000164c:	6002      	str	r2, [r0, #0]
1000164e:	601a      	str	r2, [r3, #0]
10001650:	688c      	ldr	r4, [r1, #8]
10001652:	ea32 0404 	bics.w	r4, r2, r4
10001656:	d1fb      	bne.n	10001650 <uart_init+0x28>
10001658:	4b2d      	ldr	r3, [pc, #180]	@ (10001710 <uart_init+0xe8>)
1000165a:	f44f 7180 	mov.w	r1, #256	@ 0x100
1000165e:	1aeb      	subs	r3, r5, r3
10001660:	fab3 f383 	clz	r3, r3
10001664:	4a2e      	ldr	r2, [pc, #184]	@ (10001720 <uart_init+0xf8>)
10001666:	095b      	lsrs	r3, r3, #5
10001668:	2006      	movs	r0, #6
1000166a:	f822 1013 	strh.w	r1, [r2, r3, lsl #1]
1000166e:	f000 f8c5 	bl	100017fc <clock_get_hz>
10001672:	00c3      	lsls	r3, r0, #3
10001674:	fbb3 f3f6 	udiv	r3, r3, r6
10001678:	3301      	adds	r3, #1
1000167a:	09da      	lsrs	r2, r3, #7
1000167c:	d120      	bne.n	100016c0 <uart_init+0x98>
1000167e:	2640      	movs	r6, #64	@ 0x40
10001680:	2101      	movs	r1, #1
10001682:	6269      	str	r1, [r5, #36]	@ 0x24
10001684:	62aa      	str	r2, [r5, #40]	@ 0x28
10001686:	6b2f      	ldr	r7, [r5, #48]	@ 0x30
10001688:	07fb      	lsls	r3, r7, #31
1000168a:	d422      	bmi.n	100016d2 <uart_init+0xaa>
1000168c:	462b      	mov	r3, r5
1000168e:	2200      	movs	r2, #0
10001690:	f853 1f2c 	ldr.w	r1, [r3, #44]!
10001694:	2006      	movs	r0, #6
10001696:	f503 5480 	add.w	r4, r3, #4096	@ 0x1000
1000169a:	6022      	str	r2, [r4, #0]
1000169c:	632f      	str	r7, [r5, #48]	@ 0x30
1000169e:	f000 f8ad 	bl	100017fc <clock_get_hz>
100016a2:	f240 3101 	movw	r1, #769	@ 0x301
100016a6:	2203      	movs	r2, #3
100016a8:	0080      	lsls	r0, r0, #2
100016aa:	fbb0 f0f6 	udiv	r0, r0, r6
100016ae:	6aeb      	ldr	r3, [r5, #44]	@ 0x2c
100016b0:	f083 0370 	eor.w	r3, r3, #112	@ 0x70
100016b4:	f003 037e 	and.w	r3, r3, #126	@ 0x7e
100016b8:	6023      	str	r3, [r4, #0]
100016ba:	6329      	str	r1, [r5, #48]	@ 0x30
100016bc:	64aa      	str	r2, [r5, #72]	@ 0x48
100016be:	bdf8      	pop	{r3, r4, r5, r6, r7, pc}
100016c0:	f64f 71fe 	movw	r1, #65534	@ 0xfffe
100016c4:	428a      	cmp	r2, r1
100016c6:	d91b      	bls.n	10001700 <uart_init+0xd8>
100016c8:	4622      	mov	r2, r4
100016ca:	f64f 71ff 	movw	r1, #65535	@ 0xffff
100016ce:	4e15      	ldr	r6, [pc, #84]	@ (10001724 <uart_init+0xfc>)
100016d0:	e7d7      	b.n	10001682 <uart_init+0x5a>
100016d2:	f240 3201 	movw	r2, #769	@ 0x301
100016d6:	f505 5340 	add.w	r3, r5, #12288	@ 0x3000
100016da:	631a      	str	r2, [r3, #48]	@ 0x30
100016dc:	6a6b      	ldr	r3, [r5, #36]	@ 0x24
100016de:	6aac      	ldr	r4, [r5, #40]	@ 0x28
100016e0:	2006      	movs	r0, #6
100016e2:	eb04 1483 	add.w	r4, r4, r3, lsl #6
100016e6:	f000 f889 	bl	100017fc <clock_get_hz>
100016ea:	4b0f      	ldr	r3, [pc, #60]	@ (10001728 <uart_init+0x100>)
100016ec:	02a4      	lsls	r4, r4, #10
100016ee:	fba3 2300 	umull	r2, r3, r3, r0
100016f2:	0adb      	lsrs	r3, r3, #11
100016f4:	2100      	movs	r1, #0
100016f6:	fbb4 f0f3 	udiv	r0, r4, r3
100016fa:	f7ff ff51 	bl	100015a0 <busy_wait_us>
100016fe:	e7c5      	b.n	1000168c <uart_init+0x64>
10001700:	f3c3 0345 	ubfx	r3, r3, #1, #6
10001704:	4611      	mov	r1, r2
10001706:	eb03 1682 	add.w	r6, r3, r2, lsl #6
1000170a:	461a      	mov	r2, r3
1000170c:	e7b9      	b.n	10001682 <uart_init+0x5a>
1000170e:	bf00      	nop
10001710:	40078000 	.word	0x40078000
10001714:	40022000 	.word	0x40022000
10001718:	40023000 	.word	0x40023000
1000171c:	40020000 	.word	0x40020000
10001720:	20000a38 	.word	0x20000a38
10001724:	003fffc0 	.word	0x003fffc0
10001728:	8f2b7b75 	.word	0x8f2b7b75

1000172c <clock_configure_undivided>:
1000172c:	eb00 0c40 	add.w	ip, r0, r0, lsl #1
10001730:	ea4f 0c8c 	mov.w	ip, ip, lsl #2
10001734:	f10c 4c80 	add.w	ip, ip, #1073741824	@ 0x40000000
10001738:	f50c 3c80 	add.w	ip, ip, #65536	@ 0x10000
1000173c:	b5f0      	push	{r4, r5, r6, r7, lr}
1000173e:	4616      	mov	r6, r2
10001740:	f8dc 2004 	ldr.w	r2, [ip, #4]
10001744:	1f05      	subs	r5, r0, #4
10001746:	f5b2 3f80 	cmp.w	r2, #65536	@ 0x10000
1000174a:	bf38      	it	cc
1000174c:	f44f 3280 	movcc.w	r2, #65536	@ 0x10000
10001750:	b2ed      	uxtb	r5, r5
10001752:	bf38      	it	cc
10001754:	f8cc 2004 	strcc.w	r2, [ip, #4]
10001758:	2d01      	cmp	r5, #1
1000175a:	d92a      	bls.n	100017b2 <clock_configure_undivided+0x86>
1000175c:	f44f 6700 	mov.w	r7, #2048	@ 0x800
10001760:	4c25      	ldr	r4, [pc, #148]	@ (100017f8 <clock_configure_undivided+0xcc>)
10001762:	f50c 5240 	add.w	r2, ip, #12288	@ 0x3000
10001766:	6017      	str	r7, [r2, #0]
10001768:	f854 2020 	ldr.w	r2, [r4, r0, lsl #2]
1000176c:	b9b2      	cbnz	r2, 1000179c <clock_configure_undivided+0x70>
1000176e:	f8dc 2000 	ldr.w	r2, [ip]
10001772:	2d01      	cmp	r5, #1
10001774:	ea82 1246 	eor.w	r2, r2, r6, lsl #5
10001778:	f002 02e0 	and.w	r2, r2, #224	@ 0xe0
1000177c:	f50c 5680 	add.w	r6, ip, #4096	@ 0x1000
10001780:	6032      	str	r2, [r6, #0]
10001782:	d92a      	bls.n	100017da <clock_configure_undivided+0xae>
10001784:	f44f 6100 	mov.w	r1, #2048	@ 0x800
10001788:	f844 3020 	str.w	r3, [r4, r0, lsl #2]
1000178c:	f44f 3380 	mov.w	r3, #65536	@ 0x10000
10001790:	f50c 5200 	add.w	r2, ip, #8192	@ 0x2000
10001794:	6011      	str	r1, [r2, #0]
10001796:	f8cc 3004 	str.w	r3, [ip, #4]
1000179a:	bdf0      	pop	{r4, r5, r6, r7, pc}
1000179c:	6967      	ldr	r7, [r4, #20]
1000179e:	fbb7 fef2 	udiv	lr, r7, r2
100017a2:	f10e 0e01 	add.w	lr, lr, #1
100017a6:	eb0e 0e4e 	add.w	lr, lr, lr, lsl #1
100017aa:	f1be 0e03 	subs.w	lr, lr, #3
100017ae:	d2fc      	bcs.n	100017aa <clock_configure_undivided+0x7e>
100017b0:	e7dd      	b.n	1000176e <clock_configure_undivided+0x42>
100017b2:	2901      	cmp	r1, #1
100017b4:	d1d2      	bne.n	1000175c <clock_configure_undivided+0x30>
100017b6:	2403      	movs	r4, #3
100017b8:	f50c 5240 	add.w	r2, ip, #12288	@ 0x3000
100017bc:	6014      	str	r4, [r2, #0]
100017be:	f8dc 2008 	ldr.w	r2, [ip, #8]
100017c2:	07d2      	lsls	r2, r2, #31
100017c4:	d5fb      	bpl.n	100017be <clock_configure_undivided+0x92>
100017c6:	f8dc 2000 	ldr.w	r2, [ip]
100017ca:	4c0b      	ldr	r4, [pc, #44]	@ (100017f8 <clock_configure_undivided+0xcc>)
100017cc:	ea82 1246 	eor.w	r2, r2, r6, lsl #5
100017d0:	f002 02e0 	and.w	r2, r2, #224	@ 0xe0
100017d4:	f50c 5680 	add.w	r6, ip, #4096	@ 0x1000
100017d8:	6032      	str	r2, [r6, #0]
100017da:	2201      	movs	r2, #1
100017dc:	f8dc 5000 	ldr.w	r5, [ip]
100017e0:	404d      	eors	r5, r1
100017e2:	f005 0503 	and.w	r5, r5, #3
100017e6:	6035      	str	r5, [r6, #0]
100017e8:	fa02 f101 	lsl.w	r1, r2, r1
100017ec:	f8dc 2008 	ldr.w	r2, [ip, #8]
100017f0:	420a      	tst	r2, r1
100017f2:	d0fb      	beq.n	100017ec <clock_configure_undivided+0xc0>
100017f4:	e7c6      	b.n	10001784 <clock_configure_undivided+0x58>
100017f6:	bf00      	nop
100017f8:	20000980 	.word	0x20000980

100017fc <clock_get_hz>:
100017fc:	4b01      	ldr	r3, [pc, #4]	@ (10001804 <clock_get_hz+0x8>)
100017fe:	f853 0020 	ldr.w	r0, [r3, r0, lsl #2]
10001802:	4770      	bx	lr
10001804:	20000980 	.word	0x20000980

10001808 <pll_init>:
10001808:	b470      	push	{r4, r5, r6}
1000180a:	9d03      	ldr	r5, [sp, #12]
1000180c:	6804      	ldr	r4, [r0, #0]
1000180e:	032d      	lsls	r5, r5, #12
10001810:	ea45 4503 	orr.w	r5, r5, r3, lsl #16
10001814:	4b1b      	ldr	r3, [pc, #108]	@ (10001884 <pll_init+0x7c>)
10001816:	2c00      	cmp	r4, #0
10001818:	fbb3 f3f1 	udiv	r3, r3, r1
1000181c:	fbb2 f6f3 	udiv	r6, r2, r3
10001820:	db1f      	blt.n	10001862 <pll_init+0x5a>
10001822:	4a19      	ldr	r2, [pc, #100]	@ (10001888 <pll_init+0x80>)
10001824:	4b19      	ldr	r3, [pc, #100]	@ (1000188c <pll_init+0x84>)
10001826:	4290      	cmp	r0, r2
10001828:	bf14      	ite	ne
1000182a:	f44f 4280 	movne.w	r2, #16384	@ 0x4000
1000182e:	f44f 4200 	moveq.w	r2, #32768	@ 0x8000
10001832:	4c17      	ldr	r4, [pc, #92]	@ (10001890 <pll_init+0x88>)
10001834:	601a      	str	r2, [r3, #0]
10001836:	f503 5380 	add.w	r3, r3, #4096	@ 0x1000
1000183a:	601a      	str	r2, [r3, #0]
1000183c:	68a3      	ldr	r3, [r4, #8]
1000183e:	ea32 0303 	bics.w	r3, r2, r3
10001842:	d1fb      	bne.n	1000183c <pll_init+0x34>
10001844:	2221      	movs	r2, #33	@ 0x21
10001846:	f500 5340 	add.w	r3, r0, #12288	@ 0x3000
1000184a:	3304      	adds	r3, #4
1000184c:	6001      	str	r1, [r0, #0]
1000184e:	6086      	str	r6, [r0, #8]
10001850:	601a      	str	r2, [r3, #0]
10001852:	6802      	ldr	r2, [r0, #0]
10001854:	2a00      	cmp	r2, #0
10001856:	dafc      	bge.n	10001852 <pll_init+0x4a>
10001858:	2208      	movs	r2, #8
1000185a:	60c5      	str	r5, [r0, #12]
1000185c:	601a      	str	r2, [r3, #0]
1000185e:	bc70      	pop	{r4, r5, r6}
10001860:	4770      	bx	lr
10001862:	6803      	ldr	r3, [r0, #0]
10001864:	f003 033f 	and.w	r3, r3, #63	@ 0x3f
10001868:	428b      	cmp	r3, r1
1000186a:	d1da      	bne.n	10001822 <pll_init+0x1a>
1000186c:	6883      	ldr	r3, [r0, #8]
1000186e:	f3c3 030b 	ubfx	r3, r3, #0, #12
10001872:	42b3      	cmp	r3, r6
10001874:	d1d5      	bne.n	10001822 <pll_init+0x1a>
10001876:	68c3      	ldr	r3, [r0, #12]
10001878:	f403 23ee 	and.w	r3, r3, #487424	@ 0x77000
1000187c:	42ab      	cmp	r3, r5
1000187e:	d1d0      	bne.n	10001822 <pll_init+0x1a>
10001880:	e7ed      	b.n	1000185e <pll_init+0x56>
10001882:	bf00      	nop
10001884:	00b71b00 	.word	0x00b71b00
10001888:	40058000 	.word	0x40058000
1000188c:	40022000 	.word	0x40022000
10001890:	40020000 	.word	0x40020000

10001894 <tick_start>:
10001894:	2301      	movs	r3, #1
10001896:	eb00 0040 	add.w	r0, r0, r0, lsl #1
1000189a:	0080      	lsls	r0, r0, #2
1000189c:	f100 4080 	add.w	r0, r0, #1073741824	@ 0x40000000
100018a0:	f500 1084 	add.w	r0, r0, #1081344	@ 0x108000
100018a4:	6041      	str	r1, [r0, #4]
100018a6:	6003      	str	r3, [r0, #0]
100018a8:	4770      	bx	lr
100018aa:	bf00      	nop

100018ac <rom_func_lookup>:
100018ac:	2300      	movs	r3, #0
100018ae:	8adb      	ldrh	r3, [r3, #22]
100018b0:	2200      	movs	r2, #0
100018b2:	e842 f200 	tt	r2, r2
100018b6:	0252      	lsls	r2, r2, #9
100018b8:	d401      	bmi.n	100018be <rom_func_lookup+0x12>
100018ba:	2110      	movs	r1, #16
100018bc:	4718      	bx	r3
100018be:	2104      	movs	r1, #4
100018c0:	4718      	bx	r3
100018c2:	bf00      	nop

100018c4 <runtime_init_bootrom_locking_enable>:
100018c4:	4a03      	ldr	r2, [pc, #12]	@ (100018d4 <runtime_init_bootrom_locking_enable+0x10>)
100018c6:	f8d2 3828 	ldr.w	r3, [r2, #2088]	@ 0x828
100018ca:	2b00      	cmp	r3, #0
100018cc:	d0fb      	beq.n	100018c6 <runtime_init_bootrom_locking_enable+0x2>
100018ce:	f3bf 8f5f 	dmb	sy
100018d2:	4770      	bx	lr
100018d4:	400e0000 	.word	0x400e0000

100018d8 <runtime_init_boot_locks_reset>:
100018d8:	2100      	movs	r1, #0
100018da:	4b04      	ldr	r3, [pc, #16]	@ (100018ec <runtime_init_boot_locks_reset+0x14>)
100018dc:	4a04      	ldr	r2, [pc, #16]	@ (100018f0 <runtime_init_boot_locks_reset+0x18>)
100018de:	f3bf 8f5f 	dmb	sy
100018e2:	f843 1b04 	str.w	r1, [r3], #4
100018e6:	4293      	cmp	r3, r2
100018e8:	d1f9      	bne.n	100018de <runtime_init_boot_locks_reset+0x6>
100018ea:	4770      	bx	lr
100018ec:	400e080c 	.word	0x400e080c
100018f0:	400e082c 	.word	0x400e082c

100018f4 <xosc_init>:
100018f4:	b410      	push	{r4}
100018f6:	202f      	movs	r0, #47	@ 0x2f
100018f8:	f44f 642a 	mov.w	r4, #2720	@ 0xaa0
100018fc:	4a05      	ldr	r2, [pc, #20]	@ (10001914 <xosc_init+0x20>)
100018fe:	4b06      	ldr	r3, [pc, #24]	@ (10001918 <xosc_init+0x24>)
10001900:	4906      	ldr	r1, [pc, #24]	@ (1000191c <xosc_init+0x28>)
10001902:	6014      	str	r4, [r2, #0]
10001904:	60d0      	str	r0, [r2, #12]
10001906:	6019      	str	r1, [r3, #0]
10001908:	6853      	ldr	r3, [r2, #4]
1000190a:	2b00      	cmp	r3, #0
1000190c:	dafc      	bge.n	10001908 <xosc_init+0x14>
1000190e:	f85d 4b04 	ldr.w	r4, [sp], #4
10001912:	4770      	bx	lr
10001914:	40048000 	.word	0x40048000
10001918:	4004a000 	.word	0x4004a000
1000191c:	00fab000 	.word	0x00fab000

10001920 <first_per_core_initializer>:
10001920:	4770      	bx	lr
10001922:	bf00      	nop

10001924 <hard_assertion_failure>:
10001924:	b508      	push	{r3, lr}
10001926:	4801      	ldr	r0, [pc, #4]	@ (1000192c <hard_assertion_failure+0x8>)
10001928:	f7ff f82a 	bl	10000980 <panic>
1000192c:	10004224 	.word	0x10004224

10001930 <runtime_run_initializers>:
10001930:	b538      	push	{r3, r4, r5, lr}
10001932:	4c05      	ldr	r4, [pc, #20]	@ (10001948 <runtime_run_initializers+0x18>)
10001934:	4d05      	ldr	r5, [pc, #20]	@ (1000194c <runtime_run_initializers+0x1c>)
10001936:	42ac      	cmp	r4, r5
10001938:	d204      	bcs.n	10001944 <runtime_run_initializers+0x14>
1000193a:	f854 3b04 	ldr.w	r3, [r4], #4
1000193e:	4798      	blx	r3
10001940:	42ac      	cmp	r4, r5
10001942:	d3fa      	bcc.n	1000193a <runtime_run_initializers+0xa>
10001944:	bd38      	pop	{r3, r4, r5, pc}
10001946:	bf00      	nop
10001948:	10004078 	.word	0x10004078
1000194c:	100040b8 	.word	0x100040b8

10001950 <runtime_init_early_resets>:
10001950:	b410      	push	{r4}
10001952:	4807      	ldr	r0, [pc, #28]	@ (10001970 <runtime_init_early_resets+0x20>)
10001954:	4c07      	ldr	r4, [pc, #28]	@ (10001974 <runtime_init_early_resets+0x24>)
10001956:	4b08      	ldr	r3, [pc, #32]	@ (10001978 <runtime_init_early_resets+0x28>)
10001958:	4a08      	ldr	r2, [pc, #32]	@ (1000197c <runtime_init_early_resets+0x2c>)
1000195a:	4909      	ldr	r1, [pc, #36]	@ (10001980 <runtime_init_early_resets+0x30>)
1000195c:	6004      	str	r4, [r0, #0]
1000195e:	601a      	str	r2, [r3, #0]
10001960:	688b      	ldr	r3, [r1, #8]
10001962:	ea32 0303 	bics.w	r3, r2, r3
10001966:	d1fb      	bne.n	10001960 <runtime_init_early_resets+0x10>
10001968:	f85d 4b04 	ldr.w	r4, [sp], #4
1000196c:	4770      	bx	lr
1000196e:	bf00      	nop
10001970:	40022000 	.word	0x40022000
10001974:	efef3b7f 	.word	0xefef3b7f
10001978:	40023000 	.word	0x40023000
1000197c:	03f3fff6 	.word	0x03f3fff6
10001980:	40020000 	.word	0x40020000

10001984 <runtime_init_usb_power_down>:
10001984:	4b04      	ldr	r3, [pc, #16]	@ (10001998 <runtime_init_usb_power_down+0x14>)
10001986:	6cdb      	ldr	r3, [r3, #76]	@ 0x4c
10001988:	f5b3 4f00 	cmp.w	r3, #32768	@ 0x8000
1000198c:	d103      	bne.n	10001996 <runtime_init_usb_power_down+0x12>
1000198e:	f44f 2280 	mov.w	r2, #262144	@ 0x40000
10001992:	4b02      	ldr	r3, [pc, #8]	@ (1000199c <runtime_init_usb_power_down+0x18>)
10001994:	64da      	str	r2, [r3, #76]	@ 0x4c
10001996:	4770      	bx	lr
10001998:	50110000 	.word	0x50110000
1000199c:	50112000 	.word	0x50112000

100019a0 <runtime_init_per_core_enable_coprocessors>:
100019a0:	f04f 22e0 	mov.w	r2, #3758153728	@ 0xe000e000
100019a4:	4b04      	ldr	r3, [pc, #16]	@ (100019b8 <runtime_init_per_core_enable_coprocessors+0x18>)
100019a6:	f8d2 1d88 	ldr.w	r1, [r2, #3464]	@ 0xd88
100019aa:	430b      	orrs	r3, r1
100019ac:	f8c2 3d88 	str.w	r3, [r2, #3464]	@ 0xd88
100019b0:	ee10 0430 	dcp_rcmp r0
100019b4:	4770      	bx	lr
100019b6:	bf00      	nop
100019b8:	00300303 	.word	0x00300303

100019bc <runtime_init_post_clock_resets>:
100019bc:	f06f 4160 	mvn.w	r1, #3758096384	@ 0xe0000000
100019c0:	4b04      	ldr	r3, [pc, #16]	@ (100019d4 <runtime_init_post_clock_resets+0x18>)
100019c2:	4a05      	ldr	r2, [pc, #20]	@ (100019d8 <runtime_init_post_clock_resets+0x1c>)
100019c4:	6019      	str	r1, [r3, #0]
100019c6:	6893      	ldr	r3, [r2, #8]
100019c8:	43db      	mvns	r3, r3
100019ca:	f033 4360 	bics.w	r3, r3, #3758096384	@ 0xe0000000
100019ce:	d1fa      	bne.n	100019c6 <runtime_init_post_clock_resets+0xa>
100019d0:	4770      	bx	lr
100019d2:	bf00      	nop
100019d4:	40023000 	.word	0x40023000
100019d8:	40020000 	.word	0x40020000

100019dc <runtime_init_bootrom_reset>:
100019dc:	b510      	push	{r4, lr}
100019de:	f245 2053 	movw	r0, #21075	@ 0x5253
100019e2:	f7ff ff63 	bl	100018ac <rom_func_lookup>
100019e6:	e8bd 4010 	ldmia.w	sp!, {r4, lr}
100019ea:	4603      	mov	r3, r0
100019ec:	2004      	movs	r0, #4
100019ee:	4718      	bx	r3

100019f0 <runtime_init_per_core_bootrom_reset>:
100019f0:	b510      	push	{r4, lr}
100019f2:	f245 2053 	movw	r0, #21075	@ 0x5253
100019f6:	f7ff ff59 	bl	100018ac <rom_func_lookup>
100019fa:	e8bd 4010 	ldmia.w	sp!, {r4, lr}
100019fe:	4603      	mov	r3, r0
10001a00:	2001      	movs	r0, #1
10001a02:	4718      	bx	r3

10001a04 <runtime_init_spin_locks_reset>:
10001a04:	f7ff b814 	b.w	10000a30 <spin_locks_reset>

10001a08 <runtime_init_install_ram_vector_table>:
10001a08:	b510      	push	{r4, lr}
10001a0a:	4b05      	ldr	r3, [pc, #20]	@ (10001a20 <runtime_init_install_ram_vector_table+0x18>)
10001a0c:	4c05      	ldr	r4, [pc, #20]	@ (10001a24 <runtime_init_install_ram_vector_table+0x1c>)
10001a0e:	f44f 7288 	mov.w	r2, #272	@ 0x110
10001a12:	4618      	mov	r0, r3
10001a14:	68a1      	ldr	r1, [r4, #8]
10001a16:	f002 fa7d 	bl	10003f14 <memcpy>
10001a1a:	60a0      	str	r0, [r4, #8]
10001a1c:	bd10      	pop	{r4, pc}
10001a1e:	bf00      	nop
10001a20:	20000000 	.word	0x20000000
10001a24:	e000ed00 	.word	0xe000ed00

10001a28 <runtime_init_clocks>:
10001a28:	2300      	movs	r3, #0
10001a2a:	b570      	push	{r4, r5, r6, lr}
10001a2c:	4c2b      	ldr	r4, [pc, #172]	@ (10001adc <runtime_init_clocks+0xb4>)
10001a2e:	b082      	sub	sp, #8
10001a30:	f8c4 3084 	str.w	r3, [r4, #132]	@ 0x84
10001a34:	f7ff ff5e 	bl	100018f4 <xosc_init>
10001a38:	2201      	movs	r2, #1
10001a3a:	4b29      	ldr	r3, [pc, #164]	@ (10001ae0 <runtime_init_clocks+0xb8>)
10001a3c:	63da      	str	r2, [r3, #60]	@ 0x3c
10001a3e:	6c63      	ldr	r3, [r4, #68]	@ 0x44
10001a40:	2b01      	cmp	r3, #1
10001a42:	d1fc      	bne.n	10001a3e <runtime_init_clocks+0x16>
10001a44:	2103      	movs	r1, #3
10001a46:	4a26      	ldr	r2, [pc, #152]	@ (10001ae0 <runtime_init_clocks+0xb8>)
10001a48:	4b24      	ldr	r3, [pc, #144]	@ (10001adc <runtime_init_clocks+0xb4>)
10001a4a:	6311      	str	r1, [r2, #48]	@ 0x30
10001a4c:	6b9c      	ldr	r4, [r3, #56]	@ 0x38
10001a4e:	2c01      	cmp	r4, #1
10001a50:	d1fc      	bne.n	10001a4c <runtime_init_clocks+0x24>
10001a52:	2602      	movs	r6, #2
10001a54:	2505      	movs	r5, #5
10001a56:	4621      	mov	r1, r4
10001a58:	2305      	movs	r3, #5
10001a5a:	4a22      	ldr	r2, [pc, #136]	@ (10001ae4 <runtime_init_clocks+0xbc>)
10001a5c:	4822      	ldr	r0, [pc, #136]	@ (10001ae8 <runtime_init_clocks+0xc0>)
10001a5e:	9600      	str	r6, [sp, #0]
10001a60:	f7ff fed2 	bl	10001808 <pll_init>
10001a64:	4621      	mov	r1, r4
10001a66:	462b      	mov	r3, r5
10001a68:	4a20      	ldr	r2, [pc, #128]	@ (10001aec <runtime_init_clocks+0xc4>)
10001a6a:	4821      	ldr	r0, [pc, #132]	@ (10001af0 <runtime_init_clocks+0xc8>)
10001a6c:	9500      	str	r5, [sp, #0]
10001a6e:	f7ff fecb 	bl	10001808 <pll_init>
10001a72:	2200      	movs	r2, #0
10001a74:	2004      	movs	r0, #4
10001a76:	4631      	mov	r1, r6
10001a78:	4b1e      	ldr	r3, [pc, #120]	@ (10001af4 <runtime_init_clocks+0xcc>)
10001a7a:	f7ff fe57 	bl	1000172c <clock_configure_undivided>
10001a7e:	4621      	mov	r1, r4
10001a80:	4628      	mov	r0, r5
10001a82:	2200      	movs	r2, #0
10001a84:	4b1c      	ldr	r3, [pc, #112]	@ (10001af8 <runtime_init_clocks+0xd0>)
10001a86:	f7ff fe51 	bl	1000172c <clock_configure_undivided>
10001a8a:	2200      	movs	r2, #0
10001a8c:	2008      	movs	r0, #8
10001a8e:	4611      	mov	r1, r2
10001a90:	4b1a      	ldr	r3, [pc, #104]	@ (10001afc <runtime_init_clocks+0xd4>)
10001a92:	f7ff fe4b 	bl	1000172c <clock_configure_undivided>
10001a96:	2200      	movs	r2, #0
10001a98:	2009      	movs	r0, #9
10001a9a:	4611      	mov	r1, r2
10001a9c:	4b17      	ldr	r3, [pc, #92]	@ (10001afc <runtime_init_clocks+0xd4>)
10001a9e:	f7ff fe45 	bl	1000172c <clock_configure_undivided>
10001aa2:	2200      	movs	r2, #0
10001aa4:	2006      	movs	r0, #6
10001aa6:	4611      	mov	r1, r2
10001aa8:	4b13      	ldr	r3, [pc, #76]	@ (10001af8 <runtime_init_clocks+0xd0>)
10001aaa:	f7ff fe3f 	bl	1000172c <clock_configure_undivided>
10001aae:	2200      	movs	r2, #0
10001ab0:	4b11      	ldr	r3, [pc, #68]	@ (10001af8 <runtime_init_clocks+0xd0>)
10001ab2:	2007      	movs	r0, #7
10001ab4:	4611      	mov	r1, r2
10001ab6:	f7ff fe39 	bl	1000172c <clock_configure_undivided>
10001aba:	2004      	movs	r0, #4
10001abc:	f7ff fe9e 	bl	100017fc <clock_get_hz>
10001ac0:	2400      	movs	r4, #0
10001ac2:	4b0f      	ldr	r3, [pc, #60]	@ (10001b00 <runtime_init_clocks+0xd8>)
10001ac4:	fba3 3500 	umull	r3, r5, r3, r0
10001ac8:	0cad      	lsrs	r5, r5, #18
10001aca:	b2e0      	uxtb	r0, r4
10001acc:	4629      	mov	r1, r5
10001ace:	3401      	adds	r4, #1
10001ad0:	f7ff fee0 	bl	10001894 <tick_start>
10001ad4:	2c06      	cmp	r4, #6
10001ad6:	d1f8      	bne.n	10001aca <runtime_init_clocks+0xa2>
10001ad8:	b002      	add	sp, #8
10001ada:	bd70      	pop	{r4, r5, r6, pc}
10001adc:	40010000 	.word	0x40010000
10001ae0:	40013000 	.word	0x40013000
10001ae4:	59682f00 	.word	0x59682f00
10001ae8:	40050000 	.word	0x40050000
10001aec:	47868c00 	.word	0x47868c00
10001af0:	40058000 	.word	0x40058000
10001af4:	00b71b00 	.word	0x00b71b00
10001af8:	08f0d180 	.word	0x08f0d180
10001afc:	02dc6c00 	.word	0x02dc6c00
10001b00:	431bde83 	.word	0x431bde83

10001b04 <generic_save_state>:
10001b04:	b086      	sub	sp, #24
10001b06:	b403      	push	{r0, r1}
10001b08:	fc51 0408 	dcp_pxmd r0, r1
10001b0c:	e9cd 0102 	strd	r0, r1, [sp, #8]
10001b10:	fc51 0409 	dcp_pymd r0, r1
10001b14:	e9cd 0104 	strd	r0, r1, [sp, #16]
10001b18:	ec51 040a 	dcp_refd r0, r1
10001b1c:	e9cd 0106 	strd	r0, r1, [sp, #24]
10001b20:	bc03      	pop	{r0, r1}
10001b22:	47f0      	blx	lr

10001b24 <generic_restore_state>:
10001b24:	e8bd 5000 	ldmia.w	sp!, {ip, lr}
10001b28:	ec4e c400 	dcp_wxmd ip, lr
10001b2c:	e8bd 5000 	ldmia.w	sp!, {ip, lr}
10001b30:	ec4e c401 	dcp_wymd ip, lr
10001b34:	e8bd 5000 	ldmia.w	sp!, {ip, lr}
10001b38:	ec4e c402 	dcp_wefd ip, lr
10001b3c:	bd00      	pop	{pc}
10001b3e:	0000      	movs	r0, r0
10001b40:	b500      	push	{lr}
10001b42:	f7ff ffdf 	bl	10001b04 <generic_save_state>
10001b46:	e002      	b.n	10001b4e <__wrap___aeabi_dadd+0x6>

10001b48 <__wrap___aeabi_dadd>:
10001b48:	fe10 f430 	dcp_pcmp APSR_nzcv
10001b4c:	d4f8      	bmi.n	10001b40 <generic_restore_state+0x1c>
10001b4e:	ec41 0410 	dcp_wxup r0, r1
10001b52:	ec43 2411 	dcp_wyup r2, r3
10001b56:	ee00 0401 	dcp_add0
10001b5a:	ee10 0401 	dcp_add1
10001b5e:	ee80 0420 	dcp_nrdd
10001b62:	ec51 0410 	dcp_rdda r0, r1
10001b66:	4770      	bx	lr
10001b68:	b500      	push	{lr}
10001b6a:	f7ff ffcb 	bl	10001b04 <generic_save_state>
10001b6e:	e002      	b.n	10001b76 <__wrap___aeabi_dsub+0x6>

10001b70 <__wrap___aeabi_dsub>:
10001b70:	fe10 f430 	dcp_pcmp APSR_nzcv
10001b74:	d4f8      	bmi.n	10001b68 <__wrap___aeabi_dadd+0x20>
10001b76:	ec41 0410 	dcp_wxup r0, r1
10001b7a:	ec43 2411 	dcp_wyup r2, r3
10001b7e:	ee00 0401 	dcp_add0
10001b82:	ee10 0421 	dcp_sub1
10001b86:	ee80 0420 	dcp_nrdd
10001b8a:	ec51 0430 	dcp_rdds r0, r1
10001b8e:	4770      	bx	lr
10001b90:	b500      	push	{lr}
10001b92:	f7ff ffb7 	bl	10001b04 <generic_save_state>
10001b96:	e002      	b.n	10001b9e <__wrap___aeabi_dmul+0x6>

10001b98 <__wrap___aeabi_dmul>:
10001b98:	fe10 f430 	dcp_pcmp APSR_nzcv
10001b9c:	d4f8      	bmi.n	10001b90 <__wrap___aeabi_dsub+0x20>
10001b9e:	b510      	push	{r4, lr}
10001ba0:	ec41 0410 	dcp_wxup r0, r1
10001ba4:	ec43 2411 	dcp_wyup r2, r3
10001ba8:	ec51 0404 	dcp_rxms r0, r1, #0x0
10001bac:	ec53 2405 	dcp_ryms r2, r3, #0x0
10001bb0:	fba0 4c02 	umull	r4, ip, r0, r2
10001bb4:	f05f 0e00 	movs.w	lr, #0
10001bb8:	fbe0 ce03 	umlal	ip, lr, r0, r3
10001bbc:	fbe1 ce02 	umlal	ip, lr, r1, r2
10001bc0:	ec4c 4420 	dcp_wxms r4, ip
10001bc4:	2400      	movs	r4, #0
10001bc6:	fbe1 e403 	umlal	lr, r4, r1, r3
10001bca:	ec44 e430 	dcp_wxmo lr, r4
10001bce:	ee80 0420 	dcp_nrdd
10001bd2:	ec51 0450 	dcp_rddm r0, r1
10001bd6:	e8bd 4010 	ldmia.w	sp!, {r4, lr}
10001bda:	4770      	bx	lr
10001bdc:	b500      	push	{lr}
10001bde:	f7ff ff91 	bl	10001b04 <generic_save_state>
10001be2:	e002      	b.n	10001bea <__wrap___aeabi_ddiv+0x6>

10001be4 <__wrap___aeabi_ddiv>:
10001be4:	fe10 f430 	dcp_pcmp APSR_nzcv
10001be8:	d4f8      	bmi.n	10001bdc <__wrap___aeabi_dmul+0x44>
10001bea:	ec41 0410 	dcp_wxup r0, r1
10001bee:	ec43 2411 	dcp_wyup r2, r3
10001bf2:	ec51 0421 	dcp_rymr r0, r1
10001bf6:	fba0 1201 	umull	r1, r2, r0, r1
10001bfa:	ea6f 0282 	mvn.w	r2, r2, lsl #2
10001bfe:	fb52 0010 	smmlar	r0, r2, r0, r0
10001c02:	fb52 f212 	smmulr	r2, r2, r2
10001c06:	fb52 0010 	smmlar	r0, r2, r0, r0
10001c0a:	eba0 7cd0 	sub.w	ip, r0, r0, lsr #31
10001c0e:	ec53 2404 	dcp_rxms r2, r3, #0x0
10001c12:	fb5c f113 	smmulr	r1, ip, r3
10001c16:	ec53 2415 	dcp_ryms r2, r3, #0x1
10001c1a:	fba1 2002 	umull	r2, r0, r1, r2
10001c1e:	fb01 0003 	mla	r0, r1, r3, r0
10001c22:	ec53 2444 	dcp_rxms r2, r3, #0x4
10001c26:	eba2 0000 	sub.w	r0, r2, r0
10001c2a:	fb50 f21c 	smmulr	r2, r0, ip
10001c2e:	ea4f 1311 	mov.w	r3, r1, lsr #4
10001c32:	eb12 7001 	adds.w	r0, r2, r1, lsl #28
10001c36:	eb43 71e2 	adc.w	r1, r3, r2, asr #31
10001c3a:	ea40 5051 	orr.w	r0, r0, r1, lsr #21
10001c3e:	ea20 5091 	bic.w	r0, r0, r1, lsr #22
10001c42:	f020 0007 	bic.w	r0, r0, #7
10001c46:	ec53 2475 	dcp_ryms r2, r3, #0x7
10001c4a:	fba0 3c02 	umull	r3, ip, r0, r2
10001c4e:	ec53 2475 	dcp_ryms r2, r3, #0x7
10001c52:	fb00 cc03 	mla	ip, r0, r3, ip
10001c56:	fb01 cc02 	mla	ip, r1, r2, ip
10001c5a:	ec53 2404 	dcp_rxms r2, r3, #0x0
10001c5e:	ebac 4c82 	sub.w	ip, ip, r2, lsl #18
10001c62:	ea40 705c 	orr.w	r0, r0, ip, lsr #29
10001c66:	f1a0 0001 	sub.w	r0, r0, #1
10001c6a:	ec41 0440 	dcp_wxdd r0, r1
10001c6e:	ee80 0420 	dcp_nrdd
10001c72:	ec51 0470 	dcp_rddd r0, r1
10001c76:	4770      	bx	lr
10001c78:	b500      	push	{lr}
10001c7a:	f7ff ff43 	bl	10001b04 <generic_save_state>
10001c7e:	e002      	b.n	10001c86 <__wrap___aeabi_i2d+0x6>

10001c80 <__wrap___aeabi_i2d>:
10001c80:	fe10 f430 	dcp_pcmp APSR_nzcv
10001c84:	d4f8      	bmi.n	10001c78 <__wrap___aeabi_ddiv+0x94>
10001c86:	ec40 0470 	dcp_wxic r0, r0
10001c8a:	ee00 0401 	dcp_add0
10001c8e:	ee10 0421 	dcp_sub1
10001c92:	ee80 0420 	dcp_nrdd
10001c96:	ec51 0430 	dcp_rdds r0, r1
10001c9a:	4770      	bx	lr
10001c9c:	b500      	push	{lr}
10001c9e:	f7ff ff31 	bl	10001b04 <generic_save_state>
10001ca2:	e002      	b.n	10001caa <__wrap___aeabi_ui2d+0x6>

10001ca4 <__wrap___aeabi_ui2d>:
10001ca4:	fe10 f430 	dcp_pcmp APSR_nzcv
10001ca8:	d4f8      	bmi.n	10001c9c <__wrap___aeabi_i2d+0x1c>
10001caa:	ec40 0460 	dcp_wxuc r0, r0
10001cae:	ee00 0401 	dcp_add0
10001cb2:	ee10 0421 	dcp_sub1
10001cb6:	ee80 0420 	dcp_nrdd
10001cba:	ec51 0430 	dcp_rdds r0, r1
10001cbe:	4770      	bx	lr
10001cc0:	b500      	push	{lr}
10001cc2:	f7ff ff1f 	bl	10001b04 <generic_save_state>
10001cc6:	e002      	b.n	10001cce <__wrap___aeabi_d2iz+0x6>

10001cc8 <__wrap___aeabi_d2iz>:
10001cc8:	fe10 f430 	dcp_pcmp APSR_nzcv
10001ccc:	d4f8      	bmi.n	10001cc0 <__wrap___aeabi_ui2d+0x1c>
10001cce:	ec41 0480 	dcp_wxdc r0, r1
10001cd2:	ee00 0401 	dcp_add0
10001cd6:	ee10 0401 	dcp_add1
10001cda:	ee80 0440 	dcp_ntdc
10001cde:	ee10 0413 	dcp_rdic r0
10001ce2:	4770      	bx	lr
10001ce4:	b500      	push	{lr}
10001ce6:	f7ff ff0d 	bl	10001b04 <generic_save_state>
10001cea:	e002      	b.n	10001cf2 <__wrap___aeabi_d2uiz+0x6>

10001cec <__wrap___aeabi_d2uiz>:
10001cec:	fe10 f430 	dcp_pcmp APSR_nzcv
10001cf0:	d4f8      	bmi.n	10001ce4 <__wrap___aeabi_d2iz+0x1c>
10001cf2:	ec41 0480 	dcp_wxdc r0, r1
10001cf6:	ee00 0401 	dcp_add0
10001cfa:	ee10 0401 	dcp_add1
10001cfe:	ee80 0440 	dcp_ntdc
10001d02:	ee10 0433 	dcp_rduc r0
10001d06:	4770      	bx	lr
10001d08:	b500      	push	{lr}
10001d0a:	f7ff fefb 	bl	10001b04 <generic_save_state>
10001d0e:	e002      	b.n	10001d16 <__wrap___aeabi_dcmpun+0x6>

10001d10 <__wrap___aeabi_dcmpun>:
10001d10:	fe10 f430 	dcp_pcmp APSR_nzcv
10001d14:	d4f8      	bmi.n	10001d08 <__wrap___aeabi_d2uiz+0x1c>
10001d16:	ec41 0410 	dcp_wxup r0, r1
10001d1a:	ec43 2411 	dcp_wyup r2, r3
10001d1e:	ee00 0401 	dcp_add0
10001d22:	ee10 0430 	dcp_rcmp r0
10001d26:	f3c0 7000 	ubfx	r0, r0, #28, #1
10001d2a:	4770      	bx	lr
10001d2c:	b500      	push	{lr}
10001d2e:	f7ff fee9 	bl	10001b04 <generic_save_state>
10001d32:	e002      	b.n	10001d3a <__wrap___aeabi_dcmplt+0x6>

10001d34 <__wrap___aeabi_dcmplt>:
10001d34:	fe10 f430 	dcp_pcmp APSR_nzcv
10001d38:	d4f8      	bmi.n	10001d2c <__wrap___aeabi_dcmpun+0x1c>
10001d3a:	ec43 2410 	dcp_wxup r2, r3
10001d3e:	ec41 0411 	dcp_wyup r0, r1
10001d42:	ee00 0401 	dcp_add0
10001d46:	ee10 f430 	dcp_rcmp APSR_nzcv
10001d4a:	bf8c      	ite	hi
10001d4c:	2001      	movhi	r0, #1
10001d4e:	2000      	movls	r0, #0
10001d50:	4770      	bx	lr
10001d52:	bf00      	nop
10001d54:	b500      	push	{lr}
10001d56:	f7ff fed5 	bl	10001b04 <generic_save_state>
10001d5a:	e002      	b.n	10001d62 <__wrap___aeabi_dcmpge+0x6>

10001d5c <__wrap___aeabi_dcmpge>:
10001d5c:	fe10 f430 	dcp_pcmp APSR_nzcv
10001d60:	d4f8      	bmi.n	10001d54 <__wrap___aeabi_dcmplt+0x20>
10001d62:	ec41 0410 	dcp_wxup r0, r1
10001d66:	ec43 2411 	dcp_wyup r2, r3
10001d6a:	ee00 0401 	dcp_add0
10001d6e:	ee10 f430 	dcp_rcmp APSR_nzcv
10001d72:	bf2c      	ite	cs
10001d74:	2001      	movcs	r0, #1
10001d76:	2000      	movcc	r0, #0
10001d78:	4770      	bx	lr
10001d7a:	bf00      	nop
10001d7c:	b500      	push	{lr}
10001d7e:	f7ff fec1 	bl	10001b04 <generic_save_state>
10001d82:	e002      	b.n	10001d8a <__wrap___aeabi_dcmpgt+0x6>

10001d84 <__wrap___aeabi_dcmpgt>:
10001d84:	fe10 f430 	dcp_pcmp APSR_nzcv
10001d88:	d4f8      	bmi.n	10001d7c <__wrap___aeabi_dcmpge+0x20>
10001d8a:	ec41 0410 	dcp_wxup r0, r1
10001d8e:	ec43 2411 	dcp_wyup r2, r3
10001d92:	ee00 0401 	dcp_add0
10001d96:	ee10 f430 	dcp_rcmp APSR_nzcv
10001d9a:	bf8c      	ite	hi
10001d9c:	2001      	movhi	r0, #1
10001d9e:	2000      	movls	r0, #0
10001da0:	4770      	bx	lr
10001da2:	bf00      	nop

10001da4 <_out_buffer>:
10001da4:	429a      	cmp	r2, r3
10001da6:	bf38      	it	cc
10001da8:	5488      	strbcc	r0, [r1, r2]
10001daa:	4770      	bx	lr

10001dac <_out_null>:
10001dac:	4770      	bx	lr
10001dae:	bf00      	nop

10001db0 <_out_rev>:
10001db0:	e92d 4ff0 	stmdb	sp!, {r4, r5, r6, r7, r8, r9, sl, fp, lr}
10001db4:	b083      	sub	sp, #12
10001db6:	4699      	mov	r9, r3
10001db8:	e9dd ab0d 	ldrd	sl, fp, [sp, #52]	@ 0x34
10001dbc:	9b0f      	ldr	r3, [sp, #60]	@ 0x3c
10001dbe:	4688      	mov	r8, r1
10001dc0:	4611      	mov	r1, r2
10001dc2:	079a      	lsls	r2, r3, #30
10001dc4:	4607      	mov	r7, r0
10001dc6:	d116      	bne.n	10001df6 <_out_rev+0x46>
10001dc8:	45da      	cmp	sl, fp
10001dca:	d23a      	bcs.n	10001e42 <_out_rev+0x92>
10001dcc:	460c      	mov	r4, r1
10001dce:	460d      	mov	r5, r1
10001dd0:	ebab 060a 	sub.w	r6, fp, sl
10001dd4:	440e      	add	r6, r1
10001dd6:	4622      	mov	r2, r4
10001dd8:	464b      	mov	r3, r9
10001dda:	4641      	mov	r1, r8
10001ddc:	2020      	movs	r0, #32
10001dde:	3401      	adds	r4, #1
10001de0:	47b8      	blx	r7
10001de2:	42b4      	cmp	r4, r6
10001de4:	d1f7      	bne.n	10001dd6 <_out_rev+0x26>
10001de6:	4629      	mov	r1, r5
10001de8:	f1ba 0f00 	cmp.w	sl, #0
10001dec:	d108      	bne.n	10001e00 <_out_rev+0x50>
10001dee:	4620      	mov	r0, r4
10001df0:	b003      	add	sp, #12
10001df2:	e8bd 8ff0 	ldmia.w	sp!, {r4, r5, r6, r7, r8, r9, sl, fp, pc}
10001df6:	460c      	mov	r4, r1
10001df8:	f1ba 0f00 	cmp.w	sl, #0
10001dfc:	d010      	beq.n	10001e20 <_out_rev+0x70>
10001dfe:	460e      	mov	r6, r1
10001e00:	4655      	mov	r5, sl
10001e02:	9b0c      	ldr	r3, [sp, #48]	@ 0x30
10001e04:	442e      	add	r6, r5
10001e06:	449a      	add	sl, r3
10001e08:	9101      	str	r1, [sp, #4]
10001e0a:	1b72      	subs	r2, r6, r5
10001e0c:	464b      	mov	r3, r9
10001e0e:	3d01      	subs	r5, #1
10001e10:	4641      	mov	r1, r8
10001e12:	f81a 0d01 	ldrb.w	r0, [sl, #-1]!
10001e16:	4634      	mov	r4, r6
10001e18:	47b8      	blx	r7
10001e1a:	2d00      	cmp	r5, #0
10001e1c:	d1f5      	bne.n	10001e0a <_out_rev+0x5a>
10001e1e:	9901      	ldr	r1, [sp, #4]
10001e20:	9b0f      	ldr	r3, [sp, #60]	@ 0x3c
10001e22:	079b      	lsls	r3, r3, #30
10001e24:	d5e3      	bpl.n	10001dee <_out_rev+0x3e>
10001e26:	1a65      	subs	r5, r4, r1
10001e28:	45ab      	cmp	fp, r5
10001e2a:	d9e0      	bls.n	10001dee <_out_rev+0x3e>
10001e2c:	4622      	mov	r2, r4
10001e2e:	464b      	mov	r3, r9
10001e30:	4641      	mov	r1, r8
10001e32:	2020      	movs	r0, #32
10001e34:	3501      	adds	r5, #1
10001e36:	47b8      	blx	r7
10001e38:	455d      	cmp	r5, fp
10001e3a:	f104 0401 	add.w	r4, r4, #1
10001e3e:	d3f5      	bcc.n	10001e2c <_out_rev+0x7c>
10001e40:	e7d5      	b.n	10001dee <_out_rev+0x3e>
10001e42:	f1ba 0f00 	cmp.w	sl, #0
10001e46:	d1da      	bne.n	10001dfe <_out_rev+0x4e>
10001e48:	460c      	mov	r4, r1
10001e4a:	e7d0      	b.n	10001dee <_out_rev+0x3e>

10001e4c <_ntoa_format>:
10001e4c:	e92d 4ff0 	stmdb	sp!, {r4, r5, r6, r7, r8, r9, sl, fp, lr}
10001e50:	9f0f      	ldr	r7, [sp, #60]	@ 0x3c
10001e52:	f8dd e024 	ldr.w	lr, [sp, #36]	@ 0x24
10001e56:	f017 0f02 	tst.w	r7, #2
10001e5a:	9c0a      	ldr	r4, [sp, #40]	@ 0x28
10001e5c:	f89d 902c 	ldrb.w	r9, [sp, #44]	@ 0x2c
10001e60:	9d0e      	ldr	r5, [sp, #56]	@ 0x38
10001e62:	e9dd 860c 	ldrd	r8, r6, [sp, #48]	@ 0x30
10001e66:	d129      	bne.n	10001ebc <_ntoa_format+0x70>
10001e68:	2d00      	cmp	r5, #0
10001e6a:	d16f      	bne.n	10001f4c <_ntoa_format+0x100>
10001e6c:	42b4      	cmp	r4, r6
10001e6e:	d225      	bcs.n	10001ebc <_ntoa_format+0x70>
10001e70:	2c20      	cmp	r4, #32
10001e72:	f007 0b01 	and.w	fp, r7, #1
10001e76:	f000 8112 	beq.w	1000209e <_ntoa_format+0x252>
10001e7a:	f104 3cff 	add.w	ip, r4, #4294967295
10001e7e:	f04f 0a30 	mov.w	sl, #48	@ 0x30
10001e82:	44f4      	add	ip, lr
10001e84:	e001      	b.n	10001e8a <_ntoa_format+0x3e>
10001e86:	2c20      	cmp	r4, #32
10001e88:	d07a      	beq.n	10001f80 <_ntoa_format+0x134>
10001e8a:	3401      	adds	r4, #1
10001e8c:	42a6      	cmp	r6, r4
10001e8e:	f80c af01 	strb.w	sl, [ip, #1]!
10001e92:	d8f8      	bhi.n	10001e86 <_ntoa_format+0x3a>
10001e94:	f1bb 0f00 	cmp.w	fp, #0
10001e98:	d010      	beq.n	10001ebc <_ntoa_format+0x70>
10001e9a:	42ac      	cmp	r4, r5
10001e9c:	d20e      	bcs.n	10001ebc <_ntoa_format+0x70>
10001e9e:	2c20      	cmp	r4, #32
10001ea0:	d074      	beq.n	10001f8c <_ntoa_format+0x140>
10001ea2:	f104 3cff 	add.w	ip, r4, #4294967295
10001ea6:	f04f 0a30 	mov.w	sl, #48	@ 0x30
10001eaa:	44f4      	add	ip, lr
10001eac:	e001      	b.n	10001eb2 <_ntoa_format+0x66>
10001eae:	2c20      	cmp	r4, #32
10001eb0:	d029      	beq.n	10001f06 <_ntoa_format+0xba>
10001eb2:	3401      	adds	r4, #1
10001eb4:	42ac      	cmp	r4, r5
10001eb6:	f80c af01 	strb.w	sl, [ip, #1]!
10001eba:	d1f8      	bne.n	10001eae <_ntoa_format+0x62>
10001ebc:	f017 0f10 	tst.w	r7, #16
10001ec0:	d03a      	beq.n	10001f38 <_ntoa_format+0xec>
10001ec2:	f417 6f80 	tst.w	r7, #1024	@ 0x400
10001ec6:	d128      	bne.n	10001f1a <_ntoa_format+0xce>
10001ec8:	bb1c      	cbnz	r4, 10001f12 <_ntoa_format+0xc6>
10001eca:	f1b8 0f10 	cmp.w	r8, #16
10001ece:	f000 80ca 	beq.w	10002066 <_ntoa_format+0x21a>
10001ed2:	f1b8 0f02 	cmp.w	r8, #2
10001ed6:	f000 80d4 	beq.w	10002082 <_ntoa_format+0x236>
10001eda:	2430      	movs	r4, #48	@ 0x30
10001edc:	f88e 4000 	strb.w	r4, [lr]
10001ee0:	2401      	movs	r4, #1
10001ee2:	f1b9 0f00 	cmp.w	r9, #0
10001ee6:	d167      	bne.n	10001fb8 <_ntoa_format+0x16c>
10001ee8:	077e      	lsls	r6, r7, #29
10001eea:	f140 80aa 	bpl.w	10002042 <_ntoa_format+0x1f6>
10001eee:	262b      	movs	r6, #43	@ 0x2b
10001ef0:	f80e 6004 	strb.w	r6, [lr, r4]
10001ef4:	3401      	adds	r4, #1
10001ef6:	e9cd 570b 	strd	r5, r7, [sp, #44]	@ 0x2c
10001efa:	e9cd e409 	strd	lr, r4, [sp, #36]	@ 0x24
10001efe:	e8bd 4ff0 	ldmia.w	sp!, {r4, r5, r6, r7, r8, r9, sl, fp, lr}
10001f02:	f7ff bf55 	b.w	10001db0 <_out_rev>
10001f06:	06fc      	lsls	r4, r7, #27
10001f08:	f140 8089 	bpl.w	1000201e <_ntoa_format+0x1d2>
10001f0c:	057c      	lsls	r4, r7, #21
10001f0e:	d435      	bmi.n	10001f7c <_ntoa_format+0x130>
10001f10:	2420      	movs	r4, #32
10001f12:	42a6      	cmp	r6, r4
10001f14:	d06a      	beq.n	10001fec <_ntoa_format+0x1a0>
10001f16:	42ac      	cmp	r4, r5
10001f18:	d068      	beq.n	10001fec <_ntoa_format+0x1a0>
10001f1a:	f1b8 0f10 	cmp.w	r8, #16
10001f1e:	f000 8087 	beq.w	10002030 <_ntoa_format+0x1e4>
10001f22:	f1b8 0f02 	cmp.w	r8, #2
10001f26:	d05a      	beq.n	10001fde <_ntoa_format+0x192>
10001f28:	2c20      	cmp	r4, #32
10001f2a:	d0e4      	beq.n	10001ef6 <_ntoa_format+0xaa>
10001f2c:	4626      	mov	r6, r4
10001f2e:	3401      	adds	r4, #1
10001f30:	f04f 0c30 	mov.w	ip, #48	@ 0x30
10001f34:	f80e c006 	strb.w	ip, [lr, r6]
10001f38:	2c20      	cmp	r4, #32
10001f3a:	d1d2      	bne.n	10001ee2 <_ntoa_format+0x96>
10001f3c:	e9cd 570b 	strd	r5, r7, [sp, #44]	@ 0x2c
10001f40:	e9cd e409 	strd	lr, r4, [sp, #36]	@ 0x24
10001f44:	e8bd 4ff0 	ldmia.w	sp!, {r4, r5, r6, r7, r8, r9, sl, fp, lr}
10001f48:	f7ff bf32 	b.w	10001db0 <_out_rev>
10001f4c:	f017 0b01 	ands.w	fp, r7, #1
10001f50:	d03e      	beq.n	10001fd0 <_ntoa_format+0x184>
10001f52:	f1b9 0f00 	cmp.w	r9, #0
10001f56:	d147      	bne.n	10001fe8 <_ntoa_format+0x19c>
10001f58:	f017 0f0c 	tst.w	r7, #12
10001f5c:	d144      	bne.n	10001fe8 <_ntoa_format+0x19c>
10001f5e:	42b4      	cmp	r4, r6
10001f60:	d29b      	bcs.n	10001e9a <_ntoa_format+0x4e>
10001f62:	2c20      	cmp	r4, #32
10001f64:	d189      	bne.n	10001e7a <_ntoa_format+0x2e>
10001f66:	2d20      	cmp	r5, #32
10001f68:	d810      	bhi.n	10001f8c <_ntoa_format+0x140>
10001f6a:	06fc      	lsls	r4, r7, #27
10001f6c:	d557      	bpl.n	1000201e <_ntoa_format+0x1d2>
10001f6e:	057c      	lsls	r4, r7, #21
10001f70:	d455      	bmi.n	1000201e <_ntoa_format+0x1d2>
10001f72:	2e20      	cmp	r6, #32
10001f74:	f000 80b9 	beq.w	100020ea <_ntoa_format+0x29e>
10001f78:	2d20      	cmp	r5, #32
10001f7a:	d010      	beq.n	10001f9e <_ntoa_format+0x152>
10001f7c:	2420      	movs	r4, #32
10001f7e:	e7cc      	b.n	10001f1a <_ntoa_format+0xce>
10001f80:	f1bb 0f00 	cmp.w	fp, #0
10001f84:	f000 80a5 	beq.w	100020d2 <_ntoa_format+0x286>
10001f88:	2d20      	cmp	r5, #32
10001f8a:	d9bc      	bls.n	10001f06 <_ntoa_format+0xba>
10001f8c:	06fc      	lsls	r4, r7, #27
10001f8e:	d546      	bpl.n	1000201e <_ntoa_format+0x1d2>
10001f90:	057c      	lsls	r4, r7, #21
10001f92:	d444      	bmi.n	1000201e <_ntoa_format+0x1d2>
10001f94:	2e20      	cmp	r6, #32
10001f96:	f000 80a8 	beq.w	100020ea <_ntoa_format+0x29e>
10001f9a:	2d20      	cmp	r5, #32
10001f9c:	d13f      	bne.n	1000201e <_ntoa_format+0x1d2>
10001f9e:	462c      	mov	r4, r5
10001fa0:	261f      	movs	r6, #31
10001fa2:	f1b8 0f10 	cmp.w	r8, #16
10001fa6:	d07f      	beq.n	100020a8 <_ntoa_format+0x25c>
10001fa8:	f1b8 0f02 	cmp.w	r8, #2
10001fac:	d1c0      	bne.n	10001f30 <_ntoa_format+0xe4>
10001fae:	f04f 0c62 	mov.w	ip, #98	@ 0x62
10001fb2:	f80e c006 	strb.w	ip, [lr, r6]
10001fb6:	e7b7      	b.n	10001f28 <_ntoa_format+0xdc>
10001fb8:	262d      	movs	r6, #45	@ 0x2d
10001fba:	f80e 6004 	strb.w	r6, [lr, r4]
10001fbe:	3401      	adds	r4, #1
10001fc0:	e9cd 570b 	strd	r5, r7, [sp, #44]	@ 0x2c
10001fc4:	e9cd e409 	strd	lr, r4, [sp, #36]	@ 0x24
10001fc8:	e8bd 4ff0 	ldmia.w	sp!, {r4, r5, r6, r7, r8, r9, sl, fp, lr}
10001fcc:	f7ff bef0 	b.w	10001db0 <_out_rev>
10001fd0:	42b4      	cmp	r4, r6
10001fd2:	f4bf af73 	bcs.w	10001ebc <_ntoa_format+0x70>
10001fd6:	2c20      	cmp	r4, #32
10001fd8:	f47f af4f 	bne.w	10001e7a <_ntoa_format+0x2e>
10001fdc:	e7d6      	b.n	10001f8c <_ntoa_format+0x140>
10001fde:	2c20      	cmp	r4, #32
10001fe0:	d089      	beq.n	10001ef6 <_ntoa_format+0xaa>
10001fe2:	4626      	mov	r6, r4
10001fe4:	3401      	adds	r4, #1
10001fe6:	e7e2      	b.n	10001fae <_ntoa_format+0x162>
10001fe8:	3d01      	subs	r5, #1
10001fea:	e7b8      	b.n	10001f5e <_ntoa_format+0x112>
10001fec:	1e66      	subs	r6, r4, #1
10001fee:	d1d8      	bne.n	10001fa2 <_ntoa_format+0x156>
10001ff0:	f1b8 0f10 	cmp.w	r8, #16
10001ff4:	d064      	beq.n	100020c0 <_ntoa_format+0x274>
10001ff6:	f1b8 0f02 	cmp.w	r8, #2
10001ffa:	f47f af6e 	bne.w	10001eda <_ntoa_format+0x8e>
10001ffe:	2662      	movs	r6, #98	@ 0x62
10002000:	f88e 6000 	strb.w	r6, [lr]
10002004:	2630      	movs	r6, #48	@ 0x30
10002006:	4644      	mov	r4, r8
10002008:	f88e 6001 	strb.w	r6, [lr, #1]
1000200c:	f1b9 0f00 	cmp.w	r9, #0
10002010:	f43f af6a 	beq.w	10001ee8 <_ntoa_format+0x9c>
10002014:	e7d0      	b.n	10001fb8 <_ntoa_format+0x16c>
10002016:	f1b8 0f10 	cmp.w	r8, #16
1000201a:	f47f af6c 	bne.w	10001ef6 <_ntoa_format+0xaa>
1000201e:	2420      	movs	r4, #32
10002020:	e9cd 570b 	strd	r5, r7, [sp, #44]	@ 0x2c
10002024:	e9cd e409 	strd	lr, r4, [sp, #36]	@ 0x24
10002028:	e8bd 4ff0 	ldmia.w	sp!, {r4, r5, r6, r7, r8, r9, sl, fp, lr}
1000202c:	f7ff bec0 	b.w	10001db0 <_out_rev>
10002030:	06be      	lsls	r6, r7, #26
10002032:	d40e      	bmi.n	10002052 <_ntoa_format+0x206>
10002034:	2c20      	cmp	r4, #32
10002036:	d0f2      	beq.n	1000201e <_ntoa_format+0x1d2>
10002038:	2678      	movs	r6, #120	@ 0x78
1000203a:	f80e 6004 	strb.w	r6, [lr, r4]
1000203e:	3401      	adds	r4, #1
10002040:	e772      	b.n	10001f28 <_ntoa_format+0xdc>
10002042:	073e      	lsls	r6, r7, #28
10002044:	f57f af57 	bpl.w	10001ef6 <_ntoa_format+0xaa>
10002048:	2620      	movs	r6, #32
1000204a:	f80e 6004 	strb.w	r6, [lr, r4]
1000204e:	3401      	adds	r4, #1
10002050:	e751      	b.n	10001ef6 <_ntoa_format+0xaa>
10002052:	2c20      	cmp	r4, #32
10002054:	d0e3      	beq.n	1000201e <_ntoa_format+0x1d2>
10002056:	f04f 0c58 	mov.w	ip, #88	@ 0x58
1000205a:	eb0e 0604 	add.w	r6, lr, r4
1000205e:	f886 c000 	strb.w	ip, [r6]
10002062:	3401      	adds	r4, #1
10002064:	e760      	b.n	10001f28 <_ntoa_format+0xdc>
10002066:	06be      	lsls	r6, r7, #26
10002068:	d517      	bpl.n	1000209a <_ntoa_format+0x24e>
1000206a:	2458      	movs	r4, #88	@ 0x58
1000206c:	f88e 4000 	strb.w	r4, [lr]
10002070:	2430      	movs	r4, #48	@ 0x30
10002072:	f88e 4001 	strb.w	r4, [lr, #1]
10002076:	2402      	movs	r4, #2
10002078:	f1b9 0f00 	cmp.w	r9, #0
1000207c:	f43f af34 	beq.w	10001ee8 <_ntoa_format+0x9c>
10002080:	e79a      	b.n	10001fb8 <_ntoa_format+0x16c>
10002082:	2462      	movs	r4, #98	@ 0x62
10002084:	f88e 4000 	strb.w	r4, [lr]
10002088:	2430      	movs	r4, #48	@ 0x30
1000208a:	f88e 4001 	strb.w	r4, [lr, #1]
1000208e:	2402      	movs	r4, #2
10002090:	f1b9 0f00 	cmp.w	r9, #0
10002094:	f43f af28 	beq.w	10001ee8 <_ntoa_format+0x9c>
10002098:	e78e      	b.n	10001fb8 <_ntoa_format+0x16c>
1000209a:	2478      	movs	r4, #120	@ 0x78
1000209c:	e7f2      	b.n	10002084 <_ntoa_format+0x238>
1000209e:	f1bb 0f00 	cmp.w	fp, #0
100020a2:	f47f af62 	bne.w	10001f6a <_ntoa_format+0x11e>
100020a6:	e771      	b.n	10001f8c <_ntoa_format+0x140>
100020a8:	f017 0f20 	tst.w	r7, #32
100020ac:	bf0c      	ite	eq
100020ae:	f04f 0c78 	moveq.w	ip, #120	@ 0x78
100020b2:	f04f 0c58 	movne.w	ip, #88	@ 0x58
100020b6:	1ea6      	subs	r6, r4, #2
100020b8:	f80e c006 	strb.w	ip, [lr, r6]
100020bc:	3c01      	subs	r4, #1
100020be:	e735      	b.n	10001f2c <_ntoa_format+0xe0>
100020c0:	06bc      	lsls	r4, r7, #26
100020c2:	d5ea      	bpl.n	1000209a <_ntoa_format+0x24e>
100020c4:	2458      	movs	r4, #88	@ 0x58
100020c6:	f88e 4000 	strb.w	r4, [lr]
100020ca:	2430      	movs	r4, #48	@ 0x30
100020cc:	f88e 4001 	strb.w	r4, [lr, #1]
100020d0:	e7dd      	b.n	1000208e <_ntoa_format+0x242>
100020d2:	f017 0f10 	tst.w	r7, #16
100020d6:	f43f af0e 	beq.w	10001ef6 <_ntoa_format+0xaa>
100020da:	f417 6f80 	tst.w	r7, #1024	@ 0x400
100020de:	d19a      	bne.n	10002016 <_ntoa_format+0x1ca>
100020e0:	2e20      	cmp	r6, #32
100020e2:	f47f af18 	bne.w	10001f16 <_ntoa_format+0xca>
100020e6:	261f      	movs	r6, #31
100020e8:	e75b      	b.n	10001fa2 <_ntoa_format+0x156>
100020ea:	4634      	mov	r4, r6
100020ec:	261f      	movs	r6, #31
100020ee:	e758      	b.n	10001fa2 <_ntoa_format+0x156>

100020f0 <_out_char>:
100020f0:	b900      	cbnz	r0, 100020f4 <_out_char+0x4>
100020f2:	4770      	bx	lr
100020f4:	f001 bae6 	b.w	100036c4 <__wrap_putchar>

100020f8 <_out_fct>:
100020f8:	b110      	cbz	r0, 10002100 <_out_fct+0x8>
100020fa:	e9d1 3100 	ldrd	r3, r1, [r1]
100020fe:	4718      	bx	r3
10002100:	4770      	bx	lr
10002102:	bf00      	nop
10002104:	0000      	movs	r0, r0
	...

10002108 <_etoa>:
10002108:	e92d 4ff0 	stmdb	sp!, {r4, r5, r6, r7, r8, r9, sl, fp, lr}
1000210c:	b09f      	sub	sp, #124	@ 0x7c
1000210e:	ed9d 7b28 	vldr	d7, [sp, #160]	@ 0xa0
10002112:	e9dd a52a 	ldrd	sl, r5, [sp, #168]	@ 0xa8
10002116:	ec58 7b17 	vmov	r7, r8, d7
1000211a:	4683      	mov	fp, r0
1000211c:	461e      	mov	r6, r3
1000211e:	910d      	str	r1, [sp, #52]	@ 0x34
10002120:	9210      	str	r2, [sp, #64]	@ 0x40
10002122:	4643      	mov	r3, r8
10002124:	463a      	mov	r2, r7
10002126:	4638      	mov	r0, r7
10002128:	4641      	mov	r1, r8
1000212a:	ed8d 7b08 	vstr	d7, [sp, #32]
1000212e:	9c2c      	ldr	r4, [sp, #176]	@ 0xb0
10002130:	f7ff fdee 	bl	10001d10 <__wrap___aeabi_dcmpun>
10002134:	2800      	cmp	r0, #0
10002136:	f040 80d8 	bne.w	100022ea <_etoa+0x1e2>
1000213a:	4638      	mov	r0, r7
1000213c:	4641      	mov	r1, r8
1000213e:	f04f 32ff 	mov.w	r2, #4294967295
10002142:	4b75      	ldr	r3, [pc, #468]	@ (10002318 <_etoa+0x210>)
10002144:	f7ff fe1e 	bl	10001d84 <__wrap___aeabi_dcmpgt>
10002148:	2800      	cmp	r0, #0
1000214a:	f040 80ce 	bne.w	100022ea <_etoa+0x1e2>
1000214e:	4638      	mov	r0, r7
10002150:	4641      	mov	r1, r8
10002152:	f04f 32ff 	mov.w	r2, #4294967295
10002156:	f46f 1380 	mvn.w	r3, #1048576	@ 0x100000
1000215a:	f7ff fdeb 	bl	10001d34 <__wrap___aeabi_dcmplt>
1000215e:	2800      	cmp	r0, #0
10002160:	f040 80c3 	bne.w	100022ea <_etoa+0x1e2>
10002164:	e9dd 7808 	ldrd	r7, r8, [sp, #32]
10002168:	2200      	movs	r2, #0
1000216a:	4638      	mov	r0, r7
1000216c:	4641      	mov	r1, r8
1000216e:	2300      	movs	r3, #0
10002170:	f7ff fde0 	bl	10001d34 <__wrap___aeabi_dcmplt>
10002174:	2800      	cmp	r0, #0
10002176:	f040 81c0 	bne.w	100024fa <_etoa+0x3f2>
1000217a:	e9cd 780a 	strd	r7, r8, [sp, #40]	@ 0x28
1000217e:	e9dd 230a 	ldrd	r2, r3, [sp, #40]	@ 0x28
10002182:	4690      	mov	r8, r2
10002184:	461f      	mov	r7, r3
10002186:	f414 6380 	ands.w	r3, r4, #1024	@ 0x400
1000218a:	bf08      	it	eq
1000218c:	f04f 0a06 	moveq.w	sl, #6
10002190:	9313      	str	r3, [sp, #76]	@ 0x4c
10002192:	f404 6200 	and.w	r2, r4, #2048	@ 0x800
10002196:	ea58 0307 	orrs.w	r3, r8, r7
1000219a:	9211      	str	r2, [sp, #68]	@ 0x44
1000219c:	f040 80c0 	bne.w	10002320 <_etoa+0x218>
100021a0:	2a00      	cmp	r2, #0
100021a2:	f000 81a2 	beq.w	100024ea <_etoa+0x3e2>
100021a6:	ed9f 7b5a 	vldr	d7, [pc, #360]	@ 10002310 <_etoa+0x208>
100021aa:	2700      	movs	r7, #0
100021ac:	ed8d 7b0e 	vstr	d7, [sp, #56]	@ 0x38
100021b0:	f04f 0900 	mov.w	r9, #0
100021b4:	45ba      	cmp	sl, r7
100021b6:	bfcc      	ite	gt
100021b8:	ebaa 0a07 	subgt.w	sl, sl, r7
100021bc:	f04f 0a00 	movle.w	sl, #0
100021c0:	464f      	mov	r7, r9
100021c2:	bfc8      	it	gt
100021c4:	f10a 3aff 	addgt.w	sl, sl, #4294967295
100021c8:	f444 6480 	orr.w	r4, r4, #1024	@ 0x400
100021cc:	454d      	cmp	r5, r9
100021ce:	bf94      	ite	ls
100021d0:	f04f 0800 	movls.w	r8, #0
100021d4:	eba5 0809 	subhi.w	r8, r5, r9
100021d8:	f014 0302 	ands.w	r3, r4, #2
100021dc:	9311      	str	r3, [sp, #68]	@ 0x44
100021de:	d004      	beq.n	100021ea <_etoa+0xe2>
100021e0:	f1b9 0f00 	cmp.w	r9, #0
100021e4:	bf18      	it	ne
100021e6:	f04f 0800 	movne.w	r8, #0
100021ea:	b13f      	cbz	r7, 100021fc <_etoa+0xf4>
100021ec:	e9dd 010a 	ldrd	r0, r1, [sp, #40]	@ 0x28
100021f0:	e9dd 230e 	ldrd	r2, r3, [sp, #56]	@ 0x38
100021f4:	f7ff fcf6 	bl	10001be4 <__wrap___aeabi_ddiv>
100021f8:	e9cd 010a 	strd	r0, r1, [sp, #40]	@ 0x28
100021fc:	e9dd 0108 	ldrd	r0, r1, [sp, #32]
10002200:	2200      	movs	r2, #0
10002202:	2300      	movs	r3, #0
10002204:	f7ff fd96 	bl	10001d34 <__wrap___aeabi_dcmplt>
10002208:	b130      	cbz	r0, 10002218 <_etoa+0x110>
1000220a:	e9dd 010a 	ldrd	r0, r1, [sp, #40]	@ 0x28
1000220e:	4602      	mov	r2, r0
10002210:	f101 4300 	add.w	r3, r1, #2147483648	@ 0x80000000
10002214:	e9cd 230a 	strd	r2, r3, [sp, #40]	@ 0x28
10002218:	ed9d 7b0a 	vldr	d7, [sp, #40]	@ 0x28
1000221c:	e9cd a802 	strd	sl, r8, [sp, #8]
10002220:	f8dd a034 	ldr.w	sl, [sp, #52]	@ 0x34
10002224:	f424 6300 	bic.w	r3, r4, #2048	@ 0x800
10002228:	9304      	str	r3, [sp, #16]
1000222a:	ed8d 7b00 	vstr	d7, [sp]
1000222e:	4633      	mov	r3, r6
10002230:	4651      	mov	r1, sl
10002232:	4658      	mov	r0, fp
10002234:	9a10      	ldr	r2, [sp, #64]	@ 0x40
10002236:	f000 f997 	bl	10002568 <_ftoa>
1000223a:	4680      	mov	r8, r0
1000223c:	f1b9 0f00 	cmp.w	r9, #0
10002240:	d04f      	beq.n	100022e2 <_etoa+0x1da>
10002242:	f014 0f20 	tst.w	r4, #32
10002246:	4602      	mov	r2, r0
10002248:	f100 0401 	add.w	r4, r0, #1
1000224c:	4633      	mov	r3, r6
1000224e:	bf0c      	ite	eq
10002250:	2065      	moveq	r0, #101	@ 0x65
10002252:	2045      	movne	r0, #69	@ 0x45
10002254:	4651      	mov	r1, sl
10002256:	47d8      	blx	fp
10002258:	f109 30ff 	add.w	r0, r9, #4294967295
1000225c:	ea87 7ce7 	eor.w	ip, r7, r7, asr #31
10002260:	f10d 0958 	add.w	r9, sp, #88	@ 0x58
10002264:	2200      	movs	r2, #0
10002266:	464b      	mov	r3, r9
10002268:	f8df 80b0 	ldr.w	r8, [pc, #176]	@ 1000231c <_etoa+0x214>
1000226c:	ebac 7ce7 	sub.w	ip, ip, r7, asr #31
10002270:	ea4f 7ed7 	mov.w	lr, r7, lsr #31
10002274:	e001      	b.n	1000227a <_etoa+0x172>
10002276:	2a20      	cmp	r2, #32
10002278:	d010      	beq.n	1000229c <_etoa+0x194>
1000227a:	46e2      	mov	sl, ip
1000227c:	fba8 710c 	umull	r7, r1, r8, ip
10002280:	08c9      	lsrs	r1, r1, #3
10002282:	eb01 0781 	add.w	r7, r1, r1, lsl #2
10002286:	ebac 0747 	sub.w	r7, ip, r7, lsl #1
1000228a:	3730      	adds	r7, #48	@ 0x30
1000228c:	f1ba 0f09 	cmp.w	sl, #9
10002290:	468c      	mov	ip, r1
10002292:	f102 0201 	add.w	r2, r2, #1
10002296:	f803 7b01 	strb.w	r7, [r3], #1
1000229a:	d8ec      	bhi.n	10002276 <_etoa+0x16e>
1000229c:	2305      	movs	r3, #5
1000229e:	9005      	str	r0, [sp, #20]
100022a0:	9306      	str	r3, [sp, #24]
100022a2:	2000      	movs	r0, #0
100022a4:	230a      	movs	r3, #10
100022a6:	9f0d      	ldr	r7, [sp, #52]	@ 0x34
100022a8:	e9cd 3003 	strd	r3, r0, [sp, #12]
100022ac:	e9cd 2e01 	strd	r2, lr, [sp, #4]
100022b0:	4633      	mov	r3, r6
100022b2:	4622      	mov	r2, r4
100022b4:	4639      	mov	r1, r7
100022b6:	4658      	mov	r0, fp
100022b8:	f8cd 9000 	str.w	r9, [sp]
100022bc:	f7ff fdc6 	bl	10001e4c <_ntoa_format>
100022c0:	9b11      	ldr	r3, [sp, #68]	@ 0x44
100022c2:	4680      	mov	r8, r0
100022c4:	b16b      	cbz	r3, 100022e2 <_etoa+0x1da>
100022c6:	9b10      	ldr	r3, [sp, #64]	@ 0x40
100022c8:	1ac4      	subs	r4, r0, r3
100022ca:	42a5      	cmp	r5, r4
100022cc:	d909      	bls.n	100022e2 <_etoa+0x1da>
100022ce:	4642      	mov	r2, r8
100022d0:	4633      	mov	r3, r6
100022d2:	4639      	mov	r1, r7
100022d4:	2020      	movs	r0, #32
100022d6:	3401      	adds	r4, #1
100022d8:	47d8      	blx	fp
100022da:	42a5      	cmp	r5, r4
100022dc:	f108 0801 	add.w	r8, r8, #1
100022e0:	d8f5      	bhi.n	100022ce <_etoa+0x1c6>
100022e2:	4640      	mov	r0, r8
100022e4:	b01f      	add	sp, #124	@ 0x7c
100022e6:	e8bd 8ff0 	ldmia.w	sp!, {r4, r5, r6, r7, r8, r9, sl, fp, pc}
100022ea:	ed9d 7b08 	vldr	d7, [sp, #32]
100022ee:	4633      	mov	r3, r6
100022f0:	4658      	mov	r0, fp
100022f2:	9a10      	ldr	r2, [sp, #64]	@ 0x40
100022f4:	990d      	ldr	r1, [sp, #52]	@ 0x34
100022f6:	ed8d 7b28 	vstr	d7, [sp, #160]	@ 0xa0
100022fa:	e9cd 542b 	strd	r5, r4, [sp, #172]	@ 0xac
100022fe:	f8cd a0a8 	str.w	sl, [sp, #168]	@ 0xa8
10002302:	b01f      	add	sp, #124	@ 0x7c
10002304:	e8bd 4ff0 	ldmia.w	sp!, {r4, r5, r6, r7, r8, r9, sl, fp, lr}
10002308:	f000 b92e 	b.w	10002568 <_ftoa>
1000230c:	f3af 8000 	nop.w
	...
10002318:	7fefffff 	.word	0x7fefffff
1000231c:	cccccccd 	.word	0xcccccccd
10002320:	f3c7 500a 	ubfx	r0, r7, #20, #11
10002324:	f2a0 30ff 	subw	r0, r0, #1023	@ 0x3ff
10002328:	f7ff fcaa 	bl	10001c80 <__wrap___aeabi_i2d>
1000232c:	a38a      	add	r3, pc, #552	@ (adr r3, 10002558 <_etoa+0x450>)
1000232e:	e9d3 2300 	ldrd	r2, r3, [r3]
10002332:	f7ff fc31 	bl	10001b98 <__wrap___aeabi_dmul>
10002336:	a38a      	add	r3, pc, #552	@ (adr r3, 10002560 <_etoa+0x458>)
10002338:	e9d3 2300 	ldrd	r2, r3, [r3]
1000233c:	f7ff fc04 	bl	10001b48 <__wrap___aeabi_dadd>
10002340:	f3c7 0713 	ubfx	r7, r7, #0, #20
10002344:	e9cd 010e 	strd	r0, r1, [sp, #56]	@ 0x38
10002348:	f047 517f 	orr.w	r1, r7, #1069547520	@ 0x3fc00000
1000234c:	4640      	mov	r0, r8
1000234e:	2200      	movs	r2, #0
10002350:	4b7b      	ldr	r3, [pc, #492]	@ (10002540 <_etoa+0x438>)
10002352:	f441 1140 	orr.w	r1, r1, #3145728	@ 0x300000
10002356:	f7ff fc0b 	bl	10001b70 <__wrap___aeabi_dsub>
1000235a:	a36b      	add	r3, pc, #428	@ (adr r3, 10002508 <_etoa+0x400>)
1000235c:	e9d3 2300 	ldrd	r2, r3, [r3]
10002360:	f7ff fc1a 	bl	10001b98 <__wrap___aeabi_dmul>
10002364:	4602      	mov	r2, r0
10002366:	460b      	mov	r3, r1
10002368:	e9dd 010e 	ldrd	r0, r1, [sp, #56]	@ 0x38
1000236c:	f7ff fbec 	bl	10001b48 <__wrap___aeabi_dadd>
10002370:	f7ff fcaa 	bl	10001cc8 <__wrap___aeabi_d2iz>
10002374:	4607      	mov	r7, r0
10002376:	f7ff fc83 	bl	10001c80 <__wrap___aeabi_i2d>
1000237a:	a365      	add	r3, pc, #404	@ (adr r3, 10002510 <_etoa+0x408>)
1000237c:	e9d3 2300 	ldrd	r2, r3, [r3]
10002380:	4680      	mov	r8, r0
10002382:	4689      	mov	r9, r1
10002384:	f7ff fc08 	bl	10001b98 <__wrap___aeabi_dmul>
10002388:	2200      	movs	r2, #0
1000238a:	4b6e      	ldr	r3, [pc, #440]	@ (10002544 <_etoa+0x43c>)
1000238c:	f7ff fbdc 	bl	10001b48 <__wrap___aeabi_dadd>
10002390:	f7ff fc9a 	bl	10001cc8 <__wrap___aeabi_d2iz>
10002394:	4603      	mov	r3, r0
10002396:	4649      	mov	r1, r9
10002398:	4640      	mov	r0, r8
1000239a:	9312      	str	r3, [sp, #72]	@ 0x48
1000239c:	a35e      	add	r3, pc, #376	@ (adr r3, 10002518 <_etoa+0x410>)
1000239e:	e9d3 2300 	ldrd	r2, r3, [r3]
100023a2:	f7ff fbf9 	bl	10001b98 <__wrap___aeabi_dmul>
100023a6:	4680      	mov	r8, r0
100023a8:	9812      	ldr	r0, [sp, #72]	@ 0x48
100023aa:	4689      	mov	r9, r1
100023ac:	f7ff fc68 	bl	10001c80 <__wrap___aeabi_i2d>
100023b0:	a35b      	add	r3, pc, #364	@ (adr r3, 10002520 <_etoa+0x418>)
100023b2:	e9d3 2300 	ldrd	r2, r3, [r3]
100023b6:	f7ff fbef 	bl	10001b98 <__wrap___aeabi_dmul>
100023ba:	4602      	mov	r2, r0
100023bc:	460b      	mov	r3, r1
100023be:	4640      	mov	r0, r8
100023c0:	4649      	mov	r1, r9
100023c2:	f7ff fbd5 	bl	10001b70 <__wrap___aeabi_dsub>
100023c6:	4602      	mov	r2, r0
100023c8:	460b      	mov	r3, r1
100023ca:	4680      	mov	r8, r0
100023cc:	4689      	mov	r9, r1
100023ce:	f7ff fbe3 	bl	10001b98 <__wrap___aeabi_dmul>
100023d2:	4642      	mov	r2, r8
100023d4:	464b      	mov	r3, r9
100023d6:	e9cd 010e 	strd	r0, r1, [sp, #56]	@ 0x38
100023da:	4640      	mov	r0, r8
100023dc:	4649      	mov	r1, r9
100023de:	f7ff fbb3 	bl	10001b48 <__wrap___aeabi_dadd>
100023e2:	2200      	movs	r2, #0
100023e4:	e9cd 0114 	strd	r0, r1, [sp, #80]	@ 0x50
100023e8:	e9dd 010e 	ldrd	r0, r1, [sp, #56]	@ 0x38
100023ec:	4b56      	ldr	r3, [pc, #344]	@ (10002548 <_etoa+0x440>)
100023ee:	f7ff fbf9 	bl	10001be4 <__wrap___aeabi_ddiv>
100023f2:	2200      	movs	r2, #0
100023f4:	4b55      	ldr	r3, [pc, #340]	@ (1000254c <_etoa+0x444>)
100023f6:	f7ff fba7 	bl	10001b48 <__wrap___aeabi_dadd>
100023fa:	4602      	mov	r2, r0
100023fc:	460b      	mov	r3, r1
100023fe:	e9dd 010e 	ldrd	r0, r1, [sp, #56]	@ 0x38
10002402:	f7ff fbef 	bl	10001be4 <__wrap___aeabi_ddiv>
10002406:	2200      	movs	r2, #0
10002408:	4b51      	ldr	r3, [pc, #324]	@ (10002550 <_etoa+0x448>)
1000240a:	f7ff fb9d 	bl	10001b48 <__wrap___aeabi_dadd>
1000240e:	4602      	mov	r2, r0
10002410:	460b      	mov	r3, r1
10002412:	e9dd 010e 	ldrd	r0, r1, [sp, #56]	@ 0x38
10002416:	f7ff fbe5 	bl	10001be4 <__wrap___aeabi_ddiv>
1000241a:	4642      	mov	r2, r8
1000241c:	464b      	mov	r3, r9
1000241e:	4680      	mov	r8, r0
10002420:	4689      	mov	r9, r1
10002422:	2000      	movs	r0, #0
10002424:	f04f 4180 	mov.w	r1, #1073741824	@ 0x40000000
10002428:	f7ff fba2 	bl	10001b70 <__wrap___aeabi_dsub>
1000242c:	4602      	mov	r2, r0
1000242e:	460b      	mov	r3, r1
10002430:	4640      	mov	r0, r8
10002432:	4649      	mov	r1, r9
10002434:	f7ff fb88 	bl	10001b48 <__wrap___aeabi_dadd>
10002438:	4602      	mov	r2, r0
1000243a:	460b      	mov	r3, r1
1000243c:	e9dd 0114 	ldrd	r0, r1, [sp, #80]	@ 0x50
10002440:	f7ff fbd0 	bl	10001be4 <__wrap___aeabi_ddiv>
10002444:	2200      	movs	r2, #0
10002446:	4b43      	ldr	r3, [pc, #268]	@ (10002554 <_etoa+0x44c>)
10002448:	f7ff fb7e 	bl	10001b48 <__wrap___aeabi_dadd>
1000244c:	9b12      	ldr	r3, [sp, #72]	@ 0x48
1000244e:	2200      	movs	r2, #0
10002450:	f203 3cff 	addw	ip, r3, #1023	@ 0x3ff
10002454:	ea4f 530c 	mov.w	r3, ip, lsl #20
10002458:	f7ff fb9e 	bl	10001b98 <__wrap___aeabi_dmul>
1000245c:	4680      	mov	r8, r0
1000245e:	4689      	mov	r9, r1
10002460:	e9dd 010a 	ldrd	r0, r1, [sp, #40]	@ 0x28
10002464:	4642      	mov	r2, r8
10002466:	464b      	mov	r3, r9
10002468:	e9cd 890e 	strd	r8, r9, [sp, #56]	@ 0x38
1000246c:	f7ff fc62 	bl	10001d34 <__wrap___aeabi_dcmplt>
10002470:	bb68      	cbnz	r0, 100024ce <_etoa+0x3c6>
10002472:	4643      	mov	r3, r8
10002474:	4649      	mov	r1, r9
10002476:	f107 0263 	add.w	r2, r7, #99	@ 0x63
1000247a:	2ac6      	cmp	r2, #198	@ 0xc6
1000247c:	9a11      	ldr	r2, [sp, #68]	@ 0x44
1000247e:	bf8c      	ite	hi
10002480:	f04f 0905 	movhi.w	r9, #5
10002484:	f04f 0904 	movls.w	r9, #4
10002488:	2a00      	cmp	r2, #0
1000248a:	f43f ae9f 	beq.w	100021cc <_etoa+0xc4>
1000248e:	430b      	orrs	r3, r1
10002490:	f43f ae8e 	beq.w	100021b0 <_etoa+0xa8>
10002494:	e9dd 010a 	ldrd	r0, r1, [sp, #40]	@ 0x28
10002498:	a323      	add	r3, pc, #140	@ (adr r3, 10002528 <_etoa+0x420>)
1000249a:	e9d3 2300 	ldrd	r2, r3, [r3]
1000249e:	f7ff fc5d 	bl	10001d5c <__wrap___aeabi_dcmpge>
100024a2:	b148      	cbz	r0, 100024b8 <_etoa+0x3b0>
100024a4:	e9dd 010a 	ldrd	r0, r1, [sp, #40]	@ 0x28
100024a8:	a321      	add	r3, pc, #132	@ (adr r3, 10002530 <_etoa+0x428>)
100024aa:	e9d3 2300 	ldrd	r2, r3, [r3]
100024ae:	f7ff fc41 	bl	10001d34 <__wrap___aeabi_dcmplt>
100024b2:	2800      	cmp	r0, #0
100024b4:	f47f ae7c 	bne.w	100021b0 <_etoa+0xa8>
100024b8:	f1ba 0f00 	cmp.w	sl, #0
100024bc:	f43f ae86 	beq.w	100021cc <_etoa+0xc4>
100024c0:	9b13      	ldr	r3, [sp, #76]	@ 0x4c
100024c2:	2b00      	cmp	r3, #0
100024c4:	f43f ae82 	beq.w	100021cc <_etoa+0xc4>
100024c8:	f10a 3aff 	add.w	sl, sl, #4294967295
100024cc:	e67e      	b.n	100021cc <_etoa+0xc4>
100024ce:	2200      	movs	r2, #0
100024d0:	4b1e      	ldr	r3, [pc, #120]	@ (1000254c <_etoa+0x444>)
100024d2:	4640      	mov	r0, r8
100024d4:	4649      	mov	r1, r9
100024d6:	f7ff fb85 	bl	10001be4 <__wrap___aeabi_ddiv>
100024da:	460a      	mov	r2, r1
100024dc:	4601      	mov	r1, r0
100024de:	4603      	mov	r3, r0
100024e0:	e9cd 120e 	strd	r1, r2, [sp, #56]	@ 0x38
100024e4:	3f01      	subs	r7, #1
100024e6:	4611      	mov	r1, r2
100024e8:	e7c5      	b.n	10002476 <_etoa+0x36e>
100024ea:	ed9f 7b13 	vldr	d7, [pc, #76]	@ 10002538 <_etoa+0x430>
100024ee:	4617      	mov	r7, r2
100024f0:	f04f 0904 	mov.w	r9, #4
100024f4:	ed8d 7b0e 	vstr	d7, [sp, #56]	@ 0x38
100024f8:	e668      	b.n	100021cc <_etoa+0xc4>
100024fa:	f108 4300 	add.w	r3, r8, #2147483648	@ 0x80000000
100024fe:	970a      	str	r7, [sp, #40]	@ 0x28
10002500:	930b      	str	r3, [sp, #44]	@ 0x2c
10002502:	e63c      	b.n	1000217e <_etoa+0x76>
10002504:	f3af 8000 	nop.w
10002508:	636f4361 	.word	0x636f4361
1000250c:	3fd287a7 	.word	0x3fd287a7
10002510:	0979a371 	.word	0x0979a371
10002514:	400a934f 	.word	0x400a934f
10002518:	bbb55516 	.word	0xbbb55516
1000251c:	40026bb1 	.word	0x40026bb1
10002520:	fefa39ef 	.word	0xfefa39ef
10002524:	3fe62e42 	.word	0x3fe62e42
10002528:	eb1c432d 	.word	0xeb1c432d
1000252c:	3f1a36e2 	.word	0x3f1a36e2
10002530:	00000000 	.word	0x00000000
10002534:	412e8480 	.word	0x412e8480
	...
10002540:	3ff80000 	.word	0x3ff80000
10002544:	3fe00000 	.word	0x3fe00000
10002548:	402c0000 	.word	0x402c0000
1000254c:	40240000 	.word	0x40240000
10002550:	40180000 	.word	0x40180000
10002554:	3ff00000 	.word	0x3ff00000
10002558:	509f79fb 	.word	0x509f79fb
1000255c:	3fd34413 	.word	0x3fd34413
10002560:	8b60c8b3 	.word	0x8b60c8b3
10002564:	3fc68a28 	.word	0x3fc68a28

10002568 <_ftoa>:
10002568:	e92d 4ff0 	stmdb	sp!, {r4, r5, r6, r7, r8, r9, sl, fp, lr}
1000256c:	b097      	sub	sp, #92	@ 0x5c
1000256e:	e9dd 8920 	ldrd	r8, r9, [sp, #128]	@ 0x80
10002572:	e9cd 0104 	strd	r0, r1, [sp, #16]
10002576:	e9dd 4b22 	ldrd	r4, fp, [sp, #136]	@ 0x88
1000257a:	e9cd 2306 	strd	r2, r3, [sp, #24]
1000257e:	4640      	mov	r0, r8
10002580:	4642      	mov	r2, r8
10002582:	464b      	mov	r3, r9
10002584:	4649      	mov	r1, r9
10002586:	f8dd a090 	ldr.w	sl, [sp, #144]	@ 0x90
1000258a:	f7ff fbc1 	bl	10001d10 <__wrap___aeabi_dcmpun>
1000258e:	2800      	cmp	r0, #0
10002590:	f040 81c5 	bne.w	1000291e <_ftoa+0x3b6>
10002594:	4640      	mov	r0, r8
10002596:	4649      	mov	r1, r9
10002598:	f04f 32ff 	mov.w	r2, #4294967295
1000259c:	f46f 1380 	mvn.w	r3, #1048576	@ 0x100000
100025a0:	f7ff fbc8 	bl	10001d34 <__wrap___aeabi_dcmplt>
100025a4:	2800      	cmp	r0, #0
100025a6:	f040 811d 	bne.w	100027e4 <_ftoa+0x27c>
100025aa:	4640      	mov	r0, r8
100025ac:	4649      	mov	r1, r9
100025ae:	f04f 32ff 	mov.w	r2, #4294967295
100025b2:	4bc1      	ldr	r3, [pc, #772]	@ (100028b8 <_ftoa+0x350>)
100025b4:	f7ff fbe6 	bl	10001d84 <__wrap___aeabi_dcmpgt>
100025b8:	2800      	cmp	r0, #0
100025ba:	f040 80e3 	bne.w	10002784 <_ftoa+0x21c>
100025be:	a3b8      	add	r3, pc, #736	@ (adr r3, 100028a0 <_ftoa+0x338>)
100025c0:	e9d3 2300 	ldrd	r2, r3, [r3]
100025c4:	4640      	mov	r0, r8
100025c6:	4649      	mov	r1, r9
100025c8:	f7ff fbdc 	bl	10001d84 <__wrap___aeabi_dcmpgt>
100025cc:	2800      	cmp	r0, #0
100025ce:	f040 80cb 	bne.w	10002768 <_ftoa+0x200>
100025d2:	a3b5      	add	r3, pc, #724	@ (adr r3, 100028a8 <_ftoa+0x340>)
100025d4:	e9d3 2300 	ldrd	r2, r3, [r3]
100025d8:	4640      	mov	r0, r8
100025da:	4649      	mov	r1, r9
100025dc:	f7ff fbaa 	bl	10001d34 <__wrap___aeabi_dcmplt>
100025e0:	2800      	cmp	r0, #0
100025e2:	f040 80c1 	bne.w	10002768 <_ftoa+0x200>
100025e6:	4640      	mov	r0, r8
100025e8:	4649      	mov	r1, r9
100025ea:	2200      	movs	r2, #0
100025ec:	2300      	movs	r3, #0
100025ee:	f7ff fba1 	bl	10001d34 <__wrap___aeabi_dcmplt>
100025f2:	2800      	cmp	r0, #0
100025f4:	f040 80e0 	bne.w	100027b8 <_ftoa+0x250>
100025f8:	f41a 6580 	ands.w	r5, sl, #1024	@ 0x400
100025fc:	900d      	str	r0, [sp, #52]	@ 0x34
100025fe:	f000 80e9 	beq.w	100027d4 <_ftoa+0x26c>
10002602:	2c09      	cmp	r4, #9
10002604:	f240 8196 	bls.w	10002934 <_ftoa+0x3cc>
10002608:	ab0e      	add	r3, sp, #56	@ 0x38
1000260a:	461a      	mov	r2, r3
1000260c:	930c      	str	r3, [sp, #48]	@ 0x30
1000260e:	2130      	movs	r1, #48	@ 0x30
10002610:	2300      	movs	r3, #0
10002612:	f1a4 0509 	sub.w	r5, r4, #9
10002616:	3301      	adds	r3, #1
10002618:	2b20      	cmp	r3, #32
1000261a:	f802 1b01 	strb.w	r1, [r2], #1
1000261e:	eba4 0603 	sub.w	r6, r4, r3
10002622:	f000 813a 	beq.w	1000289a <_ftoa+0x332>
10002626:	42ab      	cmp	r3, r5
10002628:	d1f5      	bne.n	10002616 <_ftoa+0xae>
1000262a:	ed9f 7b9d 	vldr	d7, [pc, #628]	@ 100028a0 <_ftoa+0x338>
1000262e:	ed8d 7b08 	vstr	d7, [sp, #32]
10002632:	4649      	mov	r1, r9
10002634:	4640      	mov	r0, r8
10002636:	f7ff fb47 	bl	10001cc8 <__wrap___aeabi_d2iz>
1000263a:	4604      	mov	r4, r0
1000263c:	f7ff fb20 	bl	10001c80 <__wrap___aeabi_i2d>
10002640:	4602      	mov	r2, r0
10002642:	460b      	mov	r3, r1
10002644:	4640      	mov	r0, r8
10002646:	4649      	mov	r1, r9
10002648:	f7ff fa92 	bl	10001b70 <__wrap___aeabi_dsub>
1000264c:	e9dd 2308 	ldrd	r2, r3, [sp, #32]
10002650:	f7ff faa2 	bl	10001b98 <__wrap___aeabi_dmul>
10002654:	4602      	mov	r2, r0
10002656:	460b      	mov	r3, r1
10002658:	e9cd 230a 	strd	r2, r3, [sp, #40]	@ 0x28
1000265c:	f7ff fb46 	bl	10001cec <__wrap___aeabi_d2uiz>
10002660:	4607      	mov	r7, r0
10002662:	f7ff fb1f 	bl	10001ca4 <__wrap___aeabi_ui2d>
10002666:	4602      	mov	r2, r0
10002668:	460b      	mov	r3, r1
1000266a:	e9dd 010a 	ldrd	r0, r1, [sp, #40]	@ 0x28
1000266e:	f7ff fa7f 	bl	10001b70 <__wrap___aeabi_dsub>
10002672:	4602      	mov	r2, r0
10002674:	460b      	mov	r3, r1
10002676:	e9cd 230a 	strd	r2, r3, [sp, #40]	@ 0x28
1000267a:	2200      	movs	r2, #0
1000267c:	4b8f      	ldr	r3, [pc, #572]	@ (100028bc <_ftoa+0x354>)
1000267e:	f7ff fb81 	bl	10001d84 <__wrap___aeabi_dcmpgt>
10002682:	2800      	cmp	r0, #0
10002684:	f000 80db 	beq.w	1000283e <_ftoa+0x2d6>
10002688:	3701      	adds	r7, #1
1000268a:	4638      	mov	r0, r7
1000268c:	f7ff fb0a 	bl	10001ca4 <__wrap___aeabi_ui2d>
10002690:	e9dd 2308 	ldrd	r2, r3, [sp, #32]
10002694:	f7ff fb62 	bl	10001d5c <__wrap___aeabi_dcmpge>
10002698:	b108      	cbz	r0, 1000269e <_ftoa+0x136>
1000269a:	2700      	movs	r7, #0
1000269c:	3401      	adds	r4, #1
1000269e:	2e00      	cmp	r6, #0
100026a0:	f040 80b1 	bne.w	10002806 <_ftoa+0x29e>
100026a4:	4620      	mov	r0, r4
100026a6:	f7ff faeb 	bl	10001c80 <__wrap___aeabi_i2d>
100026aa:	4602      	mov	r2, r0
100026ac:	460b      	mov	r3, r1
100026ae:	4640      	mov	r0, r8
100026b0:	4649      	mov	r1, r9
100026b2:	f7ff fa5d 	bl	10001b70 <__wrap___aeabi_dsub>
100026b6:	2200      	movs	r2, #0
100026b8:	4b80      	ldr	r3, [pc, #512]	@ (100028bc <_ftoa+0x354>)
100026ba:	4606      	mov	r6, r0
100026bc:	460f      	mov	r7, r1
100026be:	f7ff fb39 	bl	10001d34 <__wrap___aeabi_dcmplt>
100026c2:	b940      	cbnz	r0, 100026d6 <_ftoa+0x16e>
100026c4:	4630      	mov	r0, r6
100026c6:	4639      	mov	r1, r7
100026c8:	2200      	movs	r2, #0
100026ca:	4b7c      	ldr	r3, [pc, #496]	@ (100028bc <_ftoa+0x354>)
100026cc:	f7ff fb5a 	bl	10001d84 <__wrap___aeabi_dcmpgt>
100026d0:	2800      	cmp	r0, #0
100026d2:	f000 8115 	beq.w	10002900 <_ftoa+0x398>
100026d6:	9b0c      	ldr	r3, [sp, #48]	@ 0x30
100026d8:	1e69      	subs	r1, r5, #1
100026da:	4879      	ldr	r0, [pc, #484]	@ (100028c0 <_ftoa+0x358>)
100026dc:	4419      	add	r1, r3
100026de:	e010      	b.n	10002702 <_ftoa+0x19a>
100026e0:	fb80 6204 	smull	r6, r2, r0, r4
100026e4:	ebc3 03a2 	rsb	r3, r3, r2, asr #2
100026e8:	eb03 0283 	add.w	r2, r3, r3, lsl #2
100026ec:	eba4 0442 	sub.w	r4, r4, r2, lsl #1
100026f0:	f104 0230 	add.w	r2, r4, #48	@ 0x30
100026f4:	3501      	adds	r5, #1
100026f6:	461c      	mov	r4, r3
100026f8:	f801 2f01 	strb.w	r2, [r1, #1]!
100026fc:	2b00      	cmp	r3, #0
100026fe:	f000 80ab 	beq.w	10002858 <_ftoa+0x2f0>
10002702:	2d20      	cmp	r5, #32
10002704:	ea4f 73e4 	mov.w	r3, r4, asr #31
10002708:	d1ea      	bne.n	100026e0 <_ftoa+0x178>
1000270a:	f00a 0303 	and.w	r3, sl, #3
1000270e:	2b01      	cmp	r3, #1
10002710:	d11c      	bne.n	1000274c <_ftoa+0x1e4>
10002712:	f1bb 0f00 	cmp.w	fp, #0
10002716:	d019      	beq.n	1000274c <_ftoa+0x1e4>
10002718:	9b0d      	ldr	r3, [sp, #52]	@ 0x34
1000271a:	2b00      	cmp	r3, #0
1000271c:	f040 80f9 	bne.w	10002912 <_ftoa+0x3aa>
10002720:	f01a 0f0c 	tst.w	sl, #12
10002724:	f040 80f5 	bne.w	10002912 <_ftoa+0x3aa>
10002728:	45ab      	cmp	fp, r5
1000272a:	f240 80d3 	bls.w	100028d4 <_ftoa+0x36c>
1000272e:	2d20      	cmp	r5, #32
10002730:	d00b      	beq.n	1000274a <_ftoa+0x1e2>
10002732:	2230      	movs	r2, #48	@ 0x30
10002734:	990c      	ldr	r1, [sp, #48]	@ 0x30
10002736:	1e6b      	subs	r3, r5, #1
10002738:	440b      	add	r3, r1
1000273a:	3501      	adds	r5, #1
1000273c:	455d      	cmp	r5, fp
1000273e:	f803 2f01 	strb.w	r2, [r3, #1]!
10002742:	f000 808d 	beq.w	10002860 <_ftoa+0x2f8>
10002746:	2d20      	cmp	r5, #32
10002748:	d1f7      	bne.n	1000273a <_ftoa+0x1d2>
1000274a:	2520      	movs	r5, #32
1000274c:	e9dd 2306 	ldrd	r2, r3, [sp, #24]
10002750:	e9dd 0104 	ldrd	r0, r1, [sp, #16]
10002754:	9c0c      	ldr	r4, [sp, #48]	@ 0x30
10002756:	e9cd ba02 	strd	fp, sl, [sp, #8]
1000275a:	9501      	str	r5, [sp, #4]
1000275c:	9400      	str	r4, [sp, #0]
1000275e:	f7ff fb27 	bl	10001db0 <_out_rev>
10002762:	b017      	add	sp, #92	@ 0x5c
10002764:	e8bd 8ff0 	ldmia.w	sp!, {r4, r5, r6, r7, r8, r9, sl, fp, pc}
10002768:	e9cd 8920 	strd	r8, r9, [sp, #128]	@ 0x80
1000276c:	e9dd 2306 	ldrd	r2, r3, [sp, #24]
10002770:	e9dd 0104 	ldrd	r0, r1, [sp, #16]
10002774:	e9cd ba23 	strd	fp, sl, [sp, #140]	@ 0x8c
10002778:	9422      	str	r4, [sp, #136]	@ 0x88
1000277a:	b017      	add	sp, #92	@ 0x5c
1000277c:	e8bd 4ff0 	ldmia.w	sp!, {r4, r5, r6, r7, r8, r9, sl, fp, lr}
10002780:	f7ff bcc2 	b.w	10002108 <_etoa>
10002784:	4d4f      	ldr	r5, [pc, #316]	@ (100028c4 <_ftoa+0x35c>)
10002786:	f8cd a08c 	str.w	sl, [sp, #140]	@ 0x8c
1000278a:	f00a 0a04 	and.w	sl, sl, #4
1000278e:	f1ba 0f00 	cmp.w	sl, #0
10002792:	4c4d      	ldr	r4, [pc, #308]	@ (100028c8 <_ftoa+0x360>)
10002794:	bf18      	it	ne
10002796:	462c      	movne	r4, r5
10002798:	e9dd 2306 	ldrd	r2, r3, [sp, #24]
1000279c:	e9dd 0104 	ldrd	r0, r1, [sp, #16]
100027a0:	9420      	str	r4, [sp, #128]	@ 0x80
100027a2:	bf0c      	ite	eq
100027a4:	2403      	moveq	r4, #3
100027a6:	2404      	movne	r4, #4
100027a8:	f8cd b088 	str.w	fp, [sp, #136]	@ 0x88
100027ac:	9421      	str	r4, [sp, #132]	@ 0x84
100027ae:	b017      	add	sp, #92	@ 0x5c
100027b0:	e8bd 4ff0 	ldmia.w	sp!, {r4, r5, r6, r7, r8, r9, sl, fp, lr}
100027b4:	f7ff bafc 	b.w	10001db0 <_out_rev>
100027b8:	464b      	mov	r3, r9
100027ba:	4642      	mov	r2, r8
100027bc:	2000      	movs	r0, #0
100027be:	2100      	movs	r1, #0
100027c0:	f7ff f9d6 	bl	10001b70 <__wrap___aeabi_dsub>
100027c4:	2301      	movs	r3, #1
100027c6:	f41a 6580 	ands.w	r5, sl, #1024	@ 0x400
100027ca:	4680      	mov	r8, r0
100027cc:	4689      	mov	r9, r1
100027ce:	930d      	str	r3, [sp, #52]	@ 0x34
100027d0:	f47f af17 	bne.w	10002602 <_ftoa+0x9a>
100027d4:	ed9f 7b36 	vldr	d7, [pc, #216]	@ 100028b0 <_ftoa+0x348>
100027d8:	ab0e      	add	r3, sp, #56	@ 0x38
100027da:	2606      	movs	r6, #6
100027dc:	ed8d 7b08 	vstr	d7, [sp, #32]
100027e0:	930c      	str	r3, [sp, #48]	@ 0x30
100027e2:	e726      	b.n	10002632 <_ftoa+0xca>
100027e4:	2404      	movs	r4, #4
100027e6:	e9dd 2306 	ldrd	r2, r3, [sp, #24]
100027ea:	e9dd 0104 	ldrd	r0, r1, [sp, #16]
100027ee:	4d37      	ldr	r5, [pc, #220]	@ (100028cc <_ftoa+0x364>)
100027f0:	f8cd a08c 	str.w	sl, [sp, #140]	@ 0x8c
100027f4:	f8cd b088 	str.w	fp, [sp, #136]	@ 0x88
100027f8:	9520      	str	r5, [sp, #128]	@ 0x80
100027fa:	9421      	str	r4, [sp, #132]	@ 0x84
100027fc:	b017      	add	sp, #92	@ 0x5c
100027fe:	e8bd 4ff0 	ldmia.w	sp!, {r4, r5, r6, r7, r8, r9, sl, fp, lr}
10002802:	f7ff bad5 	b.w	10001db0 <_out_rev>
10002806:	9b0c      	ldr	r3, [sp, #48]	@ 0x30
10002808:	1e68      	subs	r0, r5, #1
1000280a:	f8df c0c4 	ldr.w	ip, [pc, #196]	@ 100028d0 <_ftoa+0x368>
1000280e:	4418      	add	r0, r3
10002810:	e00d      	b.n	1000282e <_ftoa+0x2c6>
10002812:	fbac 2107 	umull	r2, r1, ip, r7
10002816:	08c9      	lsrs	r1, r1, #3
10002818:	eb01 0281 	add.w	r2, r1, r1, lsl #2
1000281c:	eba7 0242 	sub.w	r2, r7, r2, lsl #1
10002820:	3230      	adds	r2, #48	@ 0x30
10002822:	2f09      	cmp	r7, #9
10002824:	f800 2f01 	strb.w	r2, [r0, #1]!
10002828:	d927      	bls.n	1000287a <_ftoa+0x312>
1000282a:	460f      	mov	r7, r1
1000282c:	461d      	mov	r5, r3
1000282e:	2d20      	cmp	r5, #32
10002830:	f105 0301 	add.w	r3, r5, #1
10002834:	f106 36ff 	add.w	r6, r6, #4294967295
10002838:	d1eb      	bne.n	10002812 <_ftoa+0x2aa>
1000283a:	2520      	movs	r5, #32
1000283c:	e74b      	b.n	100026d6 <_ftoa+0x16e>
1000283e:	2200      	movs	r2, #0
10002840:	e9dd 010a 	ldrd	r0, r1, [sp, #40]	@ 0x28
10002844:	4b1d      	ldr	r3, [pc, #116]	@ (100028bc <_ftoa+0x354>)
10002846:	f7ff fa75 	bl	10001d34 <__wrap___aeabi_dcmplt>
1000284a:	2800      	cmp	r0, #0
1000284c:	f47f af27 	bne.w	1000269e <_ftoa+0x136>
10002850:	2f00      	cmp	r7, #0
10002852:	d15a      	bne.n	1000290a <_ftoa+0x3a2>
10002854:	3701      	adds	r7, #1
10002856:	e722      	b.n	1000269e <_ftoa+0x136>
10002858:	f00a 0303 	and.w	r3, sl, #3
1000285c:	2b01      	cmp	r3, #1
1000285e:	d075      	beq.n	1000294c <_ftoa+0x3e4>
10002860:	2d20      	cmp	r5, #32
10002862:	f43f af73 	beq.w	1000274c <_ftoa+0x1e4>
10002866:	9b0d      	ldr	r3, [sp, #52]	@ 0x34
10002868:	b3bb      	cbz	r3, 100028da <_ftoa+0x372>
1000286a:	222d      	movs	r2, #45	@ 0x2d
1000286c:	f105 0358 	add.w	r3, r5, #88	@ 0x58
10002870:	446b      	add	r3, sp
10002872:	f803 2c20 	strb.w	r2, [r3, #-32]
10002876:	3501      	adds	r5, #1
10002878:	e768      	b.n	1000274c <_ftoa+0x1e4>
1000287a:	2b20      	cmp	r3, #32
1000287c:	d0dd      	beq.n	1000283a <_ftoa+0x2d2>
1000287e:	b3ae      	cbz	r6, 100028ec <_ftoa+0x384>
10002880:	9a0c      	ldr	r2, [sp, #48]	@ 0x30
10002882:	441e      	add	r6, r3
10002884:	4415      	add	r5, r2
10002886:	2230      	movs	r2, #48	@ 0x30
10002888:	e001      	b.n	1000288e <_ftoa+0x326>
1000288a:	42b3      	cmp	r3, r6
1000288c:	d02e      	beq.n	100028ec <_ftoa+0x384>
1000288e:	3301      	adds	r3, #1
10002890:	2b20      	cmp	r3, #32
10002892:	f805 2f01 	strb.w	r2, [r5, #1]!
10002896:	d1f8      	bne.n	1000288a <_ftoa+0x322>
10002898:	e7cf      	b.n	1000283a <_ftoa+0x2d2>
1000289a:	461d      	mov	r5, r3
1000289c:	e6c5      	b.n	1000262a <_ftoa+0xc2>
1000289e:	bf00      	nop
100028a0:	00000000 	.word	0x00000000
100028a4:	41cdcd65 	.word	0x41cdcd65
100028a8:	00000000 	.word	0x00000000
100028ac:	c1cdcd65 	.word	0xc1cdcd65
100028b0:	00000000 	.word	0x00000000
100028b4:	412e8480 	.word	0x412e8480
100028b8:	7fefffff 	.word	0x7fefffff
100028bc:	3fe00000 	.word	0x3fe00000
100028c0:	66666667 	.word	0x66666667
100028c4:	1000426c 	.word	0x1000426c
100028c8:	10004274 	.word	0x10004274
100028cc:	1000427c 	.word	0x1000427c
100028d0:	cccccccd 	.word	0xcccccccd
100028d4:	2d20      	cmp	r5, #32
100028d6:	f43f af39 	beq.w	1000274c <_ftoa+0x1e4>
100028da:	f01a 0f04 	tst.w	sl, #4
100028de:	d10d      	bne.n	100028fc <_ftoa+0x394>
100028e0:	f01a 0f08 	tst.w	sl, #8
100028e4:	f43f af32 	beq.w	1000274c <_ftoa+0x1e4>
100028e8:	2220      	movs	r2, #32
100028ea:	e7bf      	b.n	1000286c <_ftoa+0x304>
100028ec:	212e      	movs	r1, #46	@ 0x2e
100028ee:	f103 0258 	add.w	r2, r3, #88	@ 0x58
100028f2:	446a      	add	r2, sp
100028f4:	f802 1c20 	strb.w	r1, [r2, #-32]
100028f8:	1c5d      	adds	r5, r3, #1
100028fa:	e6ec      	b.n	100026d6 <_ftoa+0x16e>
100028fc:	222b      	movs	r2, #43	@ 0x2b
100028fe:	e7b5      	b.n	1000286c <_ftoa+0x304>
10002900:	07e3      	lsls	r3, r4, #31
10002902:	f57f aee8 	bpl.w	100026d6 <_ftoa+0x16e>
10002906:	3401      	adds	r4, #1
10002908:	e6e5      	b.n	100026d6 <_ftoa+0x16e>
1000290a:	07fa      	lsls	r2, r7, #31
1000290c:	f57f aec7 	bpl.w	1000269e <_ftoa+0x136>
10002910:	e7a0      	b.n	10002854 <_ftoa+0x2ec>
10002912:	f10b 3bff 	add.w	fp, fp, #4294967295
10002916:	45ab      	cmp	fp, r5
10002918:	f63f af09 	bhi.w	1000272e <_ftoa+0x1c6>
1000291c:	e7a0      	b.n	10002860 <_ftoa+0x2f8>
1000291e:	2403      	movs	r4, #3
10002920:	e9dd 2306 	ldrd	r2, r3, [sp, #24]
10002924:	e9dd 0104 	ldrd	r0, r1, [sp, #16]
10002928:	4d0a      	ldr	r5, [pc, #40]	@ (10002954 <_ftoa+0x3ec>)
1000292a:	f8cd a08c 	str.w	sl, [sp, #140]	@ 0x8c
1000292e:	f8cd b088 	str.w	fp, [sp, #136]	@ 0x88
10002932:	e761      	b.n	100027f8 <_ftoa+0x290>
10002934:	4b08      	ldr	r3, [pc, #32]	@ (10002958 <_ftoa+0x3f0>)
10002936:	4626      	mov	r6, r4
10002938:	eb03 03c4 	add.w	r3, r3, r4, lsl #3
1000293c:	ed93 7b00 	vldr	d7, [r3]
10002940:	ab0e      	add	r3, sp, #56	@ 0x38
10002942:	ed8d 7b08 	vstr	d7, [sp, #32]
10002946:	2500      	movs	r5, #0
10002948:	930c      	str	r3, [sp, #48]	@ 0x30
1000294a:	e672      	b.n	10002632 <_ftoa+0xca>
1000294c:	f1bb 0f00 	cmp.w	fp, #0
10002950:	d086      	beq.n	10002860 <_ftoa+0x2f8>
10002952:	e6e1      	b.n	10002718 <_ftoa+0x1b0>
10002954:	10004278 	.word	0x10004278
10002958:	10004308 	.word	0x10004308

1000295c <_vsnprintf>:
1000295c:	e92d 4ff0 	stmdb	sp!, {r4, r5, r6, r7, r8, r9, sl, fp, lr}
10002960:	469a      	mov	sl, r3
10002962:	b09b      	sub	sp, #108	@ 0x6c
10002964:	9c24      	ldr	r4, [sp, #144]	@ 0x90
10002966:	4d96      	ldr	r5, [pc, #600]	@ (10002bc0 <_vsnprintf+0x264>)
10002968:	940b      	str	r4, [sp, #44]	@ 0x2c
1000296a:	4c96      	ldr	r4, [pc, #600]	@ (10002bc4 <_vsnprintf+0x268>)
1000296c:	1e0b      	subs	r3, r1, #0
1000296e:	bf18      	it	ne
10002970:	4683      	movne	fp, r0
10002972:	6025      	str	r5, [r4, #0]
10002974:	f89a 0000 	ldrb.w	r0, [sl]
10002978:	4c93      	ldr	r4, [pc, #588]	@ (10002bc8 <_vsnprintf+0x26c>)
1000297a:	930a      	str	r3, [sp, #40]	@ 0x28
1000297c:	bf08      	it	eq
1000297e:	46a3      	moveq	fp, r4
10002980:	9209      	str	r2, [sp, #36]	@ 0x24
10002982:	2800      	cmp	r0, #0
10002984:	f000 82bc 	beq.w	10002f00 <_vsnprintf+0x5a4>
10002988:	f04f 0900 	mov.w	r9, #0
1000298c:	e00a      	b.n	100029a4 <_vsnprintf+0x48>
1000298e:	464a      	mov	r2, r9
10002990:	9b09      	ldr	r3, [sp, #36]	@ 0x24
10002992:	990a      	ldr	r1, [sp, #40]	@ 0x28
10002994:	f109 0901 	add.w	r9, r9, #1
10002998:	47d8      	blx	fp
1000299a:	f89a 0000 	ldrb.w	r0, [sl]
1000299e:	2800      	cmp	r0, #0
100029a0:	f000 80ce 	beq.w	10002b40 <_vsnprintf+0x1e4>
100029a4:	2825      	cmp	r0, #37	@ 0x25
100029a6:	f10a 0a01 	add.w	sl, sl, #1
100029aa:	d1f0      	bne.n	1000298e <_vsnprintf+0x32>
100029ac:	2300      	movs	r3, #0
100029ae:	4652      	mov	r2, sl
100029b0:	f812 0b01 	ldrb.w	r0, [r2], #1
100029b4:	f1a0 0120 	sub.w	r1, r0, #32
100029b8:	2910      	cmp	r1, #16
100029ba:	d80a      	bhi.n	100029d2 <_vsnprintf+0x76>
100029bc:	e8df f001 	tbb	[pc, r1]
100029c0:	3c090940 	.word	0x3c090940
100029c4:	09090909 	.word	0x09090909
100029c8:	38090909 	.word	0x38090909
100029cc:	09093409 	.word	0x09093409
100029d0:	30          	.byte	0x30
100029d1:	00          	.byte	0x00
100029d2:	f1a0 0130 	sub.w	r1, r0, #48	@ 0x30
100029d6:	2909      	cmp	r1, #9
100029d8:	f240 808c 	bls.w	10002af4 <_vsnprintf+0x198>
100029dc:	282a      	cmp	r0, #42	@ 0x2a
100029de:	f000 80f5 	beq.w	10002bcc <_vsnprintf+0x270>
100029e2:	2100      	movs	r1, #0
100029e4:	910c      	str	r1, [sp, #48]	@ 0x30
100029e6:	282e      	cmp	r0, #46	@ 0x2e
100029e8:	f000 8099 	beq.w	10002b1e <_vsnprintf+0x1c2>
100029ec:	2700      	movs	r7, #0
100029ee:	f1a0 0168 	sub.w	r1, r0, #104	@ 0x68
100029f2:	2912      	cmp	r1, #18
100029f4:	d82d      	bhi.n	10002a52 <_vsnprintf+0xf6>
100029f6:	e8df f011 	tbh	[pc, r1, lsl #1]
100029fa:	0157      	.short	0x0157
100029fc:	0151002c 	.word	0x0151002c
10002a00:	0145002c 	.word	0x0145002c
10002a04:	002c002c 	.word	0x002c002c
10002a08:	002c002c 	.word	0x002c002c
10002a0c:	002c002c 	.word	0x002c002c
10002a10:	0027002c 	.word	0x0027002c
10002a14:	002c002c 	.word	0x002c002c
10002a18:	002c002c 	.word	0x002c002c
10002a1c:	0027002c 	.word	0x0027002c
10002a20:	4692      	mov	sl, r2
10002a22:	f043 0301 	orr.w	r3, r3, #1
10002a26:	e7c2      	b.n	100029ae <_vsnprintf+0x52>
10002a28:	4692      	mov	sl, r2
10002a2a:	f043 0302 	orr.w	r3, r3, #2
10002a2e:	e7be      	b.n	100029ae <_vsnprintf+0x52>
10002a30:	4692      	mov	sl, r2
10002a32:	f043 0304 	orr.w	r3, r3, #4
10002a36:	e7ba      	b.n	100029ae <_vsnprintf+0x52>
10002a38:	4692      	mov	sl, r2
10002a3a:	f043 0310 	orr.w	r3, r3, #16
10002a3e:	e7b6      	b.n	100029ae <_vsnprintf+0x52>
10002a40:	4692      	mov	sl, r2
10002a42:	f043 0308 	orr.w	r3, r3, #8
10002a46:	e7b2      	b.n	100029ae <_vsnprintf+0x52>
10002a48:	f89a 0001 	ldrb.w	r0, [sl, #1]
10002a4c:	f443 7380 	orr.w	r3, r3, #256	@ 0x100
10002a50:	3201      	adds	r2, #1
10002a52:	2867      	cmp	r0, #103	@ 0x67
10002a54:	4692      	mov	sl, r2
10002a56:	f200 8082 	bhi.w	10002b5e <_vsnprintf+0x202>
10002a5a:	2824      	cmp	r0, #36	@ 0x24
10002a5c:	f240 80c6 	bls.w	10002bec <_vsnprintf+0x290>
10002a60:	f1a0 0225 	sub.w	r2, r0, #37	@ 0x25
10002a64:	2a42      	cmp	r2, #66	@ 0x42
10002a66:	f200 80c1 	bhi.w	10002bec <_vsnprintf+0x290>
10002a6a:	e8df f012 	tbh	[pc, r2, lsl #1]
10002a6e:	015f      	.short	0x015f
10002a70:	00bf00bf 	.word	0x00bf00bf
10002a74:	00bf00bf 	.word	0x00bf00bf
10002a78:	00bf00bf 	.word	0x00bf00bf
10002a7c:	00bf00bf 	.word	0x00bf00bf
10002a80:	00bf00bf 	.word	0x00bf00bf
10002a84:	00bf00bf 	.word	0x00bf00bf
10002a88:	00bf00bf 	.word	0x00bf00bf
10002a8c:	00bf00bf 	.word	0x00bf00bf
10002a90:	00bf00bf 	.word	0x00bf00bf
10002a94:	00bf00bf 	.word	0x00bf00bf
10002a98:	00bf00bf 	.word	0x00bf00bf
10002a9c:	00bf00bf 	.word	0x00bf00bf
10002aa0:	00bf00bf 	.word	0x00bf00bf
10002aa4:	00bf00bf 	.word	0x00bf00bf
10002aa8:	00bf00bf 	.word	0x00bf00bf
10002aac:	012600bf 	.word	0x012600bf
10002ab0:	01260145 	.word	0x01260145
10002ab4:	00bf00bf 	.word	0x00bf00bf
10002ab8:	00bf00bf 	.word	0x00bf00bf
10002abc:	00bf00bf 	.word	0x00bf00bf
10002ac0:	00bf00bf 	.word	0x00bf00bf
10002ac4:	00bf00bf 	.word	0x00bf00bf
10002ac8:	00bf00bf 	.word	0x00bf00bf
10002acc:	00bf00bf 	.word	0x00bf00bf
10002ad0:	00bf00bf 	.word	0x00bf00bf
10002ad4:	00bf01d3 	.word	0x00bf01d3
10002ad8:	00bf00bf 	.word	0x00bf00bf
10002adc:	00bf00bf 	.word	0x00bf00bf
10002ae0:	00bf00bf 	.word	0x00bf00bf
10002ae4:	00bf00bf 	.word	0x00bf00bf
10002ae8:	016701d3 	.word	0x016701d3
10002aec:	012601d3 	.word	0x012601d3
10002af0:	01260145 	.word	0x01260145
10002af4:	2100      	movs	r1, #0
10002af6:	e000      	b.n	10002afa <_vsnprintf+0x19e>
10002af8:	3201      	adds	r2, #1
10002afa:	eb01 0181 	add.w	r1, r1, r1, lsl #2
10002afe:	eb00 0141 	add.w	r1, r0, r1, lsl #1
10002b02:	7810      	ldrb	r0, [r2, #0]
10002b04:	4692      	mov	sl, r2
10002b06:	f1a0 0430 	sub.w	r4, r0, #48	@ 0x30
10002b0a:	2c09      	cmp	r4, #9
10002b0c:	f1a1 0130 	sub.w	r1, r1, #48	@ 0x30
10002b10:	d9f2      	bls.n	10002af8 <_vsnprintf+0x19c>
10002b12:	282e      	cmp	r0, #46	@ 0x2e
10002b14:	910c      	str	r1, [sp, #48]	@ 0x30
10002b16:	f102 0201 	add.w	r2, r2, #1
10002b1a:	f47f af67 	bne.w	100029ec <_vsnprintf+0x90>
10002b1e:	f89a 0001 	ldrb.w	r0, [sl, #1]
10002b22:	4611      	mov	r1, r2
10002b24:	f1a0 0630 	sub.w	r6, r0, #48	@ 0x30
10002b28:	2e09      	cmp	r6, #9
10002b2a:	f443 6380 	orr.w	r3, r3, #1024	@ 0x400
10002b2e:	f240 8131 	bls.w	10002d94 <_vsnprintf+0x438>
10002b32:	282a      	cmp	r0, #42	@ 0x2a
10002b34:	f000 813e 	beq.w	10002db4 <_vsnprintf+0x458>
10002b38:	4692      	mov	sl, r2
10002b3a:	2700      	movs	r7, #0
10002b3c:	3201      	adds	r2, #1
10002b3e:	e756      	b.n	100029ee <_vsnprintf+0x92>
10002b40:	464c      	mov	r4, r9
10002b42:	9b09      	ldr	r3, [sp, #36]	@ 0x24
10002b44:	4599      	cmp	r9, r3
10002b46:	d301      	bcc.n	10002b4c <_vsnprintf+0x1f0>
10002b48:	f103 39ff 	add.w	r9, r3, #4294967295
10002b4c:	464a      	mov	r2, r9
10002b4e:	2000      	movs	r0, #0
10002b50:	9b09      	ldr	r3, [sp, #36]	@ 0x24
10002b52:	990a      	ldr	r1, [sp, #40]	@ 0x28
10002b54:	47d8      	blx	fp
10002b56:	4620      	mov	r0, r4
10002b58:	b01b      	add	sp, #108	@ 0x6c
10002b5a:	e8bd 8ff0 	ldmia.w	sp!, {r4, r5, r6, r7, r8, r9, sl, fp, pc}
10002b5e:	f1a0 0269 	sub.w	r2, r0, #105	@ 0x69
10002b62:	b2d2      	uxtb	r2, r2
10002b64:	2a0f      	cmp	r2, #15
10002b66:	d841      	bhi.n	10002bec <_vsnprintf+0x290>
10002b68:	2601      	movs	r6, #1
10002b6a:	f249 0141 	movw	r1, #36929	@ 0x9041
10002b6e:	4096      	lsls	r6, r2
10002b70:	400e      	ands	r6, r1
10002b72:	f040 8101 	bne.w	10002d78 <_vsnprintf+0x41c>
10002b76:	2a0a      	cmp	r2, #10
10002b78:	d03f      	beq.n	10002bfa <_vsnprintf+0x29e>
10002b7a:	2a07      	cmp	r2, #7
10002b7c:	d136      	bne.n	10002bec <_vsnprintf+0x290>
10002b7e:	9c0b      	ldr	r4, [sp, #44]	@ 0x2c
10002b80:	f854 2b04 	ldr.w	r2, [r4], #4
10002b84:	2a00      	cmp	r2, #0
10002b86:	f000 8128 	beq.w	10002dda <_vsnprintf+0x47e>
10002b8a:	f043 0121 	orr.w	r1, r3, #33	@ 0x21
10002b8e:	f10d 0e48 	add.w	lr, sp, #72	@ 0x48
10002b92:	4670      	mov	r0, lr
10002b94:	e003      	b.n	10002b9e <_vsnprintf+0x242>
10002b96:	2e20      	cmp	r6, #32
10002b98:	f000 8129 	beq.w	10002dee <_vsnprintf+0x492>
10002b9c:	461a      	mov	r2, r3
10002b9e:	f002 050f 	and.w	r5, r2, #15
10002ba2:	462b      	mov	r3, r5
10002ba4:	2d09      	cmp	r5, #9
10002ba6:	bf94      	ite	ls
10002ba8:	3330      	addls	r3, #48	@ 0x30
10002baa:	3337      	addhi	r3, #55	@ 0x37
10002bac:	2a0f      	cmp	r2, #15
10002bae:	f800 3b01 	strb.w	r3, [r0], #1
10002bb2:	f106 0601 	add.w	r6, r6, #1
10002bb6:	ea4f 1312 	mov.w	r3, r2, lsr #4
10002bba:	d8ec      	bhi.n	10002b96 <_vsnprintf+0x23a>
10002bbc:	e117      	b.n	10002dee <_vsnprintf+0x492>
10002bbe:	bf00      	nop
10002bc0:	1000295d 	.word	0x1000295d
10002bc4:	200009b0 	.word	0x200009b0
10002bc8:	10001dad 	.word	0x10001dad
10002bcc:	9c0b      	ldr	r4, [sp, #44]	@ 0x2c
10002bce:	f89a 0001 	ldrb.w	r0, [sl, #1]
10002bd2:	f854 5b04 	ldr.w	r5, [r4], #4
10002bd6:	4692      	mov	sl, r2
10002bd8:	2d00      	cmp	r5, #0
10002bda:	bfbd      	ittte	lt
10002bdc:	4269      	neglt	r1, r5
10002bde:	f043 0302 	orrlt.w	r3, r3, #2
10002be2:	910c      	strlt	r1, [sp, #48]	@ 0x30
10002be4:	950c      	strge	r5, [sp, #48]	@ 0x30
10002be6:	940b      	str	r4, [sp, #44]	@ 0x2c
10002be8:	3201      	adds	r2, #1
10002bea:	e6fc      	b.n	100029e6 <_vsnprintf+0x8a>
10002bec:	464a      	mov	r2, r9
10002bee:	9b09      	ldr	r3, [sp, #36]	@ 0x24
10002bf0:	990a      	ldr	r1, [sp, #40]	@ 0x28
10002bf2:	f109 0901 	add.w	r9, r9, #1
10002bf6:	47d8      	blx	fp
10002bf8:	e6cf      	b.n	1000299a <_vsnprintf+0x3e>
10002bfa:	990b      	ldr	r1, [sp, #44]	@ 0x2c
10002bfc:	f851 8b04 	ldr.w	r8, [r1], #4
10002c00:	f898 2000 	ldrb.w	r2, [r8]
10002c04:	4610      	mov	r0, r2
10002c06:	2f00      	cmp	r7, #0
10002c08:	f040 80e1 	bne.w	10002dce <_vsnprintf+0x472>
10002c0c:	b172      	cbz	r2, 10002c2c <_vsnprintf+0x2d0>
10002c0e:	f06f 0c01 	mvn.w	ip, #1
10002c12:	f10c 0c01 	add.w	ip, ip, #1
10002c16:	4646      	mov	r6, r8
10002c18:	44c4      	add	ip, r8
10002c1a:	e001      	b.n	10002c20 <_vsnprintf+0x2c4>
10002c1c:	4566      	cmp	r6, ip
10002c1e:	d003      	beq.n	10002c28 <_vsnprintf+0x2cc>
10002c20:	f816 4f01 	ldrb.w	r4, [r6, #1]!
10002c24:	2c00      	cmp	r4, #0
10002c26:	d1f9      	bne.n	10002c1c <_vsnprintf+0x2c0>
10002c28:	eba6 0608 	sub.w	r6, r6, r8
10002c2c:	f413 6c80 	ands.w	ip, r3, #1024	@ 0x400
10002c30:	d002      	beq.n	10002c38 <_vsnprintf+0x2dc>
10002c32:	42be      	cmp	r6, r7
10002c34:	bf28      	it	cs
10002c36:	463e      	movcs	r6, r7
10002c38:	f013 0402 	ands.w	r4, r3, #2
10002c3c:	f000 8187 	beq.w	10002f4e <_vsnprintf+0x5f2>
10002c40:	2a00      	cmp	r2, #0
10002c42:	f000 812b 	beq.w	10002e9c <_vsnprintf+0x540>
10002c46:	f1bc 0f00 	cmp.w	ip, #0
10002c4a:	f000 8141 	beq.w	10002ed0 <_vsnprintf+0x574>
10002c4e:	940b      	str	r4, [sp, #44]	@ 0x2c
10002c50:	960d      	str	r6, [sp, #52]	@ 0x34
10002c52:	464a      	mov	r2, r9
10002c54:	e9dd 5409 	ldrd	r5, r4, [sp, #36]	@ 0x24
10002c58:	460e      	mov	r6, r1
10002c5a:	444f      	add	r7, r9
10002c5c:	e008      	b.n	10002c70 <_vsnprintf+0x314>
10002c5e:	462b      	mov	r3, r5
10002c60:	4621      	mov	r1, r4
10002c62:	47d8      	blx	fp
10002c64:	f818 0f01 	ldrb.w	r0, [r8, #1]!
10002c68:	f109 0901 	add.w	r9, r9, #1
10002c6c:	b110      	cbz	r0, 10002c74 <_vsnprintf+0x318>
10002c6e:	464a      	mov	r2, r9
10002c70:	454f      	cmp	r7, r9
10002c72:	d1f4      	bne.n	10002c5e <_vsnprintf+0x302>
10002c74:	4631      	mov	r1, r6
10002c76:	9c0b      	ldr	r4, [sp, #44]	@ 0x2c
10002c78:	9e0d      	ldr	r6, [sp, #52]	@ 0x34
10002c7a:	2c00      	cmp	r4, #0
10002c7c:	f040 810e 	bne.w	10002e9c <_vsnprintf+0x540>
10002c80:	910b      	str	r1, [sp, #44]	@ 0x2c
10002c82:	e68a      	b.n	1000299a <_vsnprintf+0x3e>
10002c84:	f89a 0001 	ldrb.w	r0, [sl, #1]
10002c88:	286c      	cmp	r0, #108	@ 0x6c
10002c8a:	f47f aedf 	bne.w	10002a4c <_vsnprintf+0xf0>
10002c8e:	f89a 0002 	ldrb.w	r0, [sl, #2]
10002c92:	f443 7340 	orr.w	r3, r3, #768	@ 0x300
10002c96:	f10a 0203 	add.w	r2, sl, #3
10002c9a:	e6da      	b.n	10002a52 <_vsnprintf+0xf6>
10002c9c:	f89a 0001 	ldrb.w	r0, [sl, #1]
10002ca0:	f443 7300 	orr.w	r3, r3, #512	@ 0x200
10002ca4:	3201      	adds	r2, #1
10002ca6:	e6d4      	b.n	10002a52 <_vsnprintf+0xf6>
10002ca8:	f89a 0001 	ldrb.w	r0, [sl, #1]
10002cac:	2868      	cmp	r0, #104	@ 0x68
10002cae:	f000 8120 	beq.w	10002ef2 <_vsnprintf+0x596>
10002cb2:	f043 0380 	orr.w	r3, r3, #128	@ 0x80
10002cb6:	3201      	adds	r2, #1
10002cb8:	e6cb      	b.n	10002a52 <_vsnprintf+0xf6>
10002cba:	2867      	cmp	r0, #103	@ 0x67
10002cbc:	f000 80e7 	beq.w	10002e8e <_vsnprintf+0x532>
10002cc0:	2847      	cmp	r0, #71	@ 0x47
10002cc2:	f000 8100 	beq.w	10002ec6 <_vsnprintf+0x56a>
10002cc6:	2845      	cmp	r0, #69	@ 0x45
10002cc8:	f000 80ff 	beq.w	10002eca <_vsnprintf+0x56e>
10002ccc:	9c0b      	ldr	r4, [sp, #44]	@ 0x2c
10002cce:	9304      	str	r3, [sp, #16]
10002cd0:	9b0c      	ldr	r3, [sp, #48]	@ 0x30
10002cd2:	3407      	adds	r4, #7
10002cd4:	e9cd 7302 	strd	r7, r3, [sp, #8]
10002cd8:	f024 0307 	bic.w	r3, r4, #7
10002cdc:	461c      	mov	r4, r3
10002cde:	e9dd 3109 	ldrd	r3, r1, [sp, #36]	@ 0x24
10002ce2:	e8f4 6702 	ldrd	r6, r7, [r4], #8
10002ce6:	464a      	mov	r2, r9
10002ce8:	4658      	mov	r0, fp
10002cea:	e9cd 6700 	strd	r6, r7, [sp]
10002cee:	940b      	str	r4, [sp, #44]	@ 0x2c
10002cf0:	f7ff fa0a 	bl	10002108 <_etoa>
10002cf4:	4681      	mov	r9, r0
10002cf6:	e650      	b.n	1000299a <_vsnprintf+0x3e>
10002cf8:	2846      	cmp	r0, #70	@ 0x46
10002cfa:	9c0b      	ldr	r4, [sp, #44]	@ 0x2c
10002cfc:	bf08      	it	eq
10002cfe:	f043 0320 	orreq.w	r3, r3, #32
10002d02:	9304      	str	r3, [sp, #16]
10002d04:	9b0c      	ldr	r3, [sp, #48]	@ 0x30
10002d06:	3407      	adds	r4, #7
10002d08:	e9cd 7302 	strd	r7, r3, [sp, #8]
10002d0c:	f024 0307 	bic.w	r3, r4, #7
10002d10:	461c      	mov	r4, r3
10002d12:	e9dd 3109 	ldrd	r3, r1, [sp, #36]	@ 0x24
10002d16:	e8f4 6702 	ldrd	r6, r7, [r4], #8
10002d1a:	464a      	mov	r2, r9
10002d1c:	4658      	mov	r0, fp
10002d1e:	e9cd 6700 	strd	r6, r7, [sp]
10002d22:	940b      	str	r4, [sp, #44]	@ 0x2c
10002d24:	f7ff fc20 	bl	10002568 <_ftoa>
10002d28:	4681      	mov	r9, r0
10002d2a:	e636      	b.n	1000299a <_vsnprintf+0x3e>
10002d2c:	464a      	mov	r2, r9
10002d2e:	2025      	movs	r0, #37	@ 0x25
10002d30:	9b09      	ldr	r3, [sp, #36]	@ 0x24
10002d32:	990a      	ldr	r1, [sp, #40]	@ 0x28
10002d34:	f109 0901 	add.w	r9, r9, #1
10002d38:	47d8      	blx	fp
10002d3a:	e62e      	b.n	1000299a <_vsnprintf+0x3e>
10002d3c:	9a0b      	ldr	r2, [sp, #44]	@ 0x2c
10002d3e:	079c      	lsls	r4, r3, #30
10002d40:	f102 0704 	add.w	r7, r2, #4
10002d44:	f109 0601 	add.w	r6, r9, #1
10002d48:	f140 80e6 	bpl.w	10002f18 <_vsnprintf+0x5bc>
10002d4c:	7810      	ldrb	r0, [r2, #0]
10002d4e:	9b09      	ldr	r3, [sp, #36]	@ 0x24
10002d50:	464a      	mov	r2, r9
10002d52:	990a      	ldr	r1, [sp, #40]	@ 0x28
10002d54:	47d8      	blx	fp
10002d56:	9b0c      	ldr	r3, [sp, #48]	@ 0x30
10002d58:	2b01      	cmp	r3, #1
10002d5a:	f240 812c 	bls.w	10002fb6 <_vsnprintf+0x65a>
10002d5e:	e9dd 5409 	ldrd	r5, r4, [sp, #36]	@ 0x24
10002d62:	4499      	add	r9, r3
10002d64:	4632      	mov	r2, r6
10002d66:	462b      	mov	r3, r5
10002d68:	4621      	mov	r1, r4
10002d6a:	2020      	movs	r0, #32
10002d6c:	3601      	adds	r6, #1
10002d6e:	47d8      	blx	fp
10002d70:	454e      	cmp	r6, r9
10002d72:	d1f7      	bne.n	10002d64 <_vsnprintf+0x408>
10002d74:	970b      	str	r7, [sp, #44]	@ 0x2c
10002d76:	e610      	b.n	1000299a <_vsnprintf+0x3e>
10002d78:	286f      	cmp	r0, #111	@ 0x6f
10002d7a:	f000 808b 	beq.w	10002e94 <_vsnprintf+0x538>
10002d7e:	f240 8165 	bls.w	1000304c <_vsnprintf+0x6f0>
10002d82:	2878      	cmp	r0, #120	@ 0x78
10002d84:	f000 8108 	beq.w	10002f98 <_vsnprintf+0x63c>
10002d88:	f04f 080a 	mov.w	r8, #10
10002d8c:	f023 0310 	bic.w	r3, r3, #16
10002d90:	46c4      	mov	ip, r8
10002d92:	e047      	b.n	10002e24 <_vsnprintf+0x4c8>
10002d94:	2700      	movs	r7, #0
10002d96:	eb07 0787 	add.w	r7, r7, r7, lsl #2
10002d9a:	eb00 0047 	add.w	r0, r0, r7, lsl #1
10002d9e:	f1a0 0730 	sub.w	r7, r0, #48	@ 0x30
10002da2:	f811 0f01 	ldrb.w	r0, [r1, #1]!
10002da6:	f1a0 0230 	sub.w	r2, r0, #48	@ 0x30
10002daa:	2a09      	cmp	r2, #9
10002dac:	d9f3      	bls.n	10002d96 <_vsnprintf+0x43a>
10002dae:	468a      	mov	sl, r1
10002db0:	1c4a      	adds	r2, r1, #1
10002db2:	e61c      	b.n	100029ee <_vsnprintf+0x92>
10002db4:	9c0b      	ldr	r4, [sp, #44]	@ 0x2c
10002db6:	f89a 0002 	ldrb.w	r0, [sl, #2]
10002dba:	f854 7b04 	ldr.w	r7, [r4], #4
10002dbe:	f10a 0a02 	add.w	sl, sl, #2
10002dc2:	f10a 0201 	add.w	r2, sl, #1
10002dc6:	940b      	str	r4, [sp, #44]	@ 0x2c
10002dc8:	ea27 77e7 	bic.w	r7, r7, r7, asr #31
10002dcc:	e60f      	b.n	100029ee <_vsnprintf+0x92>
10002dce:	2a00      	cmp	r2, #0
10002dd0:	f43f af2c 	beq.w	10002c2c <_vsnprintf+0x2d0>
10002dd4:	f107 3cff 	add.w	ip, r7, #4294967295
10002dd8:	e71b      	b.n	10002c12 <_vsnprintf+0x2b6>
10002dda:	f023 0110 	bic.w	r1, r3, #16
10002dde:	f413 6280 	ands.w	r2, r3, #1024	@ 0x400
10002de2:	f041 0121 	orr.w	r1, r1, #33	@ 0x21
10002de6:	f43f aed2 	beq.w	10002b8e <_vsnprintf+0x232>
10002dea:	f10d 0e48 	add.w	lr, sp, #72	@ 0x48
10002dee:	2308      	movs	r3, #8
10002df0:	2010      	movs	r0, #16
10002df2:	9305      	str	r3, [sp, #20]
10002df4:	2300      	movs	r3, #0
10002df6:	464a      	mov	r2, r9
10002df8:	e9cd 3002 	strd	r3, r0, [sp, #8]
10002dfc:	9106      	str	r1, [sp, #24]
10002dfe:	4658      	mov	r0, fp
10002e00:	e9dd 3109 	ldrd	r3, r1, [sp, #36]	@ 0x24
10002e04:	e9cd e600 	strd	lr, r6, [sp]
10002e08:	9704      	str	r7, [sp, #16]
10002e0a:	f7ff f81f 	bl	10001e4c <_ntoa_format>
10002e0e:	940b      	str	r4, [sp, #44]	@ 0x2c
10002e10:	4681      	mov	r9, r0
10002e12:	e5c2      	b.n	1000299a <_vsnprintf+0x3e>
10002e14:	2858      	cmp	r0, #88	@ 0x58
10002e16:	d079      	beq.n	10002f0c <_vsnprintf+0x5b0>
10002e18:	2862      	cmp	r0, #98	@ 0x62
10002e1a:	f040 8251 	bne.w	100032c0 <_vsnprintf+0x964>
10002e1e:	f04f 0802 	mov.w	r8, #2
10002e22:	46c4      	mov	ip, r8
10002e24:	f413 6080 	ands.w	r0, r3, #1024	@ 0x400
10002e28:	d16d      	bne.n	10002f06 <_vsnprintf+0x5aa>
10002e2a:	f023 030c 	bic.w	r3, r3, #12
10002e2e:	f413 7200 	ands.w	r2, r3, #512	@ 0x200
10002e32:	f040 80c2 	bne.w	10002fba <_vsnprintf+0x65e>
10002e36:	990b      	ldr	r1, [sp, #44]	@ 0x2c
10002e38:	3104      	adds	r1, #4
10002e3a:	910d      	str	r1, [sp, #52]	@ 0x34
10002e3c:	f413 7180 	ands.w	r1, r3, #256	@ 0x100
10002e40:	f040 822e 	bne.w	100032a0 <_vsnprintf+0x944>
10002e44:	065e      	lsls	r6, r3, #25
10002e46:	9a0b      	ldr	r2, [sp, #44]	@ 0x2c
10002e48:	f140 80aa 	bpl.w	10002fa0 <_vsnprintf+0x644>
10002e4c:	7812      	ldrb	r2, [r2, #0]
10002e4e:	2a00      	cmp	r2, #0
10002e50:	f040 80da 	bne.w	10003008 <_vsnprintf+0x6ac>
10002e54:	f023 0310 	bic.w	r3, r3, #16
10002e58:	2800      	cmp	r0, #0
10002e5a:	f000 80d5 	beq.w	10003008 <_vsnprintf+0x6ac>
10002e5e:	4611      	mov	r1, r2
10002e60:	f10d 0e48 	add.w	lr, sp, #72	@ 0x48
10002e64:	9306      	str	r3, [sp, #24]
10002e66:	9b0c      	ldr	r3, [sp, #48]	@ 0x30
10002e68:	f8cd c00c 	str.w	ip, [sp, #12]
10002e6c:	e9cd 7304 	strd	r7, r3, [sp, #16]
10002e70:	9101      	str	r1, [sp, #4]
10002e72:	2300      	movs	r3, #0
10002e74:	464a      	mov	r2, r9
10002e76:	9302      	str	r3, [sp, #8]
10002e78:	4658      	mov	r0, fp
10002e7a:	e9dd 3109 	ldrd	r3, r1, [sp, #36]	@ 0x24
10002e7e:	f8cd e000 	str.w	lr, [sp]
10002e82:	f7fe ffe3 	bl	10001e4c <_ntoa_format>
10002e86:	9b0d      	ldr	r3, [sp, #52]	@ 0x34
10002e88:	4681      	mov	r9, r0
10002e8a:	930b      	str	r3, [sp, #44]	@ 0x2c
10002e8c:	e585      	b.n	1000299a <_vsnprintf+0x3e>
10002e8e:	f443 6300 	orr.w	r3, r3, #2048	@ 0x800
10002e92:	e71b      	b.n	10002ccc <_vsnprintf+0x370>
10002e94:	f04f 0808 	mov.w	r8, #8
10002e98:	46c4      	mov	ip, r8
10002e9a:	e7c3      	b.n	10002e24 <_vsnprintf+0x4c8>
10002e9c:	9b0c      	ldr	r3, [sp, #48]	@ 0x30
10002e9e:	464c      	mov	r4, r9
10002ea0:	42b3      	cmp	r3, r6
10002ea2:	f67f aeed 	bls.w	10002c80 <_vsnprintf+0x324>
10002ea6:	460f      	mov	r7, r1
10002ea8:	444b      	add	r3, r9
10002eaa:	eba3 0906 	sub.w	r9, r3, r6
10002eae:	e9dd 6509 	ldrd	r6, r5, [sp, #36]	@ 0x24
10002eb2:	4622      	mov	r2, r4
10002eb4:	4633      	mov	r3, r6
10002eb6:	4629      	mov	r1, r5
10002eb8:	2020      	movs	r0, #32
10002eba:	3401      	adds	r4, #1
10002ebc:	47d8      	blx	fp
10002ebe:	454c      	cmp	r4, r9
10002ec0:	d1f7      	bne.n	10002eb2 <_vsnprintf+0x556>
10002ec2:	4639      	mov	r1, r7
10002ec4:	e6dc      	b.n	10002c80 <_vsnprintf+0x324>
10002ec6:	f443 6300 	orr.w	r3, r3, #2048	@ 0x800
10002eca:	f043 0320 	orr.w	r3, r3, #32
10002ece:	e6fd      	b.n	10002ccc <_vsnprintf+0x370>
10002ed0:	460f      	mov	r7, r1
10002ed2:	940b      	str	r4, [sp, #44]	@ 0x2c
10002ed4:	e9dd 5409 	ldrd	r5, r4, [sp, #36]	@ 0x24
10002ed8:	464a      	mov	r2, r9
10002eda:	462b      	mov	r3, r5
10002edc:	4621      	mov	r1, r4
10002ede:	47d8      	blx	fp
10002ee0:	f818 0f01 	ldrb.w	r0, [r8, #1]!
10002ee4:	f109 0901 	add.w	r9, r9, #1
10002ee8:	2800      	cmp	r0, #0
10002eea:	d1f5      	bne.n	10002ed8 <_vsnprintf+0x57c>
10002eec:	4639      	mov	r1, r7
10002eee:	9c0b      	ldr	r4, [sp, #44]	@ 0x2c
10002ef0:	e6c3      	b.n	10002c7a <_vsnprintf+0x31e>
10002ef2:	f89a 0002 	ldrb.w	r0, [sl, #2]
10002ef6:	f043 03c0 	orr.w	r3, r3, #192	@ 0xc0
10002efa:	f10a 0203 	add.w	r2, sl, #3
10002efe:	e5a8      	b.n	10002a52 <_vsnprintf+0xf6>
10002f00:	4604      	mov	r4, r0
10002f02:	4681      	mov	r9, r0
10002f04:	e61d      	b.n	10002b42 <_vsnprintf+0x1e6>
10002f06:	f023 030d 	bic.w	r3, r3, #13
10002f0a:	e790      	b.n	10002e2e <_vsnprintf+0x4d2>
10002f0c:	f04f 0810 	mov.w	r8, #16
10002f10:	f043 0320 	orr.w	r3, r3, #32
10002f14:	46c4      	mov	ip, r8
10002f16:	e785      	b.n	10002e24 <_vsnprintf+0x4c8>
10002f18:	9b0c      	ldr	r3, [sp, #48]	@ 0x30
10002f1a:	2b01      	cmp	r3, #1
10002f1c:	d945      	bls.n	10002faa <_vsnprintf+0x64e>
10002f1e:	e9dd 5409 	ldrd	r5, r4, [sp, #36]	@ 0x24
10002f22:	464e      	mov	r6, r9
10002f24:	f109 38ff 	add.w	r8, r9, #4294967295
10002f28:	4498      	add	r8, r3
10002f2a:	4632      	mov	r2, r6
10002f2c:	462b      	mov	r3, r5
10002f2e:	4621      	mov	r1, r4
10002f30:	2020      	movs	r0, #32
10002f32:	3601      	adds	r6, #1
10002f34:	47d8      	blx	fp
10002f36:	4546      	cmp	r6, r8
10002f38:	d1f7      	bne.n	10002f2a <_vsnprintf+0x5ce>
10002f3a:	9b0c      	ldr	r3, [sp, #48]	@ 0x30
10002f3c:	4632      	mov	r2, r6
10002f3e:	4499      	add	r9, r3
10002f40:	9b0b      	ldr	r3, [sp, #44]	@ 0x2c
10002f42:	7818      	ldrb	r0, [r3, #0]
10002f44:	e9dd 3109 	ldrd	r3, r1, [sp, #36]	@ 0x24
10002f48:	47d8      	blx	fp
10002f4a:	970b      	str	r7, [sp, #44]	@ 0x2c
10002f4c:	e525      	b.n	1000299a <_vsnprintf+0x3e>
10002f4e:	9b0c      	ldr	r3, [sp, #48]	@ 0x30
10002f50:	42b3      	cmp	r3, r6
10002f52:	f240 81ee 	bls.w	10003332 <_vsnprintf+0x9d6>
10002f56:	e9cd 480d 	strd	r4, r8, [sp, #52]	@ 0x34
10002f5a:	e9dd 5409 	ldrd	r5, r4, [sp, #36]	@ 0x24
10002f5e:	4688      	mov	r8, r1
10002f60:	444b      	add	r3, r9
10002f62:	1b9e      	subs	r6, r3, r6
10002f64:	f8cd c02c 	str.w	ip, [sp, #44]	@ 0x2c
10002f68:	464a      	mov	r2, r9
10002f6a:	462b      	mov	r3, r5
10002f6c:	4621      	mov	r1, r4
10002f6e:	2020      	movs	r0, #32
10002f70:	f109 0901 	add.w	r9, r9, #1
10002f74:	47d8      	blx	fp
10002f76:	45b1      	cmp	r9, r6
10002f78:	d1f6      	bne.n	10002f68 <_vsnprintf+0x60c>
10002f7a:	4641      	mov	r1, r8
10002f7c:	f8dd 8038 	ldr.w	r8, [sp, #56]	@ 0x38
10002f80:	9b0c      	ldr	r3, [sp, #48]	@ 0x30
10002f82:	f8dd c02c 	ldr.w	ip, [sp, #44]	@ 0x2c
10002f86:	9c0d      	ldr	r4, [sp, #52]	@ 0x34
10002f88:	f898 2000 	ldrb.w	r2, [r8]
10002f8c:	1c5e      	adds	r6, r3, #1
10002f8e:	4610      	mov	r0, r2
10002f90:	2a00      	cmp	r2, #0
10002f92:	f47f ae58 	bne.w	10002c46 <_vsnprintf+0x2ea>
10002f96:	e673      	b.n	10002c80 <_vsnprintf+0x324>
10002f98:	f04f 0810 	mov.w	r8, #16
10002f9c:	46c4      	mov	ip, r8
10002f9e:	e741      	b.n	10002e24 <_vsnprintf+0x4c8>
10002fa0:	061d      	lsls	r5, r3, #24
10002fa2:	bf4c      	ite	mi
10002fa4:	8812      	ldrhmi	r2, [r2, #0]
10002fa6:	6812      	ldrpl	r2, [r2, #0]
10002fa8:	e751      	b.n	10002e4e <_vsnprintf+0x4f2>
10002faa:	4613      	mov	r3, r2
10002fac:	464a      	mov	r2, r9
10002fae:	7818      	ldrb	r0, [r3, #0]
10002fb0:	e9dd 3109 	ldrd	r3, r1, [sp, #36]	@ 0x24
10002fb4:	47d8      	blx	fp
10002fb6:	46b1      	mov	r9, r6
10002fb8:	e6dc      	b.n	10002d74 <_vsnprintf+0x418>
10002fba:	9c0b      	ldr	r4, [sp, #44]	@ 0x2c
10002fbc:	3407      	adds	r4, #7
10002fbe:	f024 0407 	bic.w	r4, r4, #7
10002fc2:	4622      	mov	r2, r4
10002fc4:	6865      	ldr	r5, [r4, #4]
10002fc6:	f852 4b08 	ldr.w	r4, [r2], #8
10002fca:	920b      	str	r2, [sp, #44]	@ 0x2c
10002fcc:	ea54 0205 	orrs.w	r2, r4, r5
10002fd0:	f040 812c 	bne.w	1000322c <_vsnprintf+0x8d0>
10002fd4:	f023 0310 	bic.w	r3, r3, #16
10002fd8:	2800      	cmp	r0, #0
10002fda:	f000 8127 	beq.w	1000322c <_vsnprintf+0x8d0>
10002fde:	2600      	movs	r6, #0
10002fe0:	f10d 0e48 	add.w	lr, sp, #72	@ 0x48
10002fe4:	9306      	str	r3, [sp, #24]
10002fe6:	9b0c      	ldr	r3, [sp, #48]	@ 0x30
10002fe8:	464a      	mov	r2, r9
10002fea:	e9cd 7304 	strd	r7, r3, [sp, #16]
10002fee:	2300      	movs	r3, #0
10002ff0:	e9cd e600 	strd	lr, r6, [sp]
10002ff4:	f8cd c00c 	str.w	ip, [sp, #12]
10002ff8:	9302      	str	r3, [sp, #8]
10002ffa:	4658      	mov	r0, fp
10002ffc:	e9dd 3109 	ldrd	r3, r1, [sp, #36]	@ 0x24
10003000:	f7fe ff24 	bl	10001e4c <_ntoa_format>
10003004:	4681      	mov	r9, r0
10003006:	e4c8      	b.n	1000299a <_vsnprintf+0x3e>
10003008:	f013 0f20 	tst.w	r3, #32
1000300c:	bf14      	ite	ne
1000300e:	2041      	movne	r0, #65	@ 0x41
10003010:	2061      	moveq	r0, #97	@ 0x61
10003012:	f10d 0e48 	add.w	lr, sp, #72	@ 0x48
10003016:	4676      	mov	r6, lr
10003018:	f1a0 080a 	sub.w	r8, r0, #10
1000301c:	e003      	b.n	10003026 <_vsnprintf+0x6ca>
1000301e:	2920      	cmp	r1, #32
10003020:	f43f af20 	beq.w	10002e64 <_vsnprintf+0x508>
10003024:	4622      	mov	r2, r4
10003026:	fbb2 f4fc 	udiv	r4, r2, ip
1000302a:	fb0c 2514 	mls	r5, ip, r4, r2
1000302e:	b2e8      	uxtb	r0, r5
10003030:	2d09      	cmp	r5, #9
10003032:	f100 0530 	add.w	r5, r0, #48	@ 0x30
10003036:	bf8a      	itet	hi
10003038:	4440      	addhi	r0, r8
1000303a:	b2e8      	uxtbls	r0, r5
1000303c:	b2c0      	uxtbhi	r0, r0
1000303e:	4562      	cmp	r2, ip
10003040:	f806 0b01 	strb.w	r0, [r6], #1
10003044:	f101 0101 	add.w	r1, r1, #1
10003048:	d2e9      	bcs.n	1000301e <_vsnprintf+0x6c2>
1000304a:	e70b      	b.n	10002e64 <_vsnprintf+0x508>
1000304c:	f023 0210 	bic.w	r2, r3, #16
10003050:	2869      	cmp	r0, #105	@ 0x69
10003052:	920d      	str	r2, [sp, #52]	@ 0x34
10003054:	f040 816f 	bne.w	10003336 <_vsnprintf+0x9da>
10003058:	f413 6280 	ands.w	r2, r3, #1024	@ 0x400
1000305c:	d004      	beq.n	10003068 <_vsnprintf+0x70c>
1000305e:	f44f 6280 	mov.w	r2, #1024	@ 0x400
10003062:	f023 0311 	bic.w	r3, r3, #17
10003066:	930d      	str	r3, [sp, #52]	@ 0x34
10003068:	9b0d      	ldr	r3, [sp, #52]	@ 0x34
1000306a:	f413 7600 	ands.w	r6, r3, #512	@ 0x200
1000306e:	d140      	bne.n	100030f2 <_vsnprintf+0x796>
10003070:	9b0b      	ldr	r3, [sp, #44]	@ 0x2c
10003072:	f103 0804 	add.w	r8, r3, #4
10003076:	9b0d      	ldr	r3, [sp, #52]	@ 0x34
10003078:	f413 7080 	ands.w	r0, r3, #256	@ 0x100
1000307c:	f040 8098 	bne.w	100031b0 <_vsnprintf+0x854>
10003080:	0659      	lsls	r1, r3, #25
10003082:	f140 80c6 	bpl.w	10003212 <_vsnprintf+0x8b6>
10003086:	9b0b      	ldr	r3, [sp, #44]	@ 0x2c
10003088:	7819      	ldrb	r1, [r3, #0]
1000308a:	460c      	mov	r4, r1
1000308c:	0fcb      	lsrs	r3, r1, #31
1000308e:	2900      	cmp	r1, #0
10003090:	f000 80b9 	beq.w	10003206 <_vsnprintf+0x8aa>
10003094:	4622      	mov	r2, r4
10003096:	f10d 0e48 	add.w	lr, sp, #72	@ 0x48
1000309a:	4674      	mov	r4, lr
1000309c:	4616      	mov	r6, r2
1000309e:	f8df c2a0 	ldr.w	ip, [pc, #672]	@ 10003340 <_vsnprintf+0x9e4>
100030a2:	e001      	b.n	100030a8 <_vsnprintf+0x74c>
100030a4:	2820      	cmp	r0, #32
100030a6:	d00f      	beq.n	100030c8 <_vsnprintf+0x76c>
100030a8:	4635      	mov	r5, r6
100030aa:	fbac 2106 	umull	r2, r1, ip, r6
100030ae:	08c9      	lsrs	r1, r1, #3
100030b0:	eb01 0281 	add.w	r2, r1, r1, lsl #2
100030b4:	eba6 0242 	sub.w	r2, r6, r2, lsl #1
100030b8:	3230      	adds	r2, #48	@ 0x30
100030ba:	2d09      	cmp	r5, #9
100030bc:	460e      	mov	r6, r1
100030be:	f100 0001 	add.w	r0, r0, #1
100030c2:	f804 2b01 	strb.w	r2, [r4], #1
100030c6:	d8ed      	bhi.n	100030a4 <_vsnprintf+0x748>
100030c8:	9a0d      	ldr	r2, [sp, #52]	@ 0x34
100030ca:	e9cd 0301 	strd	r0, r3, [sp, #4]
100030ce:	9206      	str	r2, [sp, #24]
100030d0:	9a0c      	ldr	r2, [sp, #48]	@ 0x30
100030d2:	e9cd 7204 	strd	r7, r2, [sp, #16]
100030d6:	230a      	movs	r3, #10
100030d8:	464a      	mov	r2, r9
100030da:	9303      	str	r3, [sp, #12]
100030dc:	4658      	mov	r0, fp
100030de:	e9dd 3109 	ldrd	r3, r1, [sp, #36]	@ 0x24
100030e2:	f8cd e000 	str.w	lr, [sp]
100030e6:	f7fe feb1 	bl	10001e4c <_ntoa_format>
100030ea:	f8cd 802c 	str.w	r8, [sp, #44]	@ 0x2c
100030ee:	4681      	mov	r9, r0
100030f0:	e453      	b.n	1000299a <_vsnprintf+0x3e>
100030f2:	9c0b      	ldr	r4, [sp, #44]	@ 0x2c
100030f4:	3407      	adds	r4, #7
100030f6:	f024 0407 	bic.w	r4, r4, #7
100030fa:	4621      	mov	r1, r4
100030fc:	4608      	mov	r0, r1
100030fe:	6863      	ldr	r3, [r4, #4]
10003100:	f850 1b08 	ldr.w	r1, [r0], #8
10003104:	0fdc      	lsrs	r4, r3, #31
10003106:	900b      	str	r0, [sp, #44]	@ 0x2c
10003108:	ea51 0003 	orrs.w	r0, r1, r3
1000310c:	f000 80c3 	beq.w	10003296 <_vsnprintf+0x93a>
10003110:	460a      	mov	r2, r1
10003112:	1e19      	subs	r1, r3, #0
10003114:	db48      	blt.n	100031a8 <_vsnprintf+0x84c>
10003116:	4613      	mov	r3, r2
10003118:	f10d 0e48 	add.w	lr, sp, #72	@ 0x48
1000311c:	46f4      	mov	ip, lr
1000311e:	2600      	movs	r6, #0
10003120:	e9cd 940e 	strd	r9, r4, [sp, #56]	@ 0x38
10003124:	f8df 8218 	ldr.w	r8, [pc, #536]	@ 10003340 <_vsnprintf+0x9e4>
10003128:	e001      	b.n	1000312e <_vsnprintf+0x7d2>
1000312a:	2e20      	cmp	r6, #32
1000312c:	d02d      	beq.n	1000318a <_vsnprintf+0x82e>
1000312e:	185a      	adds	r2, r3, r1
10003130:	f142 0200 	adc.w	r2, r2, #0
10003134:	fba8 5902 	umull	r5, r9, r8, r2
10003138:	f029 0503 	bic.w	r5, r9, #3
1000313c:	eb05 0599 	add.w	r5, r5, r9, lsr #2
10003140:	1b52      	subs	r2, r2, r5
10003142:	461c      	mov	r4, r3
10003144:	1a9b      	subs	r3, r3, r2
10003146:	f161 0500 	sbc.w	r5, r1, #0
1000314a:	4608      	mov	r0, r1
1000314c:	f04f 31cc 	mov.w	r1, #3435973836	@ 0xcccccccc
10003150:	fb01 f103 	mul.w	r1, r1, r3
10003154:	fb08 1105 	mla	r1, r8, r5, r1
10003158:	fba3 5308 	umull	r5, r3, r3, r8
1000315c:	4419      	add	r1, r3
1000315e:	2305      	movs	r3, #5
10003160:	f005 0901 	and.w	r9, r5, #1
10003164:	fba9 3903 	umull	r3, r9, r9, r3
10003168:	189b      	adds	r3, r3, r2
1000316a:	2c0a      	cmp	r4, #10
1000316c:	f103 0330 	add.w	r3, r3, #48	@ 0x30
10003170:	ea4f 0555 	mov.w	r5, r5, lsr #1
10003174:	f170 0000 	sbcs.w	r0, r0, #0
10003178:	f80c 3b01 	strb.w	r3, [ip], #1
1000317c:	f106 0601 	add.w	r6, r6, #1
10003180:	ea45 73c1 	orr.w	r3, r5, r1, lsl #31
10003184:	ea4f 0151 	mov.w	r1, r1, lsr #1
10003188:	d2cf      	bcs.n	1000312a <_vsnprintf+0x7ce>
1000318a:	e9dd 940e 	ldrd	r9, r4, [sp, #56]	@ 0x38
1000318e:	9b0d      	ldr	r3, [sp, #52]	@ 0x34
10003190:	464a      	mov	r2, r9
10003192:	9306      	str	r3, [sp, #24]
10003194:	9b0c      	ldr	r3, [sp, #48]	@ 0x30
10003196:	e9cd 6401 	strd	r6, r4, [sp, #4]
1000319a:	e9cd 7304 	strd	r7, r3, [sp, #16]
1000319e:	230a      	movs	r3, #10
100031a0:	f8cd e000 	str.w	lr, [sp]
100031a4:	9303      	str	r3, [sp, #12]
100031a6:	e728      	b.n	10002ffa <_vsnprintf+0x69e>
100031a8:	4252      	negs	r2, r2
100031aa:	eb61 0141 	sbc.w	r1, r1, r1, lsl #1
100031ae:	e7b2      	b.n	10003116 <_vsnprintf+0x7ba>
100031b0:	9b0b      	ldr	r3, [sp, #44]	@ 0x2c
100031b2:	6819      	ldr	r1, [r3, #0]
100031b4:	0fcb      	lsrs	r3, r1, #31
100031b6:	2900      	cmp	r1, #0
100031b8:	f000 80ab 	beq.w	10003312 <_vsnprintf+0x9b6>
100031bc:	ea81 72e1 	eor.w	r2, r1, r1, asr #31
100031c0:	eba2 72e1 	sub.w	r2, r2, r1, asr #31
100031c4:	f10d 0e48 	add.w	lr, sp, #72	@ 0x48
100031c8:	4670      	mov	r0, lr
100031ca:	f8df c174 	ldr.w	ip, [pc, #372]	@ 10003340 <_vsnprintf+0x9e4>
100031ce:	e001      	b.n	100031d4 <_vsnprintf+0x878>
100031d0:	2e20      	cmp	r6, #32
100031d2:	d010      	beq.n	100031f6 <_vsnprintf+0x89a>
100031d4:	4615      	mov	r5, r2
100031d6:	fbac 4102 	umull	r4, r1, ip, r2
100031da:	08c9      	lsrs	r1, r1, #3
100031dc:	eb01 0481 	add.w	r4, r1, r1, lsl #2
100031e0:	eba2 0444 	sub.w	r4, r2, r4, lsl #1
100031e4:	f104 0230 	add.w	r2, r4, #48	@ 0x30
100031e8:	2d09      	cmp	r5, #9
100031ea:	f800 2b01 	strb.w	r2, [r0], #1
100031ee:	f106 0601 	add.w	r6, r6, #1
100031f2:	460a      	mov	r2, r1
100031f4:	d8ec      	bhi.n	100031d0 <_vsnprintf+0x874>
100031f6:	9a0d      	ldr	r2, [sp, #52]	@ 0x34
100031f8:	e9cd 6301 	strd	r6, r3, [sp, #4]
100031fc:	9206      	str	r2, [sp, #24]
100031fe:	9a0c      	ldr	r2, [sp, #48]	@ 0x30
10003200:	e9cd 7204 	strd	r7, r2, [sp, #16]
10003204:	e767      	b.n	100030d6 <_vsnprintf+0x77a>
10003206:	2a00      	cmp	r2, #0
10003208:	f43f af45 	beq.w	10003096 <_vsnprintf+0x73a>
1000320c:	f10d 0e48 	add.w	lr, sp, #72	@ 0x48
10003210:	e75a      	b.n	100030c8 <_vsnprintf+0x76c>
10003212:	f013 0f80 	tst.w	r3, #128	@ 0x80
10003216:	9b0b      	ldr	r3, [sp, #44]	@ 0x2c
10003218:	f000 8081 	beq.w	1000331e <_vsnprintf+0x9c2>
1000321c:	f9b3 1000 	ldrsh.w	r1, [r3]
10003220:	ea81 74e1 	eor.w	r4, r1, r1, asr #31
10003224:	eba4 74e1 	sub.w	r4, r4, r1, asr #31
10003228:	b2a4      	uxth	r4, r4
1000322a:	e72f      	b.n	1000308c <_vsnprintf+0x730>
1000322c:	f013 0f20 	tst.w	r3, #32
10003230:	bf14      	ite	ne
10003232:	2241      	movne	r2, #65	@ 0x41
10003234:	2261      	moveq	r2, #97	@ 0x61
10003236:	f10d 0e48 	add.w	lr, sp, #72	@ 0x48
1000323a:	3a0a      	subs	r2, #10
1000323c:	e9cd 970d 	strd	r9, r7, [sp, #52]	@ 0x34
10003240:	f8cd b044 	str.w	fp, [sp, #68]	@ 0x44
10003244:	2600      	movs	r6, #0
10003246:	4677      	mov	r7, lr
10003248:	46f3      	mov	fp, lr
1000324a:	4691      	mov	r9, r2
1000324c:	e9cd 3c0f 	strd	r3, ip, [sp, #60]	@ 0x3c
10003250:	e003      	b.n	1000325a <_vsnprintf+0x8fe>
10003252:	2e20      	cmp	r6, #32
10003254:	d017      	beq.n	10003286 <_vsnprintf+0x92a>
10003256:	4604      	mov	r4, r0
10003258:	460d      	mov	r5, r1
1000325a:	4629      	mov	r1, r5
1000325c:	4642      	mov	r2, r8
1000325e:	2300      	movs	r3, #0
10003260:	4620      	mov	r0, r4
10003262:	f000 fefd 	bl	10004060 <____aeabi_uldivmod_veneer>
10003266:	b2d2      	uxtb	r2, r2
10003268:	2a09      	cmp	r2, #9
1000326a:	f102 0330 	add.w	r3, r2, #48	@ 0x30
1000326e:	bf88      	it	hi
10003270:	eb02 0309 	addhi.w	r3, r2, r9
10003274:	4544      	cmp	r4, r8
10003276:	b2db      	uxtb	r3, r3
10003278:	f175 0500 	sbcs.w	r5, r5, #0
1000327c:	f807 3b01 	strb.w	r3, [r7], #1
10003280:	f106 0601 	add.w	r6, r6, #1
10003284:	d2e5      	bcs.n	10003252 <_vsnprintf+0x8f6>
10003286:	46de      	mov	lr, fp
10003288:	e9dd 970d 	ldrd	r9, r7, [sp, #52]	@ 0x34
1000328c:	e9dd 3c0f 	ldrd	r3, ip, [sp, #60]	@ 0x3c
10003290:	f8dd b044 	ldr.w	fp, [sp, #68]	@ 0x44
10003294:	e6a6      	b.n	10002fe4 <_vsnprintf+0x688>
10003296:	2a00      	cmp	r2, #0
10003298:	d147      	bne.n	1000332a <_vsnprintf+0x9ce>
1000329a:	4613      	mov	r3, r2
1000329c:	4611      	mov	r1, r2
1000329e:	e73b      	b.n	10003118 <_vsnprintf+0x7bc>
100032a0:	990b      	ldr	r1, [sp, #44]	@ 0x2c
100032a2:	6809      	ldr	r1, [r1, #0]
100032a4:	b9a1      	cbnz	r1, 100032d0 <_vsnprintf+0x974>
100032a6:	f023 0310 	bic.w	r3, r3, #16
100032aa:	b188      	cbz	r0, 100032d0 <_vsnprintf+0x974>
100032ac:	f10d 0e48 	add.w	lr, sp, #72	@ 0x48
100032b0:	9306      	str	r3, [sp, #24]
100032b2:	9b0c      	ldr	r3, [sp, #48]	@ 0x30
100032b4:	f8cd c00c 	str.w	ip, [sp, #12]
100032b8:	e9cd 7304 	strd	r7, r3, [sp, #16]
100032bc:	9201      	str	r2, [sp, #4]
100032be:	e5d8      	b.n	10002e72 <_vsnprintf+0x516>
100032c0:	f413 6280 	ands.w	r2, r3, #1024	@ 0x400
100032c4:	f47f aecb 	bne.w	1000305e <_vsnprintf+0x702>
100032c8:	f023 0310 	bic.w	r3, r3, #16
100032cc:	930d      	str	r3, [sp, #52]	@ 0x34
100032ce:	e6cb      	b.n	10003068 <_vsnprintf+0x70c>
100032d0:	f013 0f20 	tst.w	r3, #32
100032d4:	bf14      	ite	ne
100032d6:	2041      	movne	r0, #65	@ 0x41
100032d8:	2061      	moveq	r0, #97	@ 0x61
100032da:	f10d 0e48 	add.w	lr, sp, #72	@ 0x48
100032de:	4676      	mov	r6, lr
100032e0:	f1a0 080a 	sub.w	r8, r0, #10
100032e4:	e002      	b.n	100032ec <_vsnprintf+0x990>
100032e6:	2a20      	cmp	r2, #32
100032e8:	d0e2      	beq.n	100032b0 <_vsnprintf+0x954>
100032ea:	4621      	mov	r1, r4
100032ec:	fbb1 f4fc 	udiv	r4, r1, ip
100032f0:	fb0c 1514 	mls	r5, ip, r4, r1
100032f4:	b2e8      	uxtb	r0, r5
100032f6:	2d09      	cmp	r5, #9
100032f8:	f100 0530 	add.w	r5, r0, #48	@ 0x30
100032fc:	bf8a      	itet	hi
100032fe:	4440      	addhi	r0, r8
10003300:	b2e8      	uxtbls	r0, r5
10003302:	b2c0      	uxtbhi	r0, r0
10003304:	4561      	cmp	r1, ip
10003306:	f806 0b01 	strb.w	r0, [r6], #1
1000330a:	f102 0201 	add.w	r2, r2, #1
1000330e:	d2ea      	bcs.n	100032e6 <_vsnprintf+0x98a>
10003310:	e7ce      	b.n	100032b0 <_vsnprintf+0x954>
10003312:	2a00      	cmp	r2, #0
10003314:	f43f af56 	beq.w	100031c4 <_vsnprintf+0x868>
10003318:	f10d 0e48 	add.w	lr, sp, #72	@ 0x48
1000331c:	e76b      	b.n	100031f6 <_vsnprintf+0x89a>
1000331e:	6819      	ldr	r1, [r3, #0]
10003320:	ea81 74e1 	eor.w	r4, r1, r1, asr #31
10003324:	eba4 74e1 	sub.w	r4, r4, r1, asr #31
10003328:	e6b0      	b.n	1000308c <_vsnprintf+0x730>
1000332a:	2600      	movs	r6, #0
1000332c:	f10d 0e48 	add.w	lr, sp, #72	@ 0x48
10003330:	e72d      	b.n	1000318e <_vsnprintf+0x832>
10003332:	3601      	adds	r6, #1
10003334:	e62b      	b.n	10002f8e <_vsnprintf+0x632>
10003336:	f04f 080a 	mov.w	r8, #10
1000333a:	4613      	mov	r3, r2
1000333c:	46c4      	mov	ip, r8
1000333e:	e571      	b.n	10002e24 <_vsnprintf+0x4c8>
10003340:	cccccccd 	.word	0xcccccccd

10003344 <__wrap_sprintf>:
10003344:	b40e      	push	{r1, r2, r3}
10003346:	b510      	push	{r4, lr}
10003348:	b085      	sub	sp, #20
1000334a:	ac07      	add	r4, sp, #28
1000334c:	f854 3b04 	ldr.w	r3, [r4], #4
10003350:	4601      	mov	r1, r0
10003352:	f04f 32ff 	mov.w	r2, #4294967295
10003356:	9400      	str	r4, [sp, #0]
10003358:	4804      	ldr	r0, [pc, #16]	@ (1000336c <__wrap_sprintf+0x28>)
1000335a:	9403      	str	r4, [sp, #12]
1000335c:	f7ff fafe 	bl	1000295c <_vsnprintf>
10003360:	b005      	add	sp, #20
10003362:	e8bd 4010 	ldmia.w	sp!, {r4, lr}
10003366:	b003      	add	sp, #12
10003368:	4770      	bx	lr
1000336a:	bf00      	nop
1000336c:	10001da5 	.word	0x10001da5

10003370 <vfctprintf>:
10003370:	b570      	push	{r4, r5, r6, lr}
10003372:	4694      	mov	ip, r2
10003374:	461e      	mov	r6, r3
10003376:	4605      	mov	r5, r0
10003378:	460c      	mov	r4, r1
1000337a:	b084      	sub	sp, #16
1000337c:	f04f 32ff 	mov.w	r2, #4294967295
10003380:	4663      	mov	r3, ip
10003382:	a902      	add	r1, sp, #8
10003384:	9600      	str	r6, [sp, #0]
10003386:	4803      	ldr	r0, [pc, #12]	@ (10003394 <vfctprintf+0x24>)
10003388:	e9cd 5402 	strd	r5, r4, [sp, #8]
1000338c:	f7ff fae6 	bl	1000295c <_vsnprintf>
10003390:	b004      	add	sp, #16
10003392:	bd70      	pop	{r4, r5, r6, pc}
10003394:	100020f9 	.word	0x100020f9

10003398 <weak_raw_vprintf>:
10003398:	b510      	push	{r4, lr}
1000339a:	4b09      	ldr	r3, [pc, #36]	@ (100033c0 <weak_raw_vprintf+0x28>)
1000339c:	b084      	sub	sp, #16
1000339e:	681c      	ldr	r4, [r3, #0]
100033a0:	b14c      	cbz	r4, 100033b6 <weak_raw_vprintf+0x1e>
100033a2:	4603      	mov	r3, r0
100033a4:	9100      	str	r1, [sp, #0]
100033a6:	f04f 32ff 	mov.w	r2, #4294967295
100033aa:	a903      	add	r1, sp, #12
100033ac:	4805      	ldr	r0, [pc, #20]	@ (100033c4 <weak_raw_vprintf+0x2c>)
100033ae:	47a0      	blx	r4
100033b0:	2001      	movs	r0, #1
100033b2:	b004      	add	sp, #16
100033b4:	bd10      	pop	{r4, pc}
100033b6:	f000 f9c7 	bl	10003748 <__wrap_puts>
100033ba:	4620      	mov	r0, r4
100033bc:	b004      	add	sp, #16
100033be:	bd10      	pop	{r4, pc}
100033c0:	200009b0 	.word	0x200009b0
100033c4:	100020f1 	.word	0x100020f1

100033c8 <_exit>:
100033c8:	be00      	bkpt	0x0000
100033ca:	e7fd      	b.n	100033c8 <_exit>

100033cc <exit>:
100033cc:	b508      	push	{r3, lr}
100033ce:	f7ff fffb 	bl	100033c8 <_exit>
100033d2:	bf00      	nop

100033d4 <runtime_init>:
100033d4:	b538      	push	{r3, r4, r5, lr}
100033d6:	4c06      	ldr	r4, [pc, #24]	@ (100033f0 <runtime_init+0x1c>)
100033d8:	4d06      	ldr	r5, [pc, #24]	@ (100033f4 <runtime_init+0x20>)
100033da:	f7fe faa9 	bl	10001930 <runtime_run_initializers>
100033de:	42ac      	cmp	r4, r5
100033e0:	d204      	bcs.n	100033ec <runtime_init+0x18>
100033e2:	f854 3b04 	ldr.w	r3, [r4], #4
100033e6:	4798      	blx	r3
100033e8:	42ac      	cmp	r4, r5
100033ea:	d3fa      	bcc.n	100033e2 <runtime_init+0xe>
100033ec:	bd38      	pop	{r3, r4, r5, pc}
100033ee:	bf00      	nop
100033f0:	100040b8 	.word	0x100040b8
100033f4:	100040c0 	.word	0x100040c0

100033f8 <stdio_out_chars_no_crlf>:
100033f8:	6803      	ldr	r3, [r0, #0]
100033fa:	4608      	mov	r0, r1
100033fc:	4611      	mov	r1, r2
100033fe:	4718      	bx	r3

10003400 <stdio_out_chars_crlf>:
10003400:	7d43      	ldrb	r3, [r0, #21]
10003402:	e92d 47f0 	stmdb	sp!, {r4, r5, r6, r7, r8, r9, sl, lr}
10003406:	4681      	mov	r9, r0
10003408:	460f      	mov	r7, r1
1000340a:	4616      	mov	r6, r2
1000340c:	2b00      	cmp	r3, #0
1000340e:	d043      	beq.n	10003498 <stdio_out_chars_crlf+0x98>
10003410:	2a00      	cmp	r2, #0
10003412:	dd3b      	ble.n	1000348c <stdio_out_chars_crlf+0x8c>
10003414:	7d03      	ldrb	r3, [r0, #20]
10003416:	2000      	movs	r0, #0
10003418:	1e4d      	subs	r5, r1, #1
1000341a:	4601      	mov	r1, r0
1000341c:	f815 2f01 	ldrb.w	r2, [r5, #1]!
10003420:	f8df 8084 	ldr.w	r8, [pc, #132]	@ 100034a8 <stdio_out_chars_crlf+0xa8>
10003424:	2a0a      	cmp	r2, #10
10003426:	f101 0401 	add.w	r4, r1, #1
1000342a:	d00e      	beq.n	1000344a <stdio_out_chars_crlf+0x4a>
1000342c:	42a6      	cmp	r6, r4
1000342e:	d01c      	beq.n	1000346a <stdio_out_chars_crlf+0x6a>
10003430:	782b      	ldrb	r3, [r5, #0]
10003432:	4621      	mov	r1, r4
10003434:	f1a3 030d 	sub.w	r3, r3, #13
10003438:	fab3 f383 	clz	r3, r3
1000343c:	f815 2f01 	ldrb.w	r2, [r5, #1]!
10003440:	095b      	lsrs	r3, r3, #5
10003442:	2a0a      	cmp	r2, #10
10003444:	f101 0401 	add.w	r4, r1, #1
10003448:	d1f0      	bne.n	1000342c <stdio_out_chars_crlf+0x2c>
1000344a:	2b00      	cmp	r3, #0
1000344c:	d1ee      	bne.n	1000342c <stdio_out_chars_crlf+0x2c>
1000344e:	4281      	cmp	r1, r0
10003450:	eba1 0100 	sub.w	r1, r1, r0
10003454:	4438      	add	r0, r7
10003456:	dc1b      	bgt.n	10003490 <stdio_out_chars_crlf+0x90>
10003458:	2102      	movs	r1, #2
1000345a:	4640      	mov	r0, r8
1000345c:	f8d9 3000 	ldr.w	r3, [r9]
10003460:	4798      	blx	r3
10003462:	42a6      	cmp	r6, r4
10003464:	d008      	beq.n	10003478 <stdio_out_chars_crlf+0x78>
10003466:	4620      	mov	r0, r4
10003468:	e7e2      	b.n	10003430 <stdio_out_chars_crlf+0x30>
1000346a:	4286      	cmp	r6, r0
1000346c:	dd04      	ble.n	10003478 <stdio_out_chars_crlf+0x78>
1000346e:	1a31      	subs	r1, r6, r0
10003470:	f8d9 3000 	ldr.w	r3, [r9]
10003474:	4438      	add	r0, r7
10003476:	4798      	blx	r3
10003478:	4437      	add	r7, r6
1000347a:	f817 3c01 	ldrb.w	r3, [r7, #-1]
1000347e:	f1a3 030d 	sub.w	r3, r3, #13
10003482:	fab3 f383 	clz	r3, r3
10003486:	095b      	lsrs	r3, r3, #5
10003488:	f889 3014 	strb.w	r3, [r9, #20]
1000348c:	e8bd 87f0 	ldmia.w	sp!, {r4, r5, r6, r7, r8, r9, sl, pc}
10003490:	f8d9 3000 	ldr.w	r3, [r9]
10003494:	4798      	blx	r3
10003496:	e7df      	b.n	10003458 <stdio_out_chars_crlf+0x58>
10003498:	4638      	mov	r0, r7
1000349a:	f8d9 3000 	ldr.w	r3, [r9]
1000349e:	4611      	mov	r1, r2
100034a0:	e8bd 47f0 	ldmia.w	sp!, {r4, r5, r6, r7, r8, r9, sl, lr}
100034a4:	4718      	bx	r3
100034a6:	bf00      	nop
100034a8:	10004358 	.word	0x10004358

100034ac <stdio_buffered_printer>:
100034ac:	680b      	ldr	r3, [r1, #0]
100034ae:	e92d 41f0 	stmdb	sp!, {r4, r5, r6, r7, r8, lr}
100034b2:	2b80      	cmp	r3, #128	@ 0x80
100034b4:	460d      	mov	r5, r1
100034b6:	4606      	mov	r6, r0
100034b8:	d005      	beq.n	100034c6 <stdio_buffered_printer+0x1a>
100034ba:	1c5a      	adds	r2, r3, #1
100034bc:	442b      	add	r3, r5
100034be:	602a      	str	r2, [r5, #0]
100034c0:	711e      	strb	r6, [r3, #4]
100034c2:	e8bd 81f0 	ldmia.w	sp!, {r4, r5, r6, r7, r8, pc}
100034c6:	4b0f      	ldr	r3, [pc, #60]	@ (10003504 <stdio_buffered_printer+0x58>)
100034c8:	681c      	ldr	r4, [r3, #0]
100034ca:	b1a4      	cbz	r4, 100034f6 <stdio_buffered_printer+0x4a>
100034cc:	4f0e      	ldr	r7, [pc, #56]	@ (10003508 <stdio_buffered_printer+0x5c>)
100034ce:	f101 0804 	add.w	r8, r1, #4
100034d2:	e001      	b.n	100034d8 <stdio_buffered_printer+0x2c>
100034d4:	6924      	ldr	r4, [r4, #16]
100034d6:	b174      	cbz	r4, 100034f6 <stdio_buffered_printer+0x4a>
100034d8:	6823      	ldr	r3, [r4, #0]
100034da:	2b00      	cmp	r3, #0
100034dc:	d0fa      	beq.n	100034d4 <stdio_buffered_printer+0x28>
100034de:	683b      	ldr	r3, [r7, #0]
100034e0:	b10b      	cbz	r3, 100034e6 <stdio_buffered_printer+0x3a>
100034e2:	42a3      	cmp	r3, r4
100034e4:	d1f6      	bne.n	100034d4 <stdio_buffered_printer+0x28>
100034e6:	4620      	mov	r0, r4
100034e8:	4641      	mov	r1, r8
100034ea:	682a      	ldr	r2, [r5, #0]
100034ec:	f7ff ff88 	bl	10003400 <stdio_out_chars_crlf>
100034f0:	6924      	ldr	r4, [r4, #16]
100034f2:	2c00      	cmp	r4, #0
100034f4:	d1f0      	bne.n	100034d8 <stdio_buffered_printer+0x2c>
100034f6:	2300      	movs	r3, #0
100034f8:	2201      	movs	r2, #1
100034fa:	442b      	add	r3, r5
100034fc:	602a      	str	r2, [r5, #0]
100034fe:	711e      	strb	r6, [r3, #4]
10003500:	e8bd 81f0 	ldmia.w	sp!, {r4, r5, r6, r7, r8, pc}
10003504:	200009a8 	.word	0x200009a8
10003508:	200009ac 	.word	0x200009ac

1000350c <stdio_put_string>:
1000350c:	e92d 47f0 	stmdb	sp!, {r4, r5, r6, r7, r8, r9, sl, lr}
10003510:	b082      	sub	sp, #8
10003512:	460d      	mov	r5, r1
10003514:	4692      	mov	sl, r2
10003516:	4699      	mov	r9, r3
10003518:	4607      	mov	r7, r0
1000351a:	f7fe f837 	bl	1000158c <time_us_64>
1000351e:	f04f 36ff 	mov.w	r6, #4294967295
10003522:	f06f 4400 	mvn.w	r4, #2147483648	@ 0x80000000
10003526:	4a2f      	ldr	r2, [pc, #188]	@ (100035e4 <stdio_put_string+0xd8>)
10003528:	1882      	adds	r2, r0, r2
1000352a:	f141 0300 	adc.w	r3, r1, #0
1000352e:	4296      	cmp	r6, r2
10003530:	eb74 0103 	sbcs.w	r1, r4, r3
10003534:	bf3c      	itt	cc
10003536:	4632      	movcc	r2, r6
10003538:	4623      	movcc	r3, r4
1000353a:	482b      	ldr	r0, [pc, #172]	@ (100035e8 <stdio_put_string+0xdc>)
1000353c:	f000 fd98 	bl	10004070 <__mutex_try_enter_block_until_veneer>
10003540:	1c6b      	adds	r3, r5, #1
10003542:	4680      	mov	r8, r0
10003544:	d103      	bne.n	1000354e <stdio_put_string+0x42>
10003546:	4638      	mov	r0, r7
10003548:	f000 fd5a 	bl	10004000 <strlen>
1000354c:	4605      	mov	r5, r0
1000354e:	4b27      	ldr	r3, [pc, #156]	@ (100035ec <stdio_put_string+0xe0>)
10003550:	4e27      	ldr	r6, [pc, #156]	@ (100035f0 <stdio_put_string+0xe4>)
10003552:	681c      	ldr	r4, [r3, #0]
10003554:	4b27      	ldr	r3, [pc, #156]	@ (100035f4 <stdio_put_string+0xe8>)
10003556:	f1b9 0f00 	cmp.w	r9, #0
1000355a:	bf18      	it	ne
1000355c:	461e      	movne	r6, r3
1000355e:	b1b4      	cbz	r4, 1000358e <stdio_put_string+0x82>
10003560:	f1ba 0f00 	cmp.w	sl, #0
10003564:	d11a      	bne.n	1000359c <stdio_put_string+0x90>
10003566:	f8df 9090 	ldr.w	r9, [pc, #144]	@ 100035f8 <stdio_put_string+0xec>
1000356a:	e001      	b.n	10003570 <stdio_put_string+0x64>
1000356c:	6924      	ldr	r4, [r4, #16]
1000356e:	b174      	cbz	r4, 1000358e <stdio_put_string+0x82>
10003570:	6823      	ldr	r3, [r4, #0]
10003572:	2b00      	cmp	r3, #0
10003574:	d0fa      	beq.n	1000356c <stdio_put_string+0x60>
10003576:	f8d9 3000 	ldr.w	r3, [r9]
1000357a:	b10b      	cbz	r3, 10003580 <stdio_put_string+0x74>
1000357c:	429c      	cmp	r4, r3
1000357e:	d1f5      	bne.n	1000356c <stdio_put_string+0x60>
10003580:	4620      	mov	r0, r4
10003582:	462a      	mov	r2, r5
10003584:	4639      	mov	r1, r7
10003586:	47b0      	blx	r6
10003588:	6924      	ldr	r4, [r4, #16]
1000358a:	2c00      	cmp	r4, #0
1000358c:	d1f0      	bne.n	10003570 <stdio_put_string+0x64>
1000358e:	f1b8 0f00 	cmp.w	r8, #0
10003592:	d11f      	bne.n	100035d4 <stdio_put_string+0xc8>
10003594:	4628      	mov	r0, r5
10003596:	b002      	add	sp, #8
10003598:	e8bd 87f0 	ldmia.w	sp!, {r4, r5, r6, r7, r8, r9, sl, pc}
1000359c:	f04f 0a0a 	mov.w	sl, #10
100035a0:	f8df 9054 	ldr.w	r9, [pc, #84]	@ 100035f8 <stdio_put_string+0xec>
100035a4:	e002      	b.n	100035ac <stdio_put_string+0xa0>
100035a6:	6924      	ldr	r4, [r4, #16]
100035a8:	2c00      	cmp	r4, #0
100035aa:	d0f0      	beq.n	1000358e <stdio_put_string+0x82>
100035ac:	6823      	ldr	r3, [r4, #0]
100035ae:	2b00      	cmp	r3, #0
100035b0:	d0f9      	beq.n	100035a6 <stdio_put_string+0x9a>
100035b2:	f8d9 3000 	ldr.w	r3, [r9]
100035b6:	b10b      	cbz	r3, 100035bc <stdio_put_string+0xb0>
100035b8:	42a3      	cmp	r3, r4
100035ba:	d1f4      	bne.n	100035a6 <stdio_put_string+0x9a>
100035bc:	462a      	mov	r2, r5
100035be:	4639      	mov	r1, r7
100035c0:	4620      	mov	r0, r4
100035c2:	47b0      	blx	r6
100035c4:	2201      	movs	r2, #1
100035c6:	4620      	mov	r0, r4
100035c8:	f10d 0107 	add.w	r1, sp, #7
100035cc:	f88d a007 	strb.w	sl, [sp, #7]
100035d0:	47b0      	blx	r6
100035d2:	e7e8      	b.n	100035a6 <stdio_put_string+0x9a>
100035d4:	4804      	ldr	r0, [pc, #16]	@ (100035e8 <stdio_put_string+0xdc>)
100035d6:	f000 fd47 	bl	10004068 <__mutex_exit_veneer>
100035da:	4628      	mov	r0, r5
100035dc:	b002      	add	sp, #8
100035de:	e8bd 87f0 	ldmia.w	sp!, {r4, r5, r6, r7, r8, r9, sl, pc}
100035e2:	bf00      	nop
100035e4:	000f4240 	.word	0x000f4240
100035e8:	200005ec 	.word	0x200005ec
100035ec:	200009a8 	.word	0x200009a8
100035f0:	100033f9 	.word	0x100033f9
100035f4:	10003401 	.word	0x10003401
100035f8:	200009ac 	.word	0x200009ac

100035fc <stdio_set_driver_enabled>:
100035fc:	4a0a      	ldr	r2, [pc, #40]	@ (10003628 <stdio_set_driver_enabled+0x2c>)
100035fe:	6813      	ldr	r3, [r2, #0]
10003600:	b14b      	cbz	r3, 10003616 <stdio_set_driver_enabled+0x1a>
10003602:	4283      	cmp	r3, r0
10003604:	d102      	bne.n	1000360c <stdio_set_driver_enabled+0x10>
10003606:	e009      	b.n	1000361c <stdio_set_driver_enabled+0x20>
10003608:	4298      	cmp	r0, r3
1000360a:	d007      	beq.n	1000361c <stdio_set_driver_enabled+0x20>
1000360c:	f103 0210 	add.w	r2, r3, #16
10003610:	691b      	ldr	r3, [r3, #16]
10003612:	2b00      	cmp	r3, #0
10003614:	d1f8      	bne.n	10003608 <stdio_set_driver_enabled+0xc>
10003616:	b101      	cbz	r1, 1000361a <stdio_set_driver_enabled+0x1e>
10003618:	6010      	str	r0, [r2, #0]
1000361a:	4770      	bx	lr
1000361c:	2900      	cmp	r1, #0
1000361e:	d1fc      	bne.n	1000361a <stdio_set_driver_enabled+0x1e>
10003620:	6903      	ldr	r3, [r0, #16]
10003622:	6013      	str	r3, [r2, #0]
10003624:	6101      	str	r1, [r0, #16]
10003626:	4770      	bx	lr
10003628:	200009a8 	.word	0x200009a8

1000362c <stdio_init_all>:
1000362c:	b508      	push	{r3, lr}
1000362e:	f000 f9eb 	bl	10003a08 <stdio_uart_init>
10003632:	2001      	movs	r0, #1
10003634:	bd08      	pop	{r3, pc}
10003636:	bf00      	nop

10003638 <stdio_getchar_timeout_us>:
10003638:	e92d 41f0 	stmdb	sp!, {r4, r5, r6, r7, r8, lr}
1000363c:	b082      	sub	sp, #8
1000363e:	4606      	mov	r6, r0
10003640:	f7fd ffa4 	bl	1000158c <time_us_64>
10003644:	f04f 32ff 	mov.w	r2, #4294967295
10003648:	f06f 4300 	mvn.w	r3, #2147483648	@ 0x80000000
1000364c:	1836      	adds	r6, r6, r0
1000364e:	f141 0700 	adc.w	r7, r1, #0
10003652:	42b2      	cmp	r2, r6
10003654:	eb73 0107 	sbcs.w	r1, r3, r7
10003658:	bf3c      	itt	cc
1000365a:	4616      	movcc	r6, r2
1000365c:	461f      	movcc	r7, r3
1000365e:	f8df 8060 	ldr.w	r8, [pc, #96]	@ 100036c0 <stdio_getchar_timeout_us+0x88>
10003662:	4d15      	ldr	r5, [pc, #84]	@ (100036b8 <stdio_getchar_timeout_us+0x80>)
10003664:	f8d8 4000 	ldr.w	r4, [r8]
10003668:	b914      	cbnz	r4, 10003670 <stdio_getchar_timeout_us+0x38>
1000366a:	e012      	b.n	10003692 <stdio_getchar_timeout_us+0x5a>
1000366c:	6924      	ldr	r4, [r4, #16]
1000366e:	b184      	cbz	r4, 10003692 <stdio_getchar_timeout_us+0x5a>
10003670:	682b      	ldr	r3, [r5, #0]
10003672:	b10b      	cbz	r3, 10003678 <stdio_getchar_timeout_us+0x40>
10003674:	429c      	cmp	r4, r3
10003676:	d1f9      	bne.n	1000366c <stdio_getchar_timeout_us+0x34>
10003678:	68a3      	ldr	r3, [r4, #8]
1000367a:	2b00      	cmp	r3, #0
1000367c:	d0f6      	beq.n	1000366c <stdio_getchar_timeout_us+0x34>
1000367e:	2101      	movs	r1, #1
10003680:	a801      	add	r0, sp, #4
10003682:	4798      	blx	r3
10003684:	2800      	cmp	r0, #0
10003686:	ddf1      	ble.n	1000366c <stdio_getchar_timeout_us+0x34>
10003688:	f89d 0004 	ldrb.w	r0, [sp, #4]
1000368c:	b002      	add	sp, #8
1000368e:	e8bd 81f0 	ldmia.w	sp!, {r4, r5, r6, r7, r8, pc}
10003692:	4b0a      	ldr	r3, [pc, #40]	@ (100036bc <stdio_getchar_timeout_us+0x84>)
10003694:	6a5a      	ldr	r2, [r3, #36]	@ 0x24
10003696:	4297      	cmp	r7, r2
10003698:	d809      	bhi.n	100036ae <stdio_getchar_timeout_us+0x76>
1000369a:	6a9b      	ldr	r3, [r3, #40]	@ 0x28
1000369c:	42b3      	cmp	r3, r6
1000369e:	d304      	bcc.n	100036aa <stdio_getchar_timeout_us+0x72>
100036a0:	f06f 0001 	mvn.w	r0, #1
100036a4:	b002      	add	sp, #8
100036a6:	e8bd 81f0 	ldmia.w	sp!, {r4, r5, r6, r7, r8, pc}
100036aa:	4297      	cmp	r7, r2
100036ac:	d1f8      	bne.n	100036a0 <stdio_getchar_timeout_us+0x68>
100036ae:	2001      	movs	r0, #1
100036b0:	2100      	movs	r1, #0
100036b2:	f7fd ff75 	bl	100015a0 <busy_wait_us>
100036b6:	e7d5      	b.n	10003664 <stdio_getchar_timeout_us+0x2c>
100036b8:	200009ac 	.word	0x200009ac
100036bc:	400b0000 	.word	0x400b0000
100036c0:	200009a8 	.word	0x200009a8

100036c4 <__wrap_putchar>:
100036c4:	b5f0      	push	{r4, r5, r6, r7, lr}
100036c6:	b083      	sub	sp, #12
100036c8:	4606      	mov	r6, r0
100036ca:	f88d 0007 	strb.w	r0, [sp, #7]
100036ce:	f7fd ff5d 	bl	1000158c <time_us_64>
100036d2:	f04f 35ff 	mov.w	r5, #4294967295
100036d6:	f06f 4400 	mvn.w	r4, #2147483648	@ 0x80000000
100036da:	4a17      	ldr	r2, [pc, #92]	@ (10003738 <__wrap_putchar+0x74>)
100036dc:	1882      	adds	r2, r0, r2
100036de:	f141 0300 	adc.w	r3, r1, #0
100036e2:	4295      	cmp	r5, r2
100036e4:	eb74 0103 	sbcs.w	r1, r4, r3
100036e8:	bf3c      	itt	cc
100036ea:	4623      	movcc	r3, r4
100036ec:	462a      	movcc	r2, r5
100036ee:	4813      	ldr	r0, [pc, #76]	@ (1000373c <__wrap_putchar+0x78>)
100036f0:	f000 fcbe 	bl	10004070 <__mutex_try_enter_block_until_veneer>
100036f4:	4b12      	ldr	r3, [pc, #72]	@ (10003740 <__wrap_putchar+0x7c>)
100036f6:	4607      	mov	r7, r0
100036f8:	681c      	ldr	r4, [r3, #0]
100036fa:	b19c      	cbz	r4, 10003724 <__wrap_putchar+0x60>
100036fc:	4d11      	ldr	r5, [pc, #68]	@ (10003744 <__wrap_putchar+0x80>)
100036fe:	e001      	b.n	10003704 <__wrap_putchar+0x40>
10003700:	6924      	ldr	r4, [r4, #16]
10003702:	b17c      	cbz	r4, 10003724 <__wrap_putchar+0x60>
10003704:	6823      	ldr	r3, [r4, #0]
10003706:	2b00      	cmp	r3, #0
10003708:	d0fa      	beq.n	10003700 <__wrap_putchar+0x3c>
1000370a:	682b      	ldr	r3, [r5, #0]
1000370c:	b10b      	cbz	r3, 10003712 <__wrap_putchar+0x4e>
1000370e:	429c      	cmp	r4, r3
10003710:	d1f6      	bne.n	10003700 <__wrap_putchar+0x3c>
10003712:	4620      	mov	r0, r4
10003714:	2201      	movs	r2, #1
10003716:	f10d 0107 	add.w	r1, sp, #7
1000371a:	f7ff fe71 	bl	10003400 <stdio_out_chars_crlf>
1000371e:	6924      	ldr	r4, [r4, #16]
10003720:	2c00      	cmp	r4, #0
10003722:	d1ef      	bne.n	10003704 <__wrap_putchar+0x40>
10003724:	b917      	cbnz	r7, 1000372c <__wrap_putchar+0x68>
10003726:	4630      	mov	r0, r6
10003728:	b003      	add	sp, #12
1000372a:	bdf0      	pop	{r4, r5, r6, r7, pc}
1000372c:	4803      	ldr	r0, [pc, #12]	@ (1000373c <__wrap_putchar+0x78>)
1000372e:	f000 fc9b 	bl	10004068 <__mutex_exit_veneer>
10003732:	4630      	mov	r0, r6
10003734:	b003      	add	sp, #12
10003736:	bdf0      	pop	{r4, r5, r6, r7, pc}
10003738:	000f4240 	.word	0x000f4240
1000373c:	200005ec 	.word	0x200005ec
10003740:	200009a8 	.word	0x200009a8
10003744:	200009ac 	.word	0x200009ac

10003748 <__wrap_puts>:
10003748:	b538      	push	{r3, r4, r5, lr}
1000374a:	4604      	mov	r4, r0
1000374c:	f000 fc58 	bl	10004000 <strlen>
10003750:	2301      	movs	r3, #1
10003752:	4605      	mov	r5, r0
10003754:	461a      	mov	r2, r3
10003756:	4620      	mov	r0, r4
10003758:	4629      	mov	r1, r5
1000375a:	f7ff fed7 	bl	1000350c <stdio_put_string>
1000375e:	4b08      	ldr	r3, [pc, #32]	@ (10003780 <__wrap_puts+0x38>)
10003760:	681c      	ldr	r4, [r3, #0]
10003762:	b12c      	cbz	r4, 10003770 <__wrap_puts+0x28>
10003764:	6863      	ldr	r3, [r4, #4]
10003766:	b12b      	cbz	r3, 10003774 <__wrap_puts+0x2c>
10003768:	4798      	blx	r3
1000376a:	6924      	ldr	r4, [r4, #16]
1000376c:	2c00      	cmp	r4, #0
1000376e:	d1f9      	bne.n	10003764 <__wrap_puts+0x1c>
10003770:	4628      	mov	r0, r5
10003772:	bd38      	pop	{r3, r4, r5, pc}
10003774:	6924      	ldr	r4, [r4, #16]
10003776:	2c00      	cmp	r4, #0
10003778:	d1f4      	bne.n	10003764 <__wrap_puts+0x1c>
1000377a:	4628      	mov	r0, r5
1000377c:	bd38      	pop	{r3, r4, r5, pc}
1000377e:	bf00      	nop
10003780:	200009a8 	.word	0x200009a8

10003784 <__wrap_vprintf>:
10003784:	e92d 41f0 	stmdb	sp!, {r4, r5, r6, r7, r8, lr}
10003788:	b0a2      	sub	sp, #136	@ 0x88
1000378a:	4604      	mov	r4, r0
1000378c:	460d      	mov	r5, r1
1000378e:	f7fd fefd 	bl	1000158c <time_us_64>
10003792:	f04f 37ff 	mov.w	r7, #4294967295
10003796:	f06f 4600 	mvn.w	r6, #2147483648	@ 0x80000000
1000379a:	4a27      	ldr	r2, [pc, #156]	@ (10003838 <__wrap_vprintf+0xb4>)
1000379c:	1882      	adds	r2, r0, r2
1000379e:	f141 0300 	adc.w	r3, r1, #0
100037a2:	4297      	cmp	r7, r2
100037a4:	eb76 0103 	sbcs.w	r1, r6, r3
100037a8:	bf3c      	itt	cc
100037aa:	463a      	movcc	r2, r7
100037ac:	4633      	movcc	r3, r6
100037ae:	4823      	ldr	r0, [pc, #140]	@ (1000383c <__wrap_vprintf+0xb8>)
100037b0:	f000 fc5e 	bl	10004070 <__mutex_try_enter_block_until_veneer>
100037b4:	2600      	movs	r6, #0
100037b6:	462b      	mov	r3, r5
100037b8:	4607      	mov	r7, r0
100037ba:	4622      	mov	r2, r4
100037bc:	4820      	ldr	r0, [pc, #128]	@ (10003840 <__wrap_vprintf+0xbc>)
100037be:	a901      	add	r1, sp, #4
100037c0:	9601      	str	r6, [sp, #4]
100037c2:	f7ff fdd5 	bl	10003370 <vfctprintf>
100037c6:	9b01      	ldr	r3, [sp, #4]
100037c8:	4606      	mov	r6, r0
100037ca:	b97b      	cbnz	r3, 100037ec <__wrap_vprintf+0x68>
100037cc:	4b1d      	ldr	r3, [pc, #116]	@ (10003844 <__wrap_vprintf+0xc0>)
100037ce:	681c      	ldr	r4, [r3, #0]
100037d0:	b12c      	cbz	r4, 100037de <__wrap_vprintf+0x5a>
100037d2:	6863      	ldr	r3, [r4, #4]
100037d4:	b143      	cbz	r3, 100037e8 <__wrap_vprintf+0x64>
100037d6:	4798      	blx	r3
100037d8:	6924      	ldr	r4, [r4, #16]
100037da:	2c00      	cmp	r4, #0
100037dc:	d1f9      	bne.n	100037d2 <__wrap_vprintf+0x4e>
100037de:	bb0f      	cbnz	r7, 10003824 <__wrap_vprintf+0xa0>
100037e0:	4630      	mov	r0, r6
100037e2:	b022      	add	sp, #136	@ 0x88
100037e4:	e8bd 81f0 	ldmia.w	sp!, {r4, r5, r6, r7, r8, pc}
100037e8:	6924      	ldr	r4, [r4, #16]
100037ea:	e7f1      	b.n	100037d0 <__wrap_vprintf+0x4c>
100037ec:	f8df 8054 	ldr.w	r8, [pc, #84]	@ 10003844 <__wrap_vprintf+0xc0>
100037f0:	f8d8 5000 	ldr.w	r5, [r8]
100037f4:	b1ed      	cbz	r5, 10003832 <__wrap_vprintf+0xae>
100037f6:	4c14      	ldr	r4, [pc, #80]	@ (10003848 <__wrap_vprintf+0xc4>)
100037f8:	e001      	b.n	100037fe <__wrap_vprintf+0x7a>
100037fa:	692d      	ldr	r5, [r5, #16]
100037fc:	b175      	cbz	r5, 1000381c <__wrap_vprintf+0x98>
100037fe:	682b      	ldr	r3, [r5, #0]
10003800:	2b00      	cmp	r3, #0
10003802:	d0fa      	beq.n	100037fa <__wrap_vprintf+0x76>
10003804:	6823      	ldr	r3, [r4, #0]
10003806:	b10b      	cbz	r3, 1000380c <__wrap_vprintf+0x88>
10003808:	42ab      	cmp	r3, r5
1000380a:	d1f6      	bne.n	100037fa <__wrap_vprintf+0x76>
1000380c:	4628      	mov	r0, r5
1000380e:	9a01      	ldr	r2, [sp, #4]
10003810:	a902      	add	r1, sp, #8
10003812:	f7ff fdf5 	bl	10003400 <stdio_out_chars_crlf>
10003816:	692d      	ldr	r5, [r5, #16]
10003818:	2d00      	cmp	r5, #0
1000381a:	d1f0      	bne.n	100037fe <__wrap_vprintf+0x7a>
1000381c:	f8d8 4000 	ldr.w	r4, [r8]
10003820:	9501      	str	r5, [sp, #4]
10003822:	e7d5      	b.n	100037d0 <__wrap_vprintf+0x4c>
10003824:	4805      	ldr	r0, [pc, #20]	@ (1000383c <__wrap_vprintf+0xb8>)
10003826:	f000 fc1f 	bl	10004068 <__mutex_exit_veneer>
1000382a:	4630      	mov	r0, r6
1000382c:	b022      	add	sp, #136	@ 0x88
1000382e:	e8bd 81f0 	ldmia.w	sp!, {r4, r5, r6, r7, r8, pc}
10003832:	9501      	str	r5, [sp, #4]
10003834:	e7d3      	b.n	100037de <__wrap_vprintf+0x5a>
10003836:	bf00      	nop
10003838:	000f4240 	.word	0x000f4240
1000383c:	200005ec 	.word	0x200005ec
10003840:	100034ad 	.word	0x100034ad
10003844:	200009a8 	.word	0x200009a8
10003848:	200009ac 	.word	0x200009ac

1000384c <__wrap_printf>:
1000384c:	b40f      	push	{r0, r1, r2, r3}
1000384e:	b500      	push	{lr}
10003850:	b083      	sub	sp, #12
10003852:	a904      	add	r1, sp, #16
10003854:	f851 0b04 	ldr.w	r0, [r1], #4
10003858:	9101      	str	r1, [sp, #4]
1000385a:	f7ff ff93 	bl	10003784 <__wrap_vprintf>
1000385e:	b003      	add	sp, #12
10003860:	f85d eb04 	ldr.w	lr, [sp], #4
10003864:	b004      	add	sp, #16
10003866:	4770      	bx	lr

10003868 <stdio_uart_out_chars>:
10003868:	f1b1 0c00 	subs.w	ip, r1, #0
1000386c:	dd1d      	ble.n	100038aa <stdio_uart_out_chars+0x42>
1000386e:	4a0f      	ldr	r2, [pc, #60]	@ (100038ac <stdio_uart_out_chars+0x44>)
10003870:	4b0f      	ldr	r3, [pc, #60]	@ (100038b0 <stdio_uart_out_chars+0x48>)
10003872:	6812      	ldr	r2, [r2, #0]
10003874:	b530      	push	{r4, r5, lr}
10003876:	1ad3      	subs	r3, r2, r3
10003878:	fab3 f383 	clz	r3, r3
1000387c:	240d      	movs	r4, #13
1000387e:	4d0d      	ldr	r5, [pc, #52]	@ (100038b4 <stdio_uart_out_chars+0x4c>)
10003880:	095b      	lsrs	r3, r3, #5
10003882:	1e41      	subs	r1, r0, #1
10003884:	f935 e013 	ldrsh.w	lr, [r5, r3, lsl #1]
10003888:	448c      	add	ip, r1
1000388a:	f811 0f01 	ldrb.w	r0, [r1, #1]!
1000388e:	4586      	cmp	lr, r0
10003890:	d006      	beq.n	100038a0 <stdio_uart_out_chars+0x38>
10003892:	6993      	ldr	r3, [r2, #24]
10003894:	069b      	lsls	r3, r3, #26
10003896:	d4fc      	bmi.n	10003892 <stdio_uart_out_chars+0x2a>
10003898:	4561      	cmp	r1, ip
1000389a:	6010      	str	r0, [r2, #0]
1000389c:	d1f5      	bne.n	1000388a <stdio_uart_out_chars+0x22>
1000389e:	bd30      	pop	{r4, r5, pc}
100038a0:	6993      	ldr	r3, [r2, #24]
100038a2:	069d      	lsls	r5, r3, #26
100038a4:	d4fc      	bmi.n	100038a0 <stdio_uart_out_chars+0x38>
100038a6:	6014      	str	r4, [r2, #0]
100038a8:	e7f3      	b.n	10003892 <stdio_uart_out_chars+0x2a>
100038aa:	4770      	bx	lr
100038ac:	20000a3c 	.word	0x20000a3c
100038b0:	40078000 	.word	0x40078000
100038b4:	20000a38 	.word	0x20000a38

100038b8 <stdio_uart_in_chars>:
100038b8:	4b22      	ldr	r3, [pc, #136]	@ (10003944 <stdio_uart_in_chars+0x8c>)
100038ba:	f1b1 0c00 	subs.w	ip, r1, #0
100038be:	b410      	push	{r4}
100038c0:	681c      	ldr	r4, [r3, #0]
100038c2:	dd2e      	ble.n	10003922 <stdio_uart_in_chars+0x6a>
100038c4:	4603      	mov	r3, r0
100038c6:	2000      	movs	r0, #0
100038c8:	4a1f      	ldr	r2, [pc, #124]	@ (10003948 <stdio_uart_in_chars+0x90>)
100038ca:	1e59      	subs	r1, r3, #1
100038cc:	6812      	ldr	r2, [r2, #0]
100038ce:	6993      	ldr	r3, [r2, #24]
100038d0:	06db      	lsls	r3, r3, #27
100038d2:	d417      	bmi.n	10003904 <stdio_uart_in_chars+0x4c>
100038d4:	3001      	adds	r0, #1
100038d6:	6993      	ldr	r3, [r2, #24]
100038d8:	06db      	lsls	r3, r3, #27
100038da:	d4fc      	bmi.n	100038d6 <stdio_uart_in_chars+0x1e>
100038dc:	6813      	ldr	r3, [r2, #0]
100038de:	4584      	cmp	ip, r0
100038e0:	f801 3f01 	strb.w	r3, [r1, #1]!
100038e4:	d1f3      	bne.n	100038ce <stdio_uart_in_chars+0x16>
100038e6:	b14c      	cbz	r4, 100038fc <stdio_uart_in_chars+0x44>
100038e8:	2150      	movs	r1, #80	@ 0x50
100038ea:	4613      	mov	r3, r2
100038ec:	6391      	str	r1, [r2, #56]	@ 0x38
100038ee:	f853 2f34 	ldr.w	r2, [r3, #52]!
100038f2:	f002 0238 	and.w	r2, r2, #56	@ 0x38
100038f6:	f503 5380 	add.w	r3, r3, #4096	@ 0x1000
100038fa:	601a      	str	r2, [r3, #0]
100038fc:	4660      	mov	r0, ip
100038fe:	f85d 4b04 	ldr.w	r4, [sp], #4
10003902:	4770      	bx	lr
10003904:	b14c      	cbz	r4, 1000391a <stdio_uart_in_chars+0x62>
10003906:	2150      	movs	r1, #80	@ 0x50
10003908:	4613      	mov	r3, r2
1000390a:	6391      	str	r1, [r2, #56]	@ 0x38
1000390c:	f853 2f34 	ldr.w	r2, [r3, #52]!
10003910:	f002 0238 	and.w	r2, r2, #56	@ 0x38
10003914:	f503 5380 	add.w	r3, r3, #4096	@ 0x1000
10003918:	601a      	str	r2, [r3, #0]
1000391a:	b178      	cbz	r0, 1000393c <stdio_uart_in_chars+0x84>
1000391c:	f85d 4b04 	ldr.w	r4, [sp], #4
10003920:	4770      	bx	lr
10003922:	b15c      	cbz	r4, 1000393c <stdio_uart_in_chars+0x84>
10003924:	4b08      	ldr	r3, [pc, #32]	@ (10003948 <stdio_uart_in_chars+0x90>)
10003926:	2150      	movs	r1, #80	@ 0x50
10003928:	681a      	ldr	r2, [r3, #0]
1000392a:	4613      	mov	r3, r2
1000392c:	6391      	str	r1, [r2, #56]	@ 0x38
1000392e:	f853 2f34 	ldr.w	r2, [r3, #52]!
10003932:	f002 0238 	and.w	r2, r2, #56	@ 0x38
10003936:	f503 5380 	add.w	r3, r3, #4096	@ 0x1000
1000393a:	601a      	str	r2, [r3, #0]
1000393c:	f06f 0002 	mvn.w	r0, #2
10003940:	e7ec      	b.n	1000391c <stdio_uart_in_chars+0x64>
10003942:	bf00      	nop
10003944:	20000938 	.word	0x20000938
10003948:	20000a3c 	.word	0x20000a3c

1000394c <on_uart_rx>:
1000394c:	4b05      	ldr	r3, [pc, #20]	@ (10003964 <on_uart_rx+0x18>)
1000394e:	681b      	ldr	r3, [r3, #0]
10003950:	b133      	cbz	r3, 10003960 <on_uart_rx+0x14>
10003952:	2100      	movs	r1, #0
10003954:	4a04      	ldr	r2, [pc, #16]	@ (10003968 <on_uart_rx+0x1c>)
10003956:	4805      	ldr	r0, [pc, #20]	@ (1000396c <on_uart_rx+0x20>)
10003958:	6812      	ldr	r2, [r2, #0]
1000395a:	6800      	ldr	r0, [r0, #0]
1000395c:	6391      	str	r1, [r2, #56]	@ 0x38
1000395e:	4718      	bx	r3
10003960:	4770      	bx	lr
10003962:	bf00      	nop
10003964:	20000938 	.word	0x20000938
10003968:	20000a3c 	.word	0x20000a3c
1000396c:	2000093c 	.word	0x2000093c

10003970 <stdio_uart_out_flush>:
10003970:	4b02      	ldr	r3, [pc, #8]	@ (1000397c <stdio_uart_out_flush+0xc>)
10003972:	681a      	ldr	r2, [r3, #0]
10003974:	6993      	ldr	r3, [r2, #24]
10003976:	071b      	lsls	r3, r3, #28
10003978:	d4fc      	bmi.n	10003974 <stdio_uart_out_flush+0x4>
1000397a:	4770      	bx	lr
1000397c:	20000a3c 	.word	0x20000a3c

10003980 <stdio_uart_set_chars_available_callback>:
10003980:	b5f8      	push	{r3, r4, r5, r6, r7, lr}
10003982:	4f1c      	ldr	r7, [pc, #112]	@ (100039f4 <stdio_uart_set_chars_available_callback+0x74>)
10003984:	4d1c      	ldr	r5, [pc, #112]	@ (100039f8 <stdio_uart_set_chars_available_callback+0x78>)
10003986:	683a      	ldr	r2, [r7, #0]
10003988:	4e1c      	ldr	r6, [pc, #112]	@ (100039fc <stdio_uart_set_chars_available_callback+0x7c>)
1000398a:	42aa      	cmp	r2, r5
1000398c:	bf14      	ite	ne
1000398e:	2521      	movne	r5, #33	@ 0x21
10003990:	2522      	moveq	r5, #34	@ 0x22
10003992:	4604      	mov	r4, r0
10003994:	f8d6 c000 	ldr.w	ip, [r6]
10003998:	b118      	cbz	r0, 100039a2 <stdio_uart_set_chars_available_callback+0x22>
1000399a:	f1bc 0f00 	cmp.w	ip, #0
1000399e:	d010      	beq.n	100039c2 <stdio_uart_set_chars_available_callback+0x42>
100039a0:	bdf8      	pop	{r3, r4, r5, r6, r7, pc}
100039a2:	f1bc 0f00 	cmp.w	ip, #0
100039a6:	d0fb      	beq.n	100039a0 <stdio_uart_set_chars_available_callback+0x20>
100039a8:	4601      	mov	r1, r0
100039aa:	6390      	str	r0, [r2, #56]	@ 0x38
100039ac:	4628      	mov	r0, r5
100039ae:	f7fd f86b 	bl	10000a88 <irq_set_enabled>
100039b2:	4628      	mov	r0, r5
100039b4:	4912      	ldr	r1, [pc, #72]	@ (10003a00 <stdio_uart_set_chars_available_callback+0x80>)
100039b6:	f7fd f8ad 	bl	10000b14 <irq_remove_handler>
100039ba:	4b12      	ldr	r3, [pc, #72]	@ (10003a04 <stdio_uart_set_chars_available_callback+0x84>)
100039bc:	6034      	str	r4, [r6, #0]
100039be:	601c      	str	r4, [r3, #0]
100039c0:	bdf8      	pop	{r3, r4, r5, r6, r7, pc}
100039c2:	460b      	mov	r3, r1
100039c4:	4a0f      	ldr	r2, [pc, #60]	@ (10003a04 <stdio_uart_set_chars_available_callback+0x84>)
100039c6:	490e      	ldr	r1, [pc, #56]	@ (10003a00 <stdio_uart_set_chars_available_callback+0x80>)
100039c8:	6030      	str	r0, [r6, #0]
100039ca:	4628      	mov	r0, r5
100039cc:	6013      	str	r3, [r2, #0]
100039ce:	f7fd f871 	bl	10000ab4 <irq_set_exclusive_handler>
100039d2:	2101      	movs	r1, #1
100039d4:	4628      	mov	r0, r5
100039d6:	f7fd f857 	bl	10000a88 <irq_set_enabled>
100039da:	683a      	ldr	r2, [r7, #0]
100039dc:	2150      	movs	r1, #80	@ 0x50
100039de:	4613      	mov	r3, r2
100039e0:	6391      	str	r1, [r2, #56]	@ 0x38
100039e2:	f853 2f34 	ldr.w	r2, [r3, #52]!
100039e6:	f002 0238 	and.w	r2, r2, #56	@ 0x38
100039ea:	f503 5380 	add.w	r3, r3, #4096	@ 0x1000
100039ee:	601a      	str	r2, [r3, #0]
100039f0:	bdf8      	pop	{r3, r4, r5, r6, r7, pc}
100039f2:	bf00      	nop
100039f4:	20000a3c 	.word	0x20000a3c
100039f8:	40078000 	.word	0x40078000
100039fc:	20000938 	.word	0x20000938
10003a00:	1000394d 	.word	0x1000394d
10003a04:	2000093c 	.word	0x2000093c

10003a08 <stdio_uart_init>:
10003a08:	b510      	push	{r4, lr}
10003a0a:	490e      	ldr	r1, [pc, #56]	@ (10003a44 <stdio_uart_init+0x3c>)
10003a0c:	4c0e      	ldr	r4, [pc, #56]	@ (10003a48 <stdio_uart_init+0x40>)
10003a0e:	480f      	ldr	r0, [pc, #60]	@ (10003a4c <stdio_uart_init+0x44>)
10003a10:	4a0f      	ldr	r2, [pc, #60]	@ (10003a50 <stdio_uart_init+0x48>)
10003a12:	4b10      	ldr	r3, [pc, #64]	@ (10003a54 <stdio_uart_init+0x4c>)
10003a14:	7800      	ldrb	r0, [r0, #0]
10003a16:	6021      	str	r1, [r4, #0]
10003a18:	2000      	movs	r0, #0
10003a1a:	2102      	movs	r1, #2
10003a1c:	7812      	ldrb	r2, [r2, #0]
10003a1e:	781b      	ldrb	r3, [r3, #0]
10003a20:	f7fc ff58 	bl	100008d4 <gpio_set_function>
10003a24:	2102      	movs	r1, #2
10003a26:	2001      	movs	r0, #1
10003a28:	f7fc ff54 	bl	100008d4 <gpio_set_function>
10003a2c:	f44f 31e1 	mov.w	r1, #115200	@ 0x1c200
10003a30:	6820      	ldr	r0, [r4, #0]
10003a32:	f7fd fdf9 	bl	10001628 <uart_init>
10003a36:	e8bd 4010 	ldmia.w	sp!, {r4, lr}
10003a3a:	2101      	movs	r1, #1
10003a3c:	4806      	ldr	r0, [pc, #24]	@ (10003a58 <stdio_uart_init+0x50>)
10003a3e:	f7ff bddd 	b.w	100035fc <stdio_set_driver_enabled>
10003a42:	bf00      	nop
10003a44:	40070000 	.word	0x40070000
10003a48:	20000a3c 	.word	0x20000a3c
10003a4c:	100043c0 	.word	0x100043c0
10003a50:	100043bc 	.word	0x100043bc
10003a54:	100043b8 	.word	0x100043b8
10003a58:	200005cc 	.word	0x200005cc

10003a5c <i2c_read_blocking_internal>:
10003a5c:	e92d 4ff8 	stmdb	sp!, {r3, r4, r5, r6, r7, r8, r9, sl, fp, lr}
10003a60:	f04f 0c01 	mov.w	ip, #1
10003a64:	e9dd 460b 	ldrd	r4, r6, [sp, #44]	@ 0x2c
10003a68:	2700      	movs	r7, #0
10003a6a:	4691      	mov	r9, r2
10003a6c:	6802      	ldr	r2, [r0, #0]
10003a6e:	f1b3 0800 	subs.w	r8, r3, #0
10003a72:	66d7      	str	r7, [r2, #108]	@ 0x6c
10003a74:	4605      	mov	r5, r0
10003a76:	6051      	str	r1, [r2, #4]
10003a78:	f89d b028 	ldrb.w	fp, [sp, #40]	@ 0x28
10003a7c:	f8c2 c06c 	str.w	ip, [r2, #108]	@ 0x6c
10003a80:	dd21      	ble.n	10003ac6 <i2c_read_blocking_internal+0x6a>
10003a82:	f108 3aff 	add.w	sl, r8, #4294967295
10003a86:	b114      	cbz	r4, 10003a8e <i2c_read_blocking_internal+0x32>
10003a88:	2101      	movs	r1, #1
10003a8a:	4630      	mov	r0, r6
10003a8c:	47a0      	blx	r4
10003a8e:	682b      	ldr	r3, [r5, #0]
10003a90:	6f5a      	ldr	r2, [r3, #116]	@ 0x74
10003a92:	2a10      	cmp	r2, #16
10003a94:	d0fc      	beq.n	10003a90 <i2c_read_blocking_internal+0x34>
10003a96:	2f00      	cmp	r7, #0
10003a98:	d033      	beq.n	10003b02 <i2c_read_blocking_internal+0xa6>
10003a9a:	2200      	movs	r2, #0
10003a9c:	45ba      	cmp	sl, r7
10003a9e:	bf04      	itt	eq
10003aa0:	f08b 0101 	eoreq.w	r1, fp, #1
10003aa4:	ea42 2241 	orreq.w	r2, r2, r1, lsl #9
10003aa8:	f442 7280 	orr.w	r2, r2, #256	@ 0x100
10003aac:	611a      	str	r2, [r3, #16]
10003aae:	b18c      	cbz	r4, 10003ad4 <i2c_read_blocking_internal+0x78>
10003ab0:	f8d3 2080 	ldr.w	r2, [r3, #128]	@ 0x80
10003ab4:	6b59      	ldr	r1, [r3, #52]	@ 0x34
10003ab6:	f011 0140 	ands.w	r1, r1, #64	@ 0x40
10003aba:	d013      	beq.n	10003ae4 <i2c_read_blocking_internal+0x88>
10003abc:	2100      	movs	r1, #0
10003abe:	4630      	mov	r0, r6
10003ac0:	6d5b      	ldr	r3, [r3, #84]	@ 0x54
10003ac2:	47a0      	blx	r4
10003ac4:	43c7      	mvns	r7, r0
10003ac6:	4638      	mov	r0, r7
10003ac8:	f885 b004 	strb.w	fp, [r5, #4]
10003acc:	e8bd 8ff8 	ldmia.w	sp!, {r3, r4, r5, r6, r7, r8, r9, sl, fp, pc}
10003ad0:	6f9a      	ldr	r2, [r3, #120]	@ 0x78
10003ad2:	b97a      	cbnz	r2, 10003af4 <i2c_read_blocking_internal+0x98>
10003ad4:	f8d3 2080 	ldr.w	r2, [r3, #128]	@ 0x80
10003ad8:	6b5a      	ldr	r2, [r3, #52]	@ 0x34
10003ada:	0652      	lsls	r2, r2, #25
10003adc:	d5f8      	bpl.n	10003ad0 <i2c_read_blocking_internal+0x74>
10003ade:	2000      	movs	r0, #0
10003ae0:	6d5b      	ldr	r3, [r3, #84]	@ 0x54
10003ae2:	e7ef      	b.n	10003ac4 <i2c_read_blocking_internal+0x68>
10003ae4:	4630      	mov	r0, r6
10003ae6:	47a0      	blx	r4
10003ae8:	2800      	cmp	r0, #0
10003aea:	d1eb      	bne.n	10003ac4 <i2c_read_blocking_internal+0x68>
10003aec:	682b      	ldr	r3, [r5, #0]
10003aee:	6f9a      	ldr	r2, [r3, #120]	@ 0x78
10003af0:	2a00      	cmp	r2, #0
10003af2:	d0dd      	beq.n	10003ab0 <i2c_read_blocking_internal+0x54>
10003af4:	691b      	ldr	r3, [r3, #16]
10003af6:	3701      	adds	r7, #1
10003af8:	45b8      	cmp	r8, r7
10003afa:	f809 3b01 	strb.w	r3, [r9], #1
10003afe:	d1c2      	bne.n	10003a86 <i2c_read_blocking_internal+0x2a>
10003b00:	e7e1      	b.n	10003ac6 <i2c_read_blocking_internal+0x6a>
10003b02:	792a      	ldrb	r2, [r5, #4]
10003b04:	0292      	lsls	r2, r2, #10
10003b06:	e7c9      	b.n	10003a9c <i2c_read_blocking_internal+0x40>

10003b08 <i2c_set_baudrate>:
10003b08:	b5f8      	push	{r3, r4, r5, r6, r7, lr}
10003b0a:	4606      	mov	r6, r0
10003b0c:	2005      	movs	r0, #5
10003b0e:	460c      	mov	r4, r1
10003b10:	f7fd fe74 	bl	100017fc <clock_get_hz>
10003b14:	eb00 0c54 	add.w	ip, r0, r4, lsr #1
10003b18:	fbbc fcf4 	udiv	ip, ip, r4
10003b1c:	4b21      	ldr	r3, [pc, #132]	@ (10003ba4 <i2c_set_baudrate+0x9c>)
10003b1e:	eb0c 024c 	add.w	r2, ip, ip, lsl #1
10003b22:	fba3 5302 	umull	r5, r3, r3, r2
10003b26:	4920      	ldr	r1, [pc, #128]	@ (10003ba8 <i2c_set_baudrate+0xa0>)
10003b28:	089f      	lsrs	r7, r3, #2
10003b2a:	428c      	cmp	r4, r1
10003b2c:	ebac 0593 	sub.w	r5, ip, r3, lsr #2
10003b30:	d830      	bhi.n	10003b94 <i2c_set_baudrate+0x8c>
10003b32:	f101 41d6 	add.w	r1, r1, #1795162112	@ 0x6b000000
10003b36:	f501 01a1 	add.w	r1, r1, #5275648	@ 0x508000
10003b3a:	f601 012c 	addw	r1, r1, #2092	@ 0x82c
10003b3e:	eb00 0340 	add.w	r3, r0, r0, lsl #1
10003b42:	fba1 1303 	umull	r1, r3, r1, r3
10003b46:	0d9b      	lsrs	r3, r3, #22
10003b48:	3301      	adds	r3, #1
10003b4a:	2400      	movs	r4, #0
10003b4c:	2a4f      	cmp	r2, #79	@ 0x4f
10003b4e:	bf98      	it	ls
10003b50:	2201      	movls	r2, #1
10003b52:	6831      	ldr	r1, [r6, #0]
10003b54:	fbb0 f0fc 	udiv	r0, r0, ip
10003b58:	66cc      	str	r4, [r1, #108]	@ 0x6c
10003b5a:	680c      	ldr	r4, [r1, #0]
10003b5c:	f501 5680 	add.w	r6, r1, #4096	@ 0x1000
10003b60:	f084 0404 	eor.w	r4, r4, #4
10003b64:	f004 0406 	and.w	r4, r4, #6
10003b68:	6034      	str	r4, [r6, #0]
10003b6a:	bf88      	it	hi
10003b6c:	4c0d      	ldrhi	r4, [pc, #52]	@ (10003ba4 <i2c_set_baudrate+0x9c>)
10003b6e:	61cd      	str	r5, [r1, #28]
10003b70:	bf84      	itt	hi
10003b72:	fba4 4202 	umullhi	r4, r2, r4, r2
10003b76:	0992      	lsrhi	r2, r2, #6
10003b78:	620f      	str	r7, [r1, #32]
10003b7a:	f8c1 20a0 	str.w	r2, [r1, #160]	@ 0xa0
10003b7e:	460a      	mov	r2, r1
10003b80:	2401      	movs	r4, #1
10003b82:	f852 5f7c 	ldr.w	r5, [r2, #124]!
10003b86:	406b      	eors	r3, r5
10003b88:	b29b      	uxth	r3, r3
10003b8a:	f502 5280 	add.w	r2, r2, #4096	@ 0x1000
10003b8e:	6013      	str	r3, [r2, #0]
10003b90:	66cc      	str	r4, [r1, #108]	@ 0x6c
10003b92:	bdf8      	pop	{r3, r4, r5, r6, r7, pc}
10003b94:	4905      	ldr	r1, [pc, #20]	@ (10003bac <i2c_set_baudrate+0xa4>)
10003b96:	eb00 0340 	add.w	r3, r0, r0, lsl #1
10003b9a:	fba1 1303 	umull	r1, r3, r1, r3
10003b9e:	0ddb      	lsrs	r3, r3, #23
10003ba0:	3301      	adds	r3, #1
10003ba2:	e7d2      	b.n	10003b4a <i2c_set_baudrate+0x42>
10003ba4:	cccccccd 	.word	0xcccccccd
10003ba8:	000f423f 	.word	0x000f423f
10003bac:	55e63b89 	.word	0x55e63b89

10003bb0 <i2c_init>:
10003bb0:	4a0e      	ldr	r2, [pc, #56]	@ (10003bec <i2c_init+0x3c>)
10003bb2:	b430      	push	{r4, r5}
10003bb4:	4290      	cmp	r0, r2
10003bb6:	bf14      	ite	ne
10003bb8:	2220      	movne	r2, #32
10003bba:	2210      	moveq	r2, #16
10003bbc:	4d0c      	ldr	r5, [pc, #48]	@ (10003bf0 <i2c_init+0x40>)
10003bbe:	4b0d      	ldr	r3, [pc, #52]	@ (10003bf4 <i2c_init+0x44>)
10003bc0:	4c0d      	ldr	r4, [pc, #52]	@ (10003bf8 <i2c_init+0x48>)
10003bc2:	602a      	str	r2, [r5, #0]
10003bc4:	601a      	str	r2, [r3, #0]
10003bc6:	68a3      	ldr	r3, [r4, #8]
10003bc8:	ea32 0303 	bics.w	r3, r2, r3
10003bcc:	d1fb      	bne.n	10003bc6 <i2c_init+0x16>
10003bce:	f240 1565 	movw	r5, #357	@ 0x165
10003bd2:	2403      	movs	r4, #3
10003bd4:	6802      	ldr	r2, [r0, #0]
10003bd6:	7103      	strb	r3, [r0, #4]
10003bd8:	66d3      	str	r3, [r2, #108]	@ 0x6c
10003bda:	6015      	str	r5, [r2, #0]
10003bdc:	63d3      	str	r3, [r2, #60]	@ 0x3c
10003bde:	6393      	str	r3, [r2, #56]	@ 0x38
10003be0:	f8c2 4088 	str.w	r4, [r2, #136]	@ 0x88
10003be4:	bc30      	pop	{r4, r5}
10003be6:	f7ff bf8f 	b.w	10003b08 <i2c_set_baudrate>
10003bea:	bf00      	nop
10003bec:	200005e4 	.word	0x200005e4
10003bf0:	40022000 	.word	0x40022000
10003bf4:	40023000 	.word	0x40023000
10003bf8:	40020000 	.word	0x40020000

10003bfc <i2c_read_blocking_until>:
10003bfc:	e92d 43f0 	stmdb	sp!, {r4, r5, r6, r7, r8, r9, lr}
10003c00:	b089      	sub	sp, #36	@ 0x24
10003c02:	f10d 0810 	add.w	r8, sp, #16
10003c06:	4604      	mov	r4, r0
10003c08:	4616      	mov	r6, r2
10003c0a:	461f      	mov	r7, r3
10003c0c:	e9dd 2312 	ldrd	r2, r3, [sp, #72]	@ 0x48
10003c10:	4640      	mov	r0, r8
10003c12:	460d      	mov	r5, r1
10003c14:	f89d 9040 	ldrb.w	r9, [sp, #64]	@ 0x40
10003c18:	f7fd fc96 	bl	10001548 <init_single_timeout_until>
10003c1c:	463b      	mov	r3, r7
10003c1e:	e9cd 0801 	strd	r0, r8, [sp, #4]
10003c22:	4632      	mov	r2, r6
10003c24:	4629      	mov	r1, r5
10003c26:	4620      	mov	r0, r4
10003c28:	f8cd 9000 	str.w	r9, [sp]
10003c2c:	f7ff ff16 	bl	10003a5c <i2c_read_blocking_internal>
10003c30:	b009      	add	sp, #36	@ 0x24
10003c32:	e8bd 83f0 	ldmia.w	sp!, {r4, r5, r6, r7, r8, r9, pc}
10003c36:	bf00      	nop

10003c38 <tud_mounted>:
10003c38:	4b02      	ldr	r3, [pc, #8]	@ (10003c44 <tud_mounted+0xc>)
10003c3a:	7858      	ldrb	r0, [r3, #1]
10003c3c:	3800      	subs	r0, #0
10003c3e:	bf18      	it	ne
10003c40:	2001      	movne	r0, #1
10003c42:	4770      	bx	lr
10003c44:	200008e0 	.word	0x200008e0

10003c48 <tud_suspended>:
10003c48:	4b02      	ldr	r3, [pc, #8]	@ (10003c54 <tud_suspended+0xc>)
10003c4a:	7818      	ldrb	r0, [r3, #0]
10003c4c:	f3c0 0080 	ubfx	r0, r0, #2, #1
10003c50:	4770      	bx	lr
10003c52:	bf00      	nop
10003c54:	200008e0 	.word	0x200008e0

10003c58 <tud_cdc_n_connected>:
10003c58:	b510      	push	{r4, lr}
10003c5a:	4604      	mov	r4, r0
10003c5c:	f7ff ffec 	bl	10003c38 <tud_mounted>
10003c60:	b908      	cbnz	r0, 10003c66 <tud_cdc_n_connected+0xe>
10003c62:	2000      	movs	r0, #0
10003c64:	bd10      	pop	{r4, pc}
10003c66:	f7ff ffef 	bl	10003c48 <tud_suspended>
10003c6a:	2800      	cmp	r0, #0
10003c6c:	d1f9      	bne.n	10003c62 <tud_cdc_n_connected+0xa>
10003c6e:	f44f 72a4 	mov.w	r2, #328	@ 0x148
10003c72:	4b03      	ldr	r3, [pc, #12]	@ (10003c80 <tud_cdc_n_connected+0x28>)
10003c74:	fb02 3304 	mla	r3, r2, r4, r3
10003c78:	7918      	ldrb	r0, [r3, #4]
10003c7a:	f000 0001 	and.w	r0, r0, #1
10003c7e:	bd10      	pop	{r4, pc}
10003c80:	200005f8 	.word	0x200005f8

10003c84 <_retrieve_unique_id_on_boot>:
10003c84:	b500      	push	{lr}
10003c86:	f245 3047 	movw	r0, #21319	@ 0x5347
10003c8a:	b08b      	sub	sp, #44	@ 0x2c
10003c8c:	f7fd fe0e 	bl	100018ac <rom_func_lookup>
10003c90:	2201      	movs	r2, #1
10003c92:	4603      	mov	r3, r0
10003c94:	2109      	movs	r1, #9
10003c96:	a801      	add	r0, sp, #4
10003c98:	4798      	blx	r3
10003c9a:	e9dd 3203 	ldrd	r3, r2, [sp, #12]
10003c9e:	4904      	ldr	r1, [pc, #16]	@ (10003cb0 <_retrieve_unique_id_on_boot+0x2c>)
10003ca0:	ba12      	rev	r2, r2
10003ca2:	ba1b      	rev	r3, r3
10003ca4:	e9c1 2300 	strd	r2, r3, [r1]
10003ca8:	b00b      	add	sp, #44	@ 0x2c
10003caa:	f85d fb04 	ldr.w	pc, [sp], #4
10003cae:	bf00      	nop
10003cb0:	20000a2c 	.word	0x20000a2c

10003cb4 <memset>:
10003cb4:	b570      	push	{r4, r5, r6, lr}
10003cb6:	0786      	lsls	r6, r0, #30
10003cb8:	d047      	beq.n	10003d4a <memset+0x96>
10003cba:	1e54      	subs	r4, r2, #1
10003cbc:	2a00      	cmp	r2, #0
10003cbe:	d03e      	beq.n	10003d3e <memset+0x8a>
10003cc0:	b2ca      	uxtb	r2, r1
10003cc2:	4603      	mov	r3, r0
10003cc4:	e001      	b.n	10003cca <memset+0x16>
10003cc6:	3c01      	subs	r4, #1
10003cc8:	d339      	bcc.n	10003d3e <memset+0x8a>
10003cca:	f803 2b01 	strb.w	r2, [r3], #1
10003cce:	079d      	lsls	r5, r3, #30
10003cd0:	d1f9      	bne.n	10003cc6 <memset+0x12>
10003cd2:	2c03      	cmp	r4, #3
10003cd4:	d92c      	bls.n	10003d30 <memset+0x7c>
10003cd6:	b2cd      	uxtb	r5, r1
10003cd8:	2c0f      	cmp	r4, #15
10003cda:	eb05 2505 	add.w	r5, r5, r5, lsl #8
10003cde:	eb05 4505 	add.w	r5, r5, r5, lsl #16
10003ce2:	d935      	bls.n	10003d50 <memset+0x9c>
10003ce4:	f1a4 0c10 	sub.w	ip, r4, #16
10003ce8:	f103 0e10 	add.w	lr, r3, #16
10003cec:	461a      	mov	r2, r3
10003cee:	f02c 060f 	bic.w	r6, ip, #15
10003cf2:	ea4f 1c1c 	mov.w	ip, ip, lsr #4
10003cf6:	44b6      	add	lr, r6
10003cf8:	e9c2 5500 	strd	r5, r5, [r2]
10003cfc:	e9c2 5502 	strd	r5, r5, [r2, #8]
10003d00:	3210      	adds	r2, #16
10003d02:	4572      	cmp	r2, lr
10003d04:	d1f8      	bne.n	10003cf8 <memset+0x44>
10003d06:	f10c 0201 	add.w	r2, ip, #1
10003d0a:	f014 0f0c 	tst.w	r4, #12
10003d0e:	f004 0c0f 	and.w	ip, r4, #15
10003d12:	eb03 1202 	add.w	r2, r3, r2, lsl #4
10003d16:	d013      	beq.n	10003d40 <memset+0x8c>
10003d18:	f1ac 0304 	sub.w	r3, ip, #4
10003d1c:	f023 0303 	bic.w	r3, r3, #3
10003d20:	3304      	adds	r3, #4
10003d22:	4413      	add	r3, r2
10003d24:	f842 5b04 	str.w	r5, [r2], #4
10003d28:	4293      	cmp	r3, r2
10003d2a:	d1fb      	bne.n	10003d24 <memset+0x70>
10003d2c:	f00c 0403 	and.w	r4, ip, #3
10003d30:	b12c      	cbz	r4, 10003d3e <memset+0x8a>
10003d32:	b2c9      	uxtb	r1, r1
10003d34:	441c      	add	r4, r3
10003d36:	f803 1b01 	strb.w	r1, [r3], #1
10003d3a:	42a3      	cmp	r3, r4
10003d3c:	d1fb      	bne.n	10003d36 <memset+0x82>
10003d3e:	bd70      	pop	{r4, r5, r6, pc}
10003d40:	4664      	mov	r4, ip
10003d42:	4613      	mov	r3, r2
10003d44:	2c00      	cmp	r4, #0
10003d46:	d1f4      	bne.n	10003d32 <memset+0x7e>
10003d48:	e7f9      	b.n	10003d3e <memset+0x8a>
10003d4a:	4603      	mov	r3, r0
10003d4c:	4614      	mov	r4, r2
10003d4e:	e7c0      	b.n	10003cd2 <memset+0x1e>
10003d50:	461a      	mov	r2, r3
10003d52:	46a4      	mov	ip, r4
10003d54:	e7e0      	b.n	10003d18 <memset+0x64>
10003d56:	bf00      	nop

10003d58 <strcmp>:
10003d58:	ea80 0c01 	eor.w	ip, r0, r1
10003d5c:	f01c 0f03 	tst.w	ip, #3
10003d60:	d137      	bne.n	10003dd2 <strcmp+0x7a>
10003d62:	f010 0c03 	ands.w	ip, r0, #3
10003d66:	f020 0003 	bic.w	r0, r0, #3
10003d6a:	f021 0103 	bic.w	r1, r1, #3
10003d6e:	f850 2b04 	ldr.w	r2, [r0], #4
10003d72:	bf08      	it	eq
10003d74:	f851 3b04 	ldreq.w	r3, [r1], #4
10003d78:	d00e      	beq.n	10003d98 <strcmp+0x40>
10003d7a:	f08c 0c03 	eor.w	ip, ip, #3
10003d7e:	f06f 437f 	mvn.w	r3, #4278190080	@ 0xff000000
10003d82:	ea4f 0ccc 	mov.w	ip, ip, lsl #3
10003d86:	fa23 fc0c 	lsr.w	ip, r3, ip
10003d8a:	f851 3b04 	ldr.w	r3, [r1], #4
10003d8e:	ea42 020c 	orr.w	r2, r2, ip
10003d92:	ea43 030c 	orr.w	r3, r3, ip
10003d96:	bf00      	nop
10003d98:	f1a2 3c01 	sub.w	ip, r2, #16843009	@ 0x1010101
10003d9c:	429a      	cmp	r2, r3
10003d9e:	bf01      	itttt	eq
10003da0:	ea2c 0c02 	biceq.w	ip, ip, r2
10003da4:	f01c 3f80 	tsteq.w	ip, #2155905152	@ 0x80808080
10003da8:	f850 2b04 	ldreq.w	r2, [r0], #4
10003dac:	f851 3b04 	ldreq.w	r3, [r1], #4
10003db0:	d0f2      	beq.n	10003d98 <strcmp+0x40>
10003db2:	ea4f 6002 	mov.w	r0, r2, lsl #24
10003db6:	ea4f 2212 	mov.w	r2, r2, lsr #8
10003dba:	2801      	cmp	r0, #1
10003dbc:	bf28      	it	cs
10003dbe:	ebb0 6f03 	cmpcs.w	r0, r3, lsl #24
10003dc2:	bf08      	it	eq
10003dc4:	0a1b      	lsreq	r3, r3, #8
10003dc6:	d0f4      	beq.n	10003db2 <strcmp+0x5a>
10003dc8:	f003 03ff 	and.w	r3, r3, #255	@ 0xff
10003dcc:	0e00      	lsrs	r0, r0, #24
10003dce:	1ac0      	subs	r0, r0, r3
10003dd0:	4770      	bx	lr
10003dd2:	f010 0f03 	tst.w	r0, #3
10003dd6:	d00a      	beq.n	10003dee <strcmp+0x96>
10003dd8:	f810 2b01 	ldrb.w	r2, [r0], #1
10003ddc:	f811 3b01 	ldrb.w	r3, [r1], #1
10003de0:	2a01      	cmp	r2, #1
10003de2:	bf28      	it	cs
10003de4:	429a      	cmpcs	r2, r3
10003de6:	d0f4      	beq.n	10003dd2 <strcmp+0x7a>
10003de8:	eba2 0003 	sub.w	r0, r2, r3
10003dec:	4770      	bx	lr
10003dee:	f84d 5d04 	str.w	r5, [sp, #-4]!
10003df2:	f850 2b04 	ldr.w	r2, [r0], #4
10003df6:	f001 0503 	and.w	r5, r1, #3
10003dfa:	f021 0103 	bic.w	r1, r1, #3
10003dfe:	f851 3b04 	ldr.w	r3, [r1], #4
10003e02:	2d02      	cmp	r5, #2
10003e04:	d026      	beq.n	10003e54 <strcmp+0xfc>
10003e06:	d84d      	bhi.n	10003ea4 <strcmp+0x14c>
10003e08:	f022 457f 	bic.w	r5, r2, #4278190080	@ 0xff000000
10003e0c:	ebb5 2f13 	cmp.w	r5, r3, lsr #8
10003e10:	f1a2 3c01 	sub.w	ip, r2, #16843009	@ 0x1010101
10003e14:	ea2c 0c02 	bic.w	ip, ip, r2
10003e18:	d10d      	bne.n	10003e36 <strcmp+0xde>
10003e1a:	f01c 3c80 	ands.w	ip, ip, #2155905152	@ 0x80808080
10003e1e:	bf08      	it	eq
10003e20:	f851 3b04 	ldreq.w	r3, [r1], #4
10003e24:	d10a      	bne.n	10003e3c <strcmp+0xe4>
10003e26:	ea85 0502 	eor.w	r5, r5, r2
10003e2a:	ebb5 6f03 	cmp.w	r5, r3, lsl #24
10003e2e:	d10c      	bne.n	10003e4a <strcmp+0xf2>
10003e30:	f850 2b04 	ldr.w	r2, [r0], #4
10003e34:	e7e8      	b.n	10003e08 <strcmp+0xb0>
10003e36:	ea4f 2313 	mov.w	r3, r3, lsr #8
10003e3a:	e05b      	b.n	10003ef4 <strcmp+0x19c>
10003e3c:	f03c 4c7f 	bics.w	ip, ip, #4278190080	@ 0xff000000
10003e40:	d154      	bne.n	10003eec <strcmp+0x194>
10003e42:	780b      	ldrb	r3, [r1, #0]
10003e44:	ea4f 6512 	mov.w	r5, r2, lsr #24
10003e48:	e054      	b.n	10003ef4 <strcmp+0x19c>
10003e4a:	ea4f 6512 	mov.w	r5, r2, lsr #24
10003e4e:	f003 03ff 	and.w	r3, r3, #255	@ 0xff
10003e52:	e04f      	b.n	10003ef4 <strcmp+0x19c>
10003e54:	ea4f 4502 	mov.w	r5, r2, lsl #16
10003e58:	f1a2 3c01 	sub.w	ip, r2, #16843009	@ 0x1010101
10003e5c:	ea4f 4515 	mov.w	r5, r5, lsr #16
10003e60:	ea2c 0c02 	bic.w	ip, ip, r2
10003e64:	ebb5 4f13 	cmp.w	r5, r3, lsr #16
10003e68:	d118      	bne.n	10003e9c <strcmp+0x144>
10003e6a:	f01c 3c80 	ands.w	ip, ip, #2155905152	@ 0x80808080
10003e6e:	bf08      	it	eq
10003e70:	f851 3b04 	ldreq.w	r3, [r1], #4
10003e74:	d107      	bne.n	10003e86 <strcmp+0x12e>
10003e76:	ea85 0502 	eor.w	r5, r5, r2
10003e7a:	ebb5 4f03 	cmp.w	r5, r3, lsl #16
10003e7e:	d109      	bne.n	10003e94 <strcmp+0x13c>
10003e80:	f850 2b04 	ldr.w	r2, [r0], #4
10003e84:	e7e6      	b.n	10003e54 <strcmp+0xfc>
10003e86:	ea5f 4c0c 	movs.w	ip, ip, lsl #16
10003e8a:	d12f      	bne.n	10003eec <strcmp+0x194>
10003e8c:	880b      	ldrh	r3, [r1, #0]
10003e8e:	ea4f 4512 	mov.w	r5, r2, lsr #16
10003e92:	e02f      	b.n	10003ef4 <strcmp+0x19c>
10003e94:	ea4f 4303 	mov.w	r3, r3, lsl #16
10003e98:	ea4f 4512 	mov.w	r5, r2, lsr #16
10003e9c:	ea4f 4313 	mov.w	r3, r3, lsr #16
10003ea0:	e028      	b.n	10003ef4 <strcmp+0x19c>
10003ea2:	bf00      	nop
10003ea4:	f002 05ff 	and.w	r5, r2, #255	@ 0xff
10003ea8:	ebb5 6f13 	cmp.w	r5, r3, lsr #24
10003eac:	f1a2 3c01 	sub.w	ip, r2, #16843009	@ 0x1010101
10003eb0:	ea2c 0c02 	bic.w	ip, ip, r2
10003eb4:	d10d      	bne.n	10003ed2 <strcmp+0x17a>
10003eb6:	f01c 3c80 	ands.w	ip, ip, #2155905152	@ 0x80808080
10003eba:	bf08      	it	eq
10003ebc:	f851 3b04 	ldreq.w	r3, [r1], #4
10003ec0:	d10a      	bne.n	10003ed8 <strcmp+0x180>
10003ec2:	ea85 0502 	eor.w	r5, r5, r2
10003ec6:	ebb5 2f03 	cmp.w	r5, r3, lsl #8
10003eca:	d10a      	bne.n	10003ee2 <strcmp+0x18a>
10003ecc:	f850 2b04 	ldr.w	r2, [r0], #4
10003ed0:	e7e8      	b.n	10003ea4 <strcmp+0x14c>
10003ed2:	ea4f 6313 	mov.w	r3, r3, lsr #24
10003ed6:	e00d      	b.n	10003ef4 <strcmp+0x19c>
10003ed8:	f012 0fff 	tst.w	r2, #255	@ 0xff
10003edc:	d006      	beq.n	10003eec <strcmp+0x194>
10003ede:	f851 3b04 	ldr.w	r3, [r1], #4
10003ee2:	ea4f 2512 	mov.w	r5, r2, lsr #8
10003ee6:	f023 437f 	bic.w	r3, r3, #4278190080	@ 0xff000000
10003eea:	e003      	b.n	10003ef4 <strcmp+0x19c>
10003eec:	f04f 0000 	mov.w	r0, #0
10003ef0:	bc20      	pop	{r5}
10003ef2:	4770      	bx	lr
10003ef4:	f005 02ff 	and.w	r2, r5, #255	@ 0xff
10003ef8:	f003 00ff 	and.w	r0, r3, #255	@ 0xff
10003efc:	2801      	cmp	r0, #1
10003efe:	bf28      	it	cs
10003f00:	4290      	cmpcs	r0, r2
10003f02:	bf04      	itt	eq
10003f04:	0a2d      	lsreq	r5, r5, #8
10003f06:	0a1b      	lsreq	r3, r3, #8
10003f08:	d0f4      	beq.n	10003ef4 <strcmp+0x19c>
10003f0a:	eba2 0000 	sub.w	r0, r2, r0
10003f0e:	bc20      	pop	{r5}
10003f10:	4770      	bx	lr
10003f12:	bf00      	nop

10003f14 <memcpy>:
10003f14:	4684      	mov	ip, r0
10003f16:	ea41 0300 	orr.w	r3, r1, r0
10003f1a:	f013 0303 	ands.w	r3, r3, #3
10003f1e:	d149      	bne.n	10003fb4 <memcpy+0xa0>
10003f20:	3a40      	subs	r2, #64	@ 0x40
10003f22:	d323      	bcc.n	10003f6c <memcpy+0x58>
10003f24:	680b      	ldr	r3, [r1, #0]
10003f26:	6003      	str	r3, [r0, #0]
10003f28:	684b      	ldr	r3, [r1, #4]
10003f2a:	6043      	str	r3, [r0, #4]
10003f2c:	688b      	ldr	r3, [r1, #8]
10003f2e:	6083      	str	r3, [r0, #8]
10003f30:	68cb      	ldr	r3, [r1, #12]
10003f32:	60c3      	str	r3, [r0, #12]
10003f34:	690b      	ldr	r3, [r1, #16]
10003f36:	6103      	str	r3, [r0, #16]
10003f38:	694b      	ldr	r3, [r1, #20]
10003f3a:	6143      	str	r3, [r0, #20]
10003f3c:	698b      	ldr	r3, [r1, #24]
10003f3e:	6183      	str	r3, [r0, #24]
10003f40:	69cb      	ldr	r3, [r1, #28]
10003f42:	61c3      	str	r3, [r0, #28]
10003f44:	6a0b      	ldr	r3, [r1, #32]
10003f46:	6203      	str	r3, [r0, #32]
10003f48:	6a4b      	ldr	r3, [r1, #36]	@ 0x24
10003f4a:	6243      	str	r3, [r0, #36]	@ 0x24
10003f4c:	6a8b      	ldr	r3, [r1, #40]	@ 0x28
10003f4e:	6283      	str	r3, [r0, #40]	@ 0x28
10003f50:	6acb      	ldr	r3, [r1, #44]	@ 0x2c
10003f52:	62c3      	str	r3, [r0, #44]	@ 0x2c
10003f54:	6b0b      	ldr	r3, [r1, #48]	@ 0x30
10003f56:	6303      	str	r3, [r0, #48]	@ 0x30
10003f58:	6b4b      	ldr	r3, [r1, #52]	@ 0x34
10003f5a:	6343      	str	r3, [r0, #52]	@ 0x34
10003f5c:	6b8b      	ldr	r3, [r1, #56]	@ 0x38
10003f5e:	6383      	str	r3, [r0, #56]	@ 0x38
10003f60:	6bcb      	ldr	r3, [r1, #60]	@ 0x3c
10003f62:	63c3      	str	r3, [r0, #60]	@ 0x3c
10003f64:	3040      	adds	r0, #64	@ 0x40
10003f66:	3140      	adds	r1, #64	@ 0x40
10003f68:	3a40      	subs	r2, #64	@ 0x40
10003f6a:	d2db      	bcs.n	10003f24 <memcpy+0x10>
10003f6c:	3230      	adds	r2, #48	@ 0x30
10003f6e:	d30b      	bcc.n	10003f88 <memcpy+0x74>
10003f70:	680b      	ldr	r3, [r1, #0]
10003f72:	6003      	str	r3, [r0, #0]
10003f74:	684b      	ldr	r3, [r1, #4]
10003f76:	6043      	str	r3, [r0, #4]
10003f78:	688b      	ldr	r3, [r1, #8]
10003f7a:	6083      	str	r3, [r0, #8]
10003f7c:	68cb      	ldr	r3, [r1, #12]
10003f7e:	60c3      	str	r3, [r0, #12]
10003f80:	3010      	adds	r0, #16
10003f82:	3110      	adds	r1, #16
10003f84:	3a10      	subs	r2, #16
10003f86:	d2f3      	bcs.n	10003f70 <memcpy+0x5c>
10003f88:	320c      	adds	r2, #12
10003f8a:	d305      	bcc.n	10003f98 <memcpy+0x84>
10003f8c:	f851 3b04 	ldr.w	r3, [r1], #4
10003f90:	f840 3b04 	str.w	r3, [r0], #4
10003f94:	3a04      	subs	r2, #4
10003f96:	d2f9      	bcs.n	10003f8c <memcpy+0x78>
10003f98:	3204      	adds	r2, #4
10003f9a:	d008      	beq.n	10003fae <memcpy+0x9a>
10003f9c:	07d2      	lsls	r2, r2, #31
10003f9e:	bf1c      	itt	ne
10003fa0:	f811 3b01 	ldrbne.w	r3, [r1], #1
10003fa4:	f800 3b01 	strbne.w	r3, [r0], #1
10003fa8:	d301      	bcc.n	10003fae <memcpy+0x9a>
10003faa:	880b      	ldrh	r3, [r1, #0]
10003fac:	8003      	strh	r3, [r0, #0]
10003fae:	4660      	mov	r0, ip
10003fb0:	4770      	bx	lr
10003fb2:	bf00      	nop
10003fb4:	2a08      	cmp	r2, #8
10003fb6:	d313      	bcc.n	10003fe0 <memcpy+0xcc>
10003fb8:	078b      	lsls	r3, r1, #30
10003fba:	d0b1      	beq.n	10003f20 <memcpy+0xc>
10003fbc:	f010 0303 	ands.w	r3, r0, #3
10003fc0:	d0ae      	beq.n	10003f20 <memcpy+0xc>
10003fc2:	f1c3 0304 	rsb	r3, r3, #4
10003fc6:	1ad2      	subs	r2, r2, r3
10003fc8:	07db      	lsls	r3, r3, #31
10003fca:	bf1c      	itt	ne
10003fcc:	f811 3b01 	ldrbne.w	r3, [r1], #1
10003fd0:	f800 3b01 	strbne.w	r3, [r0], #1
10003fd4:	d3a4      	bcc.n	10003f20 <memcpy+0xc>
10003fd6:	f831 3b02 	ldrh.w	r3, [r1], #2
10003fda:	f820 3b02 	strh.w	r3, [r0], #2
10003fde:	e79f      	b.n	10003f20 <memcpy+0xc>
10003fe0:	3a04      	subs	r2, #4
10003fe2:	d3d9      	bcc.n	10003f98 <memcpy+0x84>
10003fe4:	3a01      	subs	r2, #1
10003fe6:	f811 3b01 	ldrb.w	r3, [r1], #1
10003fea:	f800 3b01 	strb.w	r3, [r0], #1
10003fee:	d2f9      	bcs.n	10003fe4 <memcpy+0xd0>
10003ff0:	780b      	ldrb	r3, [r1, #0]
10003ff2:	7003      	strb	r3, [r0, #0]
10003ff4:	784b      	ldrb	r3, [r1, #1]
10003ff6:	7043      	strb	r3, [r0, #1]
10003ff8:	788b      	ldrb	r3, [r1, #2]
10003ffa:	7083      	strb	r3, [r0, #2]
10003ffc:	4660      	mov	r0, ip
10003ffe:	4770      	bx	lr

10004000 <strlen>:
10004000:	f020 0103 	bic.w	r1, r0, #3
10004004:	f010 0003 	ands.w	r0, r0, #3
10004008:	f1c0 0000 	rsb	r0, r0, #0
1000400c:	f851 3b04 	ldr.w	r3, [r1], #4
10004010:	f100 0c04 	add.w	ip, r0, #4
10004014:	ea4f 0ccc 	mov.w	ip, ip, lsl #3
10004018:	f06f 0200 	mvn.w	r2, #0
1000401c:	bf1c      	itt	ne
1000401e:	fa22 f20c 	lsrne.w	r2, r2, ip
10004022:	4313      	orrne	r3, r2
10004024:	f04f 0c01 	mov.w	ip, #1
10004028:	ea4c 2c0c 	orr.w	ip, ip, ip, lsl #8
1000402c:	ea4c 4c0c 	orr.w	ip, ip, ip, lsl #16
10004030:	eba3 020c 	sub.w	r2, r3, ip
10004034:	ea22 0203 	bic.w	r2, r2, r3
10004038:	ea12 12cc 	ands.w	r2, r2, ip, lsl #7
1000403c:	bf04      	itt	eq
1000403e:	f851 3b04 	ldreq.w	r3, [r1], #4
10004042:	3004      	addeq	r0, #4
10004044:	d0f4      	beq.n	10004030 <strlen+0x30>
10004046:	f1c2 0100 	rsb	r1, r2, #0
1000404a:	ea02 0201 	and.w	r2, r2, r1
1000404e:	fab2 f282 	clz	r2, r2
10004052:	f1c2 021f 	rsb	r2, r2, #31
10004056:	eb00 00d2 	add.w	r0, r0, r2, lsr #3
1000405a:	4770      	bx	lr

1000405c <_fini>:
1000405c:	b5f8      	push	{r3, r4, r5, r6, r7, lr}
1000405e:	bf00      	nop

10004060 <____aeabi_uldivmod_veneer>:
10004060:	f85f f000 	ldr.w	pc, [pc]	@ 10004064 <____aeabi_uldivmod_veneer+0x4>
10004064:	20000229 	.word	0x20000229

10004068 <__mutex_exit_veneer>:
10004068:	f85f f000 	ldr.w	pc, [pc]	@ 1000406c <__mutex_exit_veneer+0x4>
1000406c:	200001ed 	.word	0x200001ed

10004070 <__mutex_try_enter_block_until_veneer>:
10004070:	f85f f000 	ldr.w	pc, [pc]	@ 10004074 <__mutex_try_enter_block_until_veneer+0x4>
10004074:	20000181 	.word	0x20000181

10004078 <__pre_init_runtime_init_bootrom_reset>:
10004078:	100019dd                                ....

1000407c <__pre_init_runtime_init_early_resets>:
1000407c:	10001951                                Q...

10004080 <__pre_init_runtime_init_usb_power_down>:
10004080:	10001985                                ....

10004084 <__pre_init_runtime_init_clocks>:
10004084:	10001a29                                )...

10004088 <__pre_init_runtime_init_post_clock_resets>:
10004088:	100019bd                                ....

1000408c <__pre_init_runtime_init_boot_locks_reset>:
1000408c:	100018d9                                ....

10004090 <__pre_init_runtime_init_spin_locks_reset>:
10004090:	10001a05                                ....

10004094 <__pre_init_runtime_init_bootrom_locking_enable>:
10004094:	100018c5                                ....

10004098 <__pre_init_runtime_init_mutex>:
10004098:	10000dd9                                ....

1000409c <__pre_init_runtime_init_install_ram_vector_table>:
1000409c:	10001a09                                ....

100040a0 <__pre_init_runtime_init_default_alarm_pool>:
100040a0:	10001141                                A...

100040a4 <__pre_init_first_per_core_initializer>:
100040a4:	10001921                                !...

100040a8 <__pre_init_runtime_init_per_core_bootrom_reset>:
100040a8:	100019f1                                ....

100040ac <__pre_init_runtime_init_per_core_enable_coprocessors>:
100040ac:	100019a1                                ....

100040b0 <__pre_init_spinlock_set_extexclall>:
100040b0:	10000a21                                !...

100040b4 <__pre_init_runtime_init_per_core_irq_priorities>:
100040b4:	10000a49                                I...

100040b8 <__frame_dummy_init_array_entry>:
100040b8:	10000219 10003c85                       .....<..

Disassembly of section .data:

20000110 <mutex_enter_block_until>:
20000110:	f04f 4150 	mov.w	r1, #3489660928	@ 0xd0000000
20000114:	e92d 41f0 	stmdb	sp!, {r4, r5, r6, r7, r8, lr}
20000118:	2700      	movs	r7, #0
2000011a:	4604      	mov	r4, r0
2000011c:	4616      	mov	r6, r2
2000011e:	461d      	mov	r5, r3
20000120:	f8d1 8000 	ldr.w	r8, [r1]
20000124:	e009      	b.n	2000013a <mutex_enter_block_until+0x2a>
20000126:	6823      	ldr	r3, [r4, #0]
20000128:	e8c3 7f8f 	stlb	r7, [r3]
2000012c:	f38c 8810 	msr	PRIMASK, ip
20000130:	4630      	mov	r0, r6
20000132:	4629      	mov	r1, r5
20000134:	f000 fa14 	bl	20000560 <__best_effort_wfe_or_timeout_veneer>
20000138:	b9f0      	cbnz	r0, 20000178 <mutex_enter_block_until+0x68>
2000013a:	6821      	ldr	r1, [r4, #0]
2000013c:	f3ef 8c10 	mrs	ip, PRIMASK
20000140:	b672      	cpsid	i
20000142:	e8d1 2fcf 	ldaexb	r2, [r1]
20000146:	2301      	movs	r3, #1
20000148:	2a00      	cmp	r2, #0
2000014a:	d1fa      	bne.n	20000142 <mutex_enter_block_until+0x32>
2000014c:	e8c1 3f42 	strexb	r2, r3, [r1]
20000150:	2a00      	cmp	r2, #0
20000152:	d1f6      	bne.n	20000142 <mutex_enter_block_until+0x32>
20000154:	f3bf 8f5f 	dmb	sy
20000158:	f994 e004 	ldrsb.w	lr, [r4, #4]
2000015c:	f1be 0f00 	cmp.w	lr, #0
20000160:	dae1      	bge.n	20000126 <mutex_enter_block_until+0x16>
20000162:	2300      	movs	r3, #0
20000164:	6822      	ldr	r2, [r4, #0]
20000166:	f884 8004 	strb.w	r8, [r4, #4]
2000016a:	e8c2 3f8f 	stlb	r3, [r2]
2000016e:	f38c 8810 	msr	PRIMASK, ip
20000172:	2001      	movs	r0, #1
20000174:	e8bd 81f0 	ldmia.w	sp!, {r4, r5, r6, r7, r8, pc}
20000178:	2000      	movs	r0, #0
2000017a:	e8bd 81f0 	ldmia.w	sp!, {r4, r5, r6, r7, r8, pc}
2000017e:	bf00      	nop

20000180 <mutex_try_enter_block_until>:
20000180:	b530      	push	{r4, r5, lr}
20000182:	4601      	mov	r1, r0
20000184:	6804      	ldr	r4, [r0, #0]
20000186:	f3ef 8c10 	mrs	ip, PRIMASK
2000018a:	b672      	cpsid	i
2000018c:	e8d4 efcf 	ldaexb	lr, [r4]
20000190:	2501      	movs	r5, #1
20000192:	f1be 0f00 	cmp.w	lr, #0
20000196:	d1f9      	bne.n	2000018c <mutex_try_enter_block_until+0xc>
20000198:	e8c4 5f4e 	strexb	lr, r5, [r4]
2000019c:	f1be 0f00 	cmp.w	lr, #0
200001a0:	d1f4      	bne.n	2000018c <mutex_try_enter_block_until+0xc>
200001a2:	f3bf 8f5f 	dmb	sy
200001a6:	f990 4004 	ldrsb.w	r4, [r0, #4]
200001aa:	2c00      	cmp	r4, #0
200001ac:	db11      	blt.n	200001d2 <mutex_try_enter_block_until+0x52>
200001ae:	2100      	movs	r1, #0
200001b0:	6805      	ldr	r5, [r0, #0]
200001b2:	e8c5 1f8f 	stlb	r1, [r5]
200001b6:	f38c 8810 	msr	PRIMASK, ip
200001ba:	f04f 4c50 	mov.w	ip, #3489660928	@ 0xd0000000
200001be:	f99c c000 	ldrsb.w	ip, [ip]
200001c2:	45a4      	cmp	ip, r4
200001c4:	d101      	bne.n	200001ca <mutex_try_enter_block_until+0x4a>
200001c6:	4608      	mov	r0, r1
200001c8:	bd30      	pop	{r4, r5, pc}
200001ca:	e8bd 4030 	ldmia.w	sp!, {r4, r5, lr}
200001ce:	f7ff bf9f 	b.w	20000110 <mutex_enter_block_until>
200001d2:	f04f 4050 	mov.w	r0, #3489660928	@ 0xd0000000
200001d6:	6800      	ldr	r0, [r0, #0]
200001d8:	2300      	movs	r3, #0
200001da:	680a      	ldr	r2, [r1, #0]
200001dc:	7108      	strb	r0, [r1, #4]
200001de:	e8c2 3f8f 	stlb	r3, [r2]
200001e2:	f38c 8810 	msr	PRIMASK, ip
200001e6:	2001      	movs	r0, #1
200001e8:	bd30      	pop	{r4, r5, pc}
200001ea:	bf00      	nop

200001ec <mutex_exit>:
200001ec:	6803      	ldr	r3, [r0, #0]
200001ee:	f3ef 8210 	mrs	r2, PRIMASK
200001f2:	b672      	cpsid	i
200001f4:	e8d3 cfcf 	ldaexb	ip, [r3]
200001f8:	2101      	movs	r1, #1
200001fa:	f1bc 0f00 	cmp.w	ip, #0
200001fe:	d1f9      	bne.n	200001f4 <mutex_exit+0x8>
20000200:	e8c3 1f4c 	strexb	ip, r1, [r3]
20000204:	f1bc 0f00 	cmp.w	ip, #0
20000208:	d1f4      	bne.n	200001f4 <mutex_exit+0x8>
2000020a:	f3bf 8f5f 	dmb	sy
2000020e:	f04f 0cff 	mov.w	ip, #255	@ 0xff
20000212:	2300      	movs	r3, #0
20000214:	6801      	ldr	r1, [r0, #0]
20000216:	f880 c004 	strb.w	ip, [r0, #4]
2000021a:	e8c1 3f8f 	stlb	r3, [r1]
2000021e:	f382 8810 	msr	PRIMASK, r2
20000222:	bf40      	sev
20000224:	4770      	bx	lr
20000226:	bf00      	nop

20000228 <__aeabi_uldivmod>:
20000228:	b953      	cbnz	r3, 20000240 <__aeabi_uldivmod+0x18>
2000022a:	b94a      	cbnz	r2, 20000240 <__aeabi_uldivmod+0x18>
2000022c:	2900      	cmp	r1, #0
2000022e:	bf08      	it	eq
20000230:	2800      	cmpeq	r0, #0
20000232:	bf1c      	itt	ne
20000234:	f04f 31ff 	movne.w	r1, #4294967295
20000238:	f04f 30ff 	movne.w	r0, #4294967295
2000023c:	f000 b98c 	b.w	20000558 <__aeabi_idiv0>
20000240:	f1ad 0c08 	sub.w	ip, sp, #8
20000244:	e96d ce04 	strd	ip, lr, [sp, #-16]!
20000248:	f000 f806 	bl	20000258 <__udivmoddi4>
2000024c:	f8dd e004 	ldr.w	lr, [sp, #4]
20000250:	e9dd 2302 	ldrd	r2, r3, [sp, #8]
20000254:	b004      	add	sp, #16
20000256:	4770      	bx	lr

20000258 <__udivmoddi4>:
20000258:	e92d 4ff0 	stmdb	sp!, {r4, r5, r6, r7, r8, r9, sl, fp, lr}
2000025c:	9d09      	ldr	r5, [sp, #36]	@ 0x24
2000025e:	460e      	mov	r6, r1
20000260:	4604      	mov	r4, r0
20000262:	460f      	mov	r7, r1
20000264:	2b00      	cmp	r3, #0
20000266:	d147      	bne.n	200002f8 <__udivmoddi4+0xa0>
20000268:	428a      	cmp	r2, r1
2000026a:	4694      	mov	ip, r2
2000026c:	fab2 f382 	clz	r3, r2
20000270:	d95a      	bls.n	20000328 <__udivmoddi4+0xd0>
20000272:	b143      	cbz	r3, 20000286 <__udivmoddi4+0x2e>
20000274:	fa02 fc03 	lsl.w	ip, r2, r3
20000278:	f1c3 0220 	rsb	r2, r3, #32
2000027c:	409f      	lsls	r7, r3
2000027e:	409c      	lsls	r4, r3
20000280:	fa20 f202 	lsr.w	r2, r0, r2
20000284:	4317      	orrs	r7, r2
20000286:	ea4f 461c 	mov.w	r6, ip, lsr #16
2000028a:	fa1f fe8c 	uxth.w	lr, ip
2000028e:	0c22      	lsrs	r2, r4, #16
20000290:	fbb7 f1f6 	udiv	r1, r7, r6
20000294:	fb06 7711 	mls	r7, r6, r1, r7
20000298:	fb01 f00e 	mul.w	r0, r1, lr
2000029c:	ea42 4207 	orr.w	r2, r2, r7, lsl #16
200002a0:	4290      	cmp	r0, r2
200002a2:	d908      	bls.n	200002b6 <__udivmoddi4+0x5e>
200002a4:	eb1c 0202 	adds.w	r2, ip, r2
200002a8:	f101 37ff 	add.w	r7, r1, #4294967295
200002ac:	d202      	bcs.n	200002b4 <__udivmoddi4+0x5c>
200002ae:	4290      	cmp	r0, r2
200002b0:	f200 813c 	bhi.w	2000052c <__udivmoddi4+0x2d4>
200002b4:	4639      	mov	r1, r7
200002b6:	1a12      	subs	r2, r2, r0
200002b8:	b2a4      	uxth	r4, r4
200002ba:	fbb2 f0f6 	udiv	r0, r2, r6
200002be:	fb06 2210 	mls	r2, r6, r0, r2
200002c2:	fb00 fe0e 	mul.w	lr, r0, lr
200002c6:	ea44 4402 	orr.w	r4, r4, r2, lsl #16
200002ca:	45a6      	cmp	lr, r4
200002cc:	d908      	bls.n	200002e0 <__udivmoddi4+0x88>
200002ce:	eb1c 0404 	adds.w	r4, ip, r4
200002d2:	f100 32ff 	add.w	r2, r0, #4294967295
200002d6:	d202      	bcs.n	200002de <__udivmoddi4+0x86>
200002d8:	45a6      	cmp	lr, r4
200002da:	f200 812a 	bhi.w	20000532 <__udivmoddi4+0x2da>
200002de:	4610      	mov	r0, r2
200002e0:	ea40 4001 	orr.w	r0, r0, r1, lsl #16
200002e4:	eba4 040e 	sub.w	r4, r4, lr
200002e8:	2100      	movs	r1, #0
200002ea:	b11d      	cbz	r5, 200002f4 <__udivmoddi4+0x9c>
200002ec:	40dc      	lsrs	r4, r3
200002ee:	2300      	movs	r3, #0
200002f0:	e9c5 4300 	strd	r4, r3, [r5]
200002f4:	e8bd 8ff0 	ldmia.w	sp!, {r4, r5, r6, r7, r8, r9, sl, fp, pc}
200002f8:	428b      	cmp	r3, r1
200002fa:	d905      	bls.n	20000308 <__udivmoddi4+0xb0>
200002fc:	b10d      	cbz	r5, 20000302 <__udivmoddi4+0xaa>
200002fe:	e9c5 0100 	strd	r0, r1, [r5]
20000302:	2100      	movs	r1, #0
20000304:	4608      	mov	r0, r1
20000306:	e7f5      	b.n	200002f4 <__udivmoddi4+0x9c>
20000308:	fab3 f183 	clz	r1, r3
2000030c:	2900      	cmp	r1, #0
2000030e:	d14f      	bne.n	200003b0 <__udivmoddi4+0x158>
20000310:	42b3      	cmp	r3, r6
20000312:	f0c0 8102 	bcc.w	2000051a <__udivmoddi4+0x2c2>
20000316:	4282      	cmp	r2, r0
20000318:	f240 80ff 	bls.w	2000051a <__udivmoddi4+0x2c2>
2000031c:	4608      	mov	r0, r1
2000031e:	2d00      	cmp	r5, #0
20000320:	d0e8      	beq.n	200002f4 <__udivmoddi4+0x9c>
20000322:	e9c5 4700 	strd	r4, r7, [r5]
20000326:	e7e5      	b.n	200002f4 <__udivmoddi4+0x9c>
20000328:	2b00      	cmp	r3, #0
2000032a:	f040 80af 	bne.w	2000048c <__udivmoddi4+0x234>
2000032e:	1a8a      	subs	r2, r1, r2
20000330:	ea4f 4e1c 	mov.w	lr, ip, lsr #16
20000334:	fa1f f78c 	uxth.w	r7, ip
20000338:	2101      	movs	r1, #1
2000033a:	fbb2 f6fe 	udiv	r6, r2, lr
2000033e:	fb0e 2016 	mls	r0, lr, r6, r2
20000342:	0c22      	lsrs	r2, r4, #16
20000344:	ea42 4200 	orr.w	r2, r2, r0, lsl #16
20000348:	fb07 f006 	mul.w	r0, r7, r6
2000034c:	4290      	cmp	r0, r2
2000034e:	d90f      	bls.n	20000370 <__udivmoddi4+0x118>
20000350:	eb1c 0202 	adds.w	r2, ip, r2
20000354:	f106 38ff 	add.w	r8, r6, #4294967295
20000358:	bf2c      	ite	cs
2000035a:	f04f 0901 	movcs.w	r9, #1
2000035e:	f04f 0900 	movcc.w	r9, #0
20000362:	4290      	cmp	r0, r2
20000364:	d903      	bls.n	2000036e <__udivmoddi4+0x116>
20000366:	f1b9 0f00 	cmp.w	r9, #0
2000036a:	f000 80dc 	beq.w	20000526 <__udivmoddi4+0x2ce>
2000036e:	4646      	mov	r6, r8
20000370:	1a12      	subs	r2, r2, r0
20000372:	b2a4      	uxth	r4, r4
20000374:	fbb2 f0fe 	udiv	r0, r2, lr
20000378:	fb0e 2210 	mls	r2, lr, r0, r2
2000037c:	fb00 f707 	mul.w	r7, r0, r7
20000380:	ea44 4402 	orr.w	r4, r4, r2, lsl #16
20000384:	42a7      	cmp	r7, r4
20000386:	d90f      	bls.n	200003a8 <__udivmoddi4+0x150>
20000388:	eb1c 0404 	adds.w	r4, ip, r4
2000038c:	f100 32ff 	add.w	r2, r0, #4294967295
20000390:	bf2c      	ite	cs
20000392:	f04f 0e01 	movcs.w	lr, #1
20000396:	f04f 0e00 	movcc.w	lr, #0
2000039a:	42a7      	cmp	r7, r4
2000039c:	d903      	bls.n	200003a6 <__udivmoddi4+0x14e>
2000039e:	f1be 0f00 	cmp.w	lr, #0
200003a2:	f000 80c9 	beq.w	20000538 <__udivmoddi4+0x2e0>
200003a6:	4610      	mov	r0, r2
200003a8:	1be4      	subs	r4, r4, r7
200003aa:	ea40 4006 	orr.w	r0, r0, r6, lsl #16
200003ae:	e79c      	b.n	200002ea <__udivmoddi4+0x92>
200003b0:	f1c1 0420 	rsb	r4, r1, #32
200003b4:	408b      	lsls	r3, r1
200003b6:	fa06 fc01 	lsl.w	ip, r6, r1
200003ba:	fa00 fe01 	lsl.w	lr, r0, r1
200003be:	fa22 f704 	lsr.w	r7, r2, r4
200003c2:	40e6      	lsrs	r6, r4
200003c4:	408a      	lsls	r2, r1
200003c6:	431f      	orrs	r7, r3
200003c8:	fa20 f304 	lsr.w	r3, r0, r4
200003cc:	ea4f 4817 	mov.w	r8, r7, lsr #16
200003d0:	ea43 030c 	orr.w	r3, r3, ip
200003d4:	fa1f fc87 	uxth.w	ip, r7
200003d8:	ea4f 4913 	mov.w	r9, r3, lsr #16
200003dc:	fbb6 f0f8 	udiv	r0, r6, r8
200003e0:	fb08 6610 	mls	r6, r8, r0, r6
200003e4:	ea49 4606 	orr.w	r6, r9, r6, lsl #16
200003e8:	fb00 f90c 	mul.w	r9, r0, ip
200003ec:	45b1      	cmp	r9, r6
200003ee:	d90e      	bls.n	2000040e <__udivmoddi4+0x1b6>
200003f0:	19be      	adds	r6, r7, r6
200003f2:	f100 3aff 	add.w	sl, r0, #4294967295
200003f6:	bf2c      	ite	cs
200003f8:	f04f 0b01 	movcs.w	fp, #1
200003fc:	f04f 0b00 	movcc.w	fp, #0
20000400:	45b1      	cmp	r9, r6
20000402:	d903      	bls.n	2000040c <__udivmoddi4+0x1b4>
20000404:	f1bb 0f00 	cmp.w	fp, #0
20000408:	f000 80a2 	beq.w	20000550 <__udivmoddi4+0x2f8>
2000040c:	4650      	mov	r0, sl
2000040e:	eba6 0609 	sub.w	r6, r6, r9
20000412:	fa1f f983 	uxth.w	r9, r3
20000416:	fbb6 f3f8 	udiv	r3, r6, r8
2000041a:	fb08 6613 	mls	r6, r8, r3, r6
2000041e:	fb03 fc0c 	mul.w	ip, r3, ip
20000422:	ea49 4606 	orr.w	r6, r9, r6, lsl #16
20000426:	45b4      	cmp	ip, r6
20000428:	d90e      	bls.n	20000448 <__udivmoddi4+0x1f0>
2000042a:	19be      	adds	r6, r7, r6
2000042c:	f103 38ff 	add.w	r8, r3, #4294967295
20000430:	bf2c      	ite	cs
20000432:	f04f 0901 	movcs.w	r9, #1
20000436:	f04f 0900 	movcc.w	r9, #0
2000043a:	45b4      	cmp	ip, r6
2000043c:	d903      	bls.n	20000446 <__udivmoddi4+0x1ee>
2000043e:	f1b9 0f00 	cmp.w	r9, #0
20000442:	f000 8082 	beq.w	2000054a <__udivmoddi4+0x2f2>
20000446:	4643      	mov	r3, r8
20000448:	ea43 4000 	orr.w	r0, r3, r0, lsl #16
2000044c:	eba6 060c 	sub.w	r6, r6, ip
20000450:	fba0 8c02 	umull	r8, ip, r0, r2
20000454:	4566      	cmp	r6, ip
20000456:	4643      	mov	r3, r8
20000458:	46e1      	mov	r9, ip
2000045a:	d302      	bcc.n	20000462 <__udivmoddi4+0x20a>
2000045c:	d107      	bne.n	2000046e <__udivmoddi4+0x216>
2000045e:	45c6      	cmp	lr, r8
20000460:	d205      	bcs.n	2000046e <__udivmoddi4+0x216>
20000462:	ebb8 0302 	subs.w	r3, r8, r2
20000466:	eb6c 0c07 	sbc.w	ip, ip, r7
2000046a:	3801      	subs	r0, #1
2000046c:	46e1      	mov	r9, ip
2000046e:	b15d      	cbz	r5, 20000488 <__udivmoddi4+0x230>
20000470:	ebbe 0203 	subs.w	r2, lr, r3
20000474:	eb66 0609 	sbc.w	r6, r6, r9
20000478:	fa06 f404 	lsl.w	r4, r6, r4
2000047c:	fa22 f301 	lsr.w	r3, r2, r1
20000480:	40ce      	lsrs	r6, r1
20000482:	431c      	orrs	r4, r3
20000484:	e9c5 4600 	strd	r4, r6, [r5]
20000488:	2100      	movs	r1, #0
2000048a:	e733      	b.n	200002f4 <__udivmoddi4+0x9c>
2000048c:	fa02 fc03 	lsl.w	ip, r2, r3
20000490:	f1c3 0220 	rsb	r2, r3, #32
20000494:	4099      	lsls	r1, r3
20000496:	409c      	lsls	r4, r3
20000498:	40d6      	lsrs	r6, r2
2000049a:	ea4f 4e1c 	mov.w	lr, ip, lsr #16
2000049e:	fa20 f202 	lsr.w	r2, r0, r2
200004a2:	fa1f f78c 	uxth.w	r7, ip
200004a6:	fbb6 f0fe 	udiv	r0, r6, lr
200004aa:	430a      	orrs	r2, r1
200004ac:	fb0e 6610 	mls	r6, lr, r0, r6
200004b0:	0c11      	lsrs	r1, r2, #16
200004b2:	ea41 4106 	orr.w	r1, r1, r6, lsl #16
200004b6:	fb00 f607 	mul.w	r6, r0, r7
200004ba:	428e      	cmp	r6, r1
200004bc:	d90e      	bls.n	200004dc <__udivmoddi4+0x284>
200004be:	eb1c 0101 	adds.w	r1, ip, r1
200004c2:	f100 38ff 	add.w	r8, r0, #4294967295
200004c6:	bf2c      	ite	cs
200004c8:	f04f 0901 	movcs.w	r9, #1
200004cc:	f04f 0900 	movcc.w	r9, #0
200004d0:	428e      	cmp	r6, r1
200004d2:	d902      	bls.n	200004da <__udivmoddi4+0x282>
200004d4:	f1b9 0f00 	cmp.w	r9, #0
200004d8:	d034      	beq.n	20000544 <__udivmoddi4+0x2ec>
200004da:	4640      	mov	r0, r8
200004dc:	1b89      	subs	r1, r1, r6
200004de:	b292      	uxth	r2, r2
200004e0:	fbb1 f6fe 	udiv	r6, r1, lr
200004e4:	fb0e 1116 	mls	r1, lr, r6, r1
200004e8:	ea42 4201 	orr.w	r2, r2, r1, lsl #16
200004ec:	fb06 f107 	mul.w	r1, r6, r7
200004f0:	4291      	cmp	r1, r2
200004f2:	d90e      	bls.n	20000512 <__udivmoddi4+0x2ba>
200004f4:	eb1c 0202 	adds.w	r2, ip, r2
200004f8:	f106 38ff 	add.w	r8, r6, #4294967295
200004fc:	bf2c      	ite	cs
200004fe:	f04f 0901 	movcs.w	r9, #1
20000502:	f04f 0900 	movcc.w	r9, #0
20000506:	4291      	cmp	r1, r2
20000508:	d902      	bls.n	20000510 <__udivmoddi4+0x2b8>
2000050a:	f1b9 0f00 	cmp.w	r9, #0
2000050e:	d016      	beq.n	2000053e <__udivmoddi4+0x2e6>
20000510:	4646      	mov	r6, r8
20000512:	1a52      	subs	r2, r2, r1
20000514:	ea46 4100 	orr.w	r1, r6, r0, lsl #16
20000518:	e70f      	b.n	2000033a <__udivmoddi4+0xe2>
2000051a:	1a84      	subs	r4, r0, r2
2000051c:	eb66 0203 	sbc.w	r2, r6, r3
20000520:	2001      	movs	r0, #1
20000522:	4617      	mov	r7, r2
20000524:	e6fb      	b.n	2000031e <__udivmoddi4+0xc6>
20000526:	3e02      	subs	r6, #2
20000528:	4462      	add	r2, ip
2000052a:	e721      	b.n	20000370 <__udivmoddi4+0x118>
2000052c:	3902      	subs	r1, #2
2000052e:	4462      	add	r2, ip
20000530:	e6c1      	b.n	200002b6 <__udivmoddi4+0x5e>
20000532:	4464      	add	r4, ip
20000534:	3802      	subs	r0, #2
20000536:	e6d3      	b.n	200002e0 <__udivmoddi4+0x88>
20000538:	4464      	add	r4, ip
2000053a:	3802      	subs	r0, #2
2000053c:	e734      	b.n	200003a8 <__udivmoddi4+0x150>
2000053e:	3e02      	subs	r6, #2
20000540:	4462      	add	r2, ip
20000542:	e7e6      	b.n	20000512 <__udivmoddi4+0x2ba>
20000544:	3802      	subs	r0, #2
20000546:	4461      	add	r1, ip
20000548:	e7c8      	b.n	200004dc <__udivmoddi4+0x284>
2000054a:	3b02      	subs	r3, #2
2000054c:	443e      	add	r6, r7
2000054e:	e77b      	b.n	20000448 <__udivmoddi4+0x1f0>
20000550:	3802      	subs	r0, #2
20000552:	443e      	add	r6, r7
20000554:	e75b      	b.n	2000040e <__udivmoddi4+0x1b6>
20000556:	bf00      	nop

20000558 <__aeabi_idiv0>:
20000558:	4770      	bx	lr
2000055a:	bf00      	nop
2000055c:	0000      	movs	r0, r0
	...

20000560 <__best_effort_wfe_or_timeout_veneer>:
20000560:	f85f f000 	ldr.w	pc, [pc]	@ 20000564 <__best_effort_wfe_or_timeout_veneer+0x4>
20000564:	10001471 	.word	0x10001471

20000568 <striped_spin_lock_num>:
20000568:	00000010                                ....

2000056c <irq_handler_chain_slots>:
2000056c:	00000000 	.word	0x00000000
20000570:	00010000 	.word	0x00010000
	...
2000057c:	00020000 	.word	0x00020000
	...
20000588:	00030000 	.word	0x00030000
	...
20000594:	00ff0000 	.word	0x00ff0000
20000598:	00000000 	.word	0x00000000

2000059c <irq_handler_chain_first_slot>:
2000059c:	b501      	push	{r0, lr}
2000059e:	6848      	ldr	r0, [r1, #4]
200005a0:	3101      	adds	r1, #1
200005a2:	468e      	mov	lr, r1
200005a4:	4700      	bx	r0

200005a6 <irq_handler_chain_remove_tail>:
200005a6:	4670      	mov	r0, lr
200005a8:	3809      	subs	r0, #9
200005aa:	4901      	ldr	r1, [pc, #4]	@ (200005b0 <irq_handler_chain_remove_tail+0xa>)
200005ac:	4788      	blx	r1
200005ae:	bd01      	pop	{r0, pc}
200005b0:	10000d11 	.word	0x10000d11

200005b4 <default_alarm_pool>:
	...
200005c8:	20000740                                @.. 

200005cc <stdio_uart>:
200005cc:	10003869 10003971 100038b9 10003981     i8..q9...8...9..
200005dc:	00000000 00000100                       ........

200005e4 <i2c0_inst>:
200005e4:	40090000 00000000                       ...@....

200005ec <print_mutex>:
	...
